(dp0
S'size'
p1
(I14
I21
tp2
sS'actorNames'
p3
(lp4
S'blip.png'
p5
aS'zombie.png'
p6
aS'soldier.png'
p7
aS'civilian.png'
p8
aS'corpse.png'
p9
asS'wall'
p10
I1
sS'height'
p11
I21
sS'visible'
p12
ccopy_reg
_reconstructor
p13
(cpygame.sprite
Group
p14
c__builtin__
object
p15
Ntp16
Rp17
(dp18
S'spritedict'
p19
(dp20
g13
(csrc.actor
Civilian
p21
g15
Ntp22
Rp23
(dp24
S'distanceMoved'
p25
F3.463459149853437
sS'fleeing'
p26
I01
sS'image'
p27
NsS'blendmode'
p28
I4
sS'speed'
p29
F3.4634591498535925
sS'maxRiled'
p30
F0.1
sS'loc'
p31
(isrc.util
Loc
p32
(dp33
S'y'
p34
F3910.948308904522
sg31
(F2194.569906707533
F3910.948308904522
tp35
sS'x'
p36
F2194.569906707533
sbsS'riled'
p37
I0
sS'lastLoc'
p38
(isrc.util
Loc
p39
(dp40
g34
F3907.970400417235
sg31
(F2196.338411817519
F3907.970400417235
tp41
sg36
F2196.338411817519
sbsS'_Sprite__g'
p42
(dp43
g13
(g14
g15
Ntp44
Rp45
(dp46
g19
(dp47
g23
I0
sg13
(g21
g15
Ntp48
Rp49
(dp50
g25
F3.599999999999931
sg26
I01
sg27
Nsg28
I4
sg29
F3.6
sg30
F0.1
sg31
(isrc.util
Loc
p51
(dp52
g34
F4268.209978095159
sg31
(F1768.9670424923831
F4268.209978095159
tp53
sg36
F1768.9670424923831
sbsg37
I0
sg38
(isrc.util
Loc
p54
(dp55
g34
F4269.652916093024
sg31
(F1765.6688717972374
F4269.652916093024
tp56
sg36
F1765.6688717972374
sbsg42
(dp57
g45
I0
sg13
(g14
g15
Ntp58
Rp59
(dp60
g19
(dp61
g23
cpygame
__rect_constructor
p62
(I424
I765
I25
I25
tp63
Rp64
sg49
g62
(I339
I836
I25
I25
tp65
Rp66
sg13
(g21
g15
Ntp67
Rp68
(dp69
g25
F2.1875220438206364
sg26
I01
sg27
Nsg28
I4
sg29
F2.1875220438204925
sg30
F0.1
sg31
(isrc.util
Loc
p70
(dp71
g34
F4024.314085745722
sg31
(F1913.1921239176504
F4024.314085745722
tp72
sg36
F1913.1921239176504
sbsg37
I0
sg38
(isrc.util
Loc
p73
(dp74
g34
F4022.142861611224
sg31
(F1912.9255935254353
F4022.142861611224
tp75
sg36
F1912.9255935254353
sbsg42
(dp76
g45
I0
sg59
I0
sg13
(g14
g15
Ntp77
Rp78
(dp79
g19
(dp80
g23
I0
sg49
I0
sg68
I0
sg13
(g21
g15
Ntp81
Rp82
(dp83
g25
F3.599999999999949
sg26
I01
sg27
Nsg28
I4
sg29
F3.6
sg30
F0.1
sg31
(isrc.util
Loc
p84
(dp85
g34
F1202.4987998101399
sg31
(F576.1407206477783
F1202.4987998101399
tp86
sg36
F576.1407206477783
sbsg37
I0
sg38
(isrc.util
Loc
p87
(dp88
g34
F1201.4259570368422
sg31
(F579.5771444260371
F1201.4259570368422
tp89
sg36
F579.5771444260371
sbsg42
(dp90
g45
I0
sg59
I0
sg78
I0
sg17
I0
ssS'source_rect'
p91
NsS'weapons'
p92
(lp93
g13
(csrc.actor
Punch
p94
g15
Ntp95
Rp96
(dp97
S'owner'
p98
g82
sbasS'leavesCorpse'
p99
csrc.actor
Corpse
p100
sS'direction'
p101
F-2.8389834330461263
sS'_layer'
p102
I0
sS'effects'
p103
(lp104
sS'rect'
p105
g62
(I101
I226
I25
I25
tp106
Rp107
sS'level'
p108
g13
(csrc.tilemap
Map
p109
g15
Ntp110
Rp111
g0
bsS'_visible'
p112
I1
sS'targetDistance'
p113
F1000000000000000.0
sS'dirty'
p114
I1
sS'highlight'
p115
(lp116
sbI0
sg13
(g21
g15
Ntp117
Rp118
(dp119
g25
F3.5999999999998704
sg26
I01
sg27
Nsg28
I4
sg29
F3.6
sg30
F0.1
sg31
(isrc.util
Loc
p120
(dp121
g34
F3925.846158316083
sg31
(F2310.021465868477
F3925.846158316083
tp122
sg36
F2310.021465868477
sbsg37
I0
sg38
(isrc.util
Loc
p123
(dp124
g34
F3922.4530672836268
sg31
(F2311.224351251822
F3922.4530672836268
tp125
sg36
F2311.224351251822
sbsg42
(dp126
g45
I0
sg59
I0
sg78
I0
sg17
I0
ssg91
Nsg92
(lp127
g13
(g94
g15
Ntp128
Rp129
(dp130
g98
g118
sbasg99
g100
sg101
F-1.9114834783659673
sg102
I0
sg103
(lp131
sg105
g62
(I447
I768
I25
I25
tp132
Rp133
sg108
g111
sg112
I1
sg113
F1000000000000000.0
sg114
I1
sg115
(lp134
sbI0
sg13
(g21
g15
Ntp135
Rp136
(dp137
g25
F3.6000000000001706
sg26
I01
sg27
Nsg28
I4
sg29
F3.6
sg30
F0.1
sg31
(isrc.util
Loc
p138
(dp139
g34
F3859.4096985335095
sg31
(F2418.5724019998593
F3859.4096985335095
tp140
sg36
F2418.5724019998593
sbsg37
I0
sg38
(isrc.util
Loc
p141
(dp142
g34
F3856.173943995016
sg31
(F2420.150341341729
F3856.173943995016
tp143
sg36
F2420.150341341729
sbsg42
(dp144
g45
I0
sg59
I0
sg78
I0
sg17
I0
ssg91
Nsg92
(lp145
g13
(g94
g15
Ntp146
Rp147
(dp148
g98
g136
sbasg99
g100
sg101
F-2.0245211151263156
sg102
I0
sg103
(lp149
sg105
g62
(I468
I755
I25
I25
tp150
Rp151
sg108
g111
sg112
I1
sg113
F1000000000000000.0
sg114
I1
sg115
(lp152
sbI0
sg13
(g21
g15
Ntp153
Rp154
(dp155
g25
F3.5999999999998655
sg26
I01
sg27
Nsg28
I4
sg29
F3.6
sg30
F0.1
sg31
(isrc.util
Loc
p156
(dp157
g34
F4452.0677185825
sg31
(F897.8873753802852
F4452.0677185825
tp158
sg36
F897.8873753802852
sbsg37
I0
sg38
(isrc.util
Loc
p159
(dp160
g34
F4450.161675001291
sg31
(F894.8333619771497
F4450.161675001291
tp161
sg36
F894.8333619771497
sbsg42
(dp162
g45
I0
sg59
I0
sg78
I0
sg17
I0
ssg91
Nsg92
(lp163
g13
(g94
g15
Ntp164
Rp165
(dp166
g98
g154
sbasg99
g100
sg101
F-0.5579598313577243
sg102
I0
sg103
(lp167
sg105
g62
(I165
I873
I25
I25
tp168
Rp169
sg108
g111
sg112
I1
sg113
F1000000000000000.0
sg114
I1
sg115
(lp170
sbI0
sg13
(g21
g15
Ntp171
Rp172
(dp173
g25
F3.6000000000002212
sg26
I01
sg27
Nsg28
I4
sg29
F3.6
sg30
F0.1
sg31
(isrc.util
Loc
p174
(dp175
g34
F3771.511343144465
sg31
(F511.8435021161293
F3771.511343144465
tp176
sg36
F511.8435021161293
sbsg37
I0
sg38
(isrc.util
Loc
p177
(dp178
g34
F3767.968342118781
sg31
(F511.2054239610395
F3767.968342118781
tp179
sg36
F511.2054239610395
sbsg42
(dp180
g45
I0
sg59
I0
sg78
I0
sg17
I0
ssg91
Nsg92
(lp181
g13
(g94
g15
Ntp182
Rp183
(dp184
g98
g172
sbasg99
g100
sg101
F-1.392610992758768
sg102
I0
sg103
(lp185
sg105
g62
(I88
I737
I25
I25
tp186
Rp187
sg108
g111
sg112
I1
sg113
F1000000000000000.0
sg114
I1
sg115
(lp188
sbI0
sg13
(g21
g15
Ntp189
Rp190
(dp191
g25
F3.60000000000007
sg26
I00
sg27
Nsg28
I4
sg29
F3.5999999999999996
sg30
F0.1
sg31
(isrc.util
Loc
p192
(dp193
g34
F4136.566562218132
sg31
(F2028.510837161816
F4136.566562218132
tp194
sg36
F2028.510837161816
sbsg37
I0
sg38
(isrc.util
Loc
p195
(dp196
g34
F4136.339109383952
sg31
(F2032.1036445889158
F4136.339109383952
tp197
sg36
F2032.1036445889158
sbsg42
(dp198
g45
I0
sg59
I0
sg78
I0
sg17
I0
ssg91
Nsg92
(lp199
g13
(g94
g15
Ntp200
Rp201
(dp202
g98
g190
sbasg99
g100
sg101
F-3.078369199659954
sg102
I0
sg103
(lp203
sg105
g62
(I391
I810
I25
I25
tp204
Rp205
sg108
g111
sg112
I1
sg113
F1000000000000000.0
sg114
I1
sg115
(lp206
sbI0
sg13
(g21
g15
Ntp207
Rp208
(dp209
g25
F3.5999999999997723
sg26
I01
sg27
Nsg28
I4
sg29
F3.6
sg30
F0.1
sg31
(isrc.util
Loc
p210
(dp211
g34
F2735.6617777301794
sg31
(F2665.8908527071526
F2735.6617777301794
tp212
sg36
F2665.8908527071526
sbsg37
I0
sg38
(isrc.util
Loc
p213
(dp214
g34
F2732.9060470167897
sg31
(F2663.574401059637
F2732.9060470167897
tp215
sg36
F2663.574401059637
sbsg42
(dp216
g45
I0
sg59
I0
sg78
I0
sg17
I0
ssg91
Nsg92
(lp217
g13
(g94
g15
Ntp218
Rp219
(dp220
g98
g208
sbasg99
g100
sg101
F-0.8717881386255797
sg102
I0
sg103
(lp221
sg105
g62
(I518
I531
I25
I25
tp222
Rp223
sg108
g111
sg112
I1
sg113
F1000000000000000.0
sg114
I1
sg115
(lp224
sbI0
sg13
(g21
g15
Ntp225
Rp226
(dp227
g25
F3.5999999999999637
sg26
I01
sg27
Nsg28
I4
sg29
F3.6
sg30
F0.1
sg31
(isrc.util
Loc
p228
(dp229
g34
F4340.103179388591
sg31
(F1212.166944086848
F4340.103179388591
tp230
sg36
F1212.166944086848
sbsg37
I0
sg38
(isrc.util
Loc
p231
(dp232
g34
F4338.640326026231
sg31
(F1208.877558119797
F4338.640326026231
tp233
sg36
F1208.877558119797
sbsg42
(dp234
g45
I0
sg59
I0
sg78
I0
sg17
I0
ssg91
Nsg92
(lp235
g13
(g94
g15
Ntp236
Rp237
(dp238
g98
g226
sbasg99
g100
sg101
F-0.418453808899822
sg102
I0
sg103
(lp239
sg105
g62
(I228
I851
I25
I25
tp240
Rp241
sg108
g111
sg112
I1
sg113
F1000000000000000.0
sg114
I1
sg115
(lp242
sbI0
sg13
(g21
g15
Ntp243
Rp244
(dp245
g25
F1.2231623944487235
sg26
I01
sg27
Nsg28
I4
sg29
F1.2231623944487304
sg30
F0.1
sg31
(isrc.util
Loc
p246
(dp247
g34
F444.23059209334303
sg31
(F552.9315730737661
F444.23059209334303
tp248
sg36
F552.9315730737661
sbsg37
I0
sg38
(isrc.util
Loc
p249
(dp250
g34
F443.9744267698361
sg31
(F551.7355356286056
F443.9744267698361
tp251
sg36
F551.7355356286056
sbsg42
(dp252
g45
I0
sg59
I0
sg78
I0
sg17
I0
ssg91
Nsg92
(lp253
g13
(g94
g15
Ntp254
Rp255
(dp256
g98
g244
sbasg99
g100
sg101
F-0.2109906778065072
sg102
I0
sg103
(lp257
sg105
g62
(I97
I74
I25
I25
tp258
Rp259
sg108
g111
sg112
I1
sg113
F1000000000000000.0
sg114
I1
sg115
(lp260
sbI0
sg13
(g21
g15
Ntp261
Rp262
(dp263
g25
F3.599999999999985
sg26
I01
sg27
Nsg28
I4
sg29
F3.6
sg30
F0.1
sg31
(isrc.util
Loc
p264
(dp265
g34
F851.9539302859764
sg31
(F590.7937069699381
F851.9539302859764
tp266
sg36
F590.7937069699381
sbsg37
I0
sg38
(isrc.util
Loc
p267
(dp268
g34
F853.7887613106122
sg31
(F593.8910276041369
F853.7887613106122
tp269
sg36
F593.8910276041369
sbsg42
(dp270
g45
I0
sg59
I0
sg78
I0
sg17
I0
ssg91
Nsg92
(lp271
g13
(g94
g15
Ntp272
Rp273
(dp274
g98
g262
sbasg99
g100
sg101
F2.606785320554751
sg102
I0
sg103
(lp275
sg105
g62
(I104
I156
I25
I25
tp276
Rp277
sg108
g111
sg112
I1
sg113
F1000000000000000.0
sg114
I1
sg115
(lp278
sbI0
sg13
(g21
g15
Ntp279
Rp280
(dp281
g25
F3.600000000000135
sg26
I00
sg27
Nsg28
I4
sg29
F3.5999999999999996
sg30
F0.1
sg31
(isrc.util
Loc
p282
(dp283
g34
F4148.439961853798
sg31
(F2526.6370092811835
F4148.439961853798
tp284
sg36
F2526.6370092811835
sbsg37
I0
sg38
(isrc.util
Loc
p285
(dp286
g34
F4150.526797073865
sg31
(F2529.5704575531477
F4150.526797073865
tp287
sg36
F2529.5704575531477
sbsg42
(dp288
g45
I0
sg59
I0
sg78
I0
sg17
I0
ssg91
Nsg92
(lp289
g13
(g94
g15
Ntp290
Rp291
(dp292
g98
g280
sbasg99
g100
sg101
F2.5232610875338217
sg102
I0
sg103
(lp293
sg105
g62
(I490
I812
I25
I25
tp294
Rp295
sg108
g111
sg112
I1
sg113
F1000000000000000.0
sg114
I1
sg115
(lp296
sbI0
sg13
(g21
g15
Ntp297
Rp298
(dp299
g25
F3.6000000000000076
sg26
I00
sg27
Nsg28
I4
sg29
F3.6
sg30
F0.1
sg31
(isrc.util
Loc
p300
(dp301
g34
F4416.570392531473
sg31
(F1667.1797840145514
F4416.570392531473
tp302
sg36
F1667.1797840145514
sbsg37
I0
sg38
(isrc.util
Loc
p303
(dp304
g34
F4417.3415197802615
sg31
(F1663.6633422382417
F4417.3415197802615
tp305
sg36
F1663.6633422382417
sbsg42
(dp306
g45
I0
sg59
I0
sg78
I0
sg17
I0
ssg91
Nsg92
(lp307
g13
(g94
g15
Ntp308
Rp309
(dp310
g98
g298
sbasg99
g100
sg101
F0.21587480823677296
sg102
I0
sg103
(lp311
sg105
g62
(I319
I866
I25
I25
tp312
Rp313
sg108
g111
sg112
I1
sg113
F1000000000000000.0
sg114
I1
sg115
(lp314
sbI0
sg13
(g21
g15
Ntp315
Rp316
(dp317
g25
F2.12681867468269
sg26
I00
sg27
Nsg28
I4
sg29
F2.126818674682852
sg30
F0.1
sg31
(isrc.util
Loc
p318
(dp319
g34
F4036.5239532531236
sg31
(F2102.7212392572987
F4036.5239532531236
tp320
sg36
F2102.7212392572987
sbsg37
I0
sg38
(isrc.util
Loc
p321
(dp322
g34
F4036.8958030898625
sg31
(F2100.62717971328
F4036.8958030898625
tp323
sg36
F2100.62717971328
sbsg42
(dp324
g45
I0
sg59
I0
sg78
I0
sg17
I0
ssg91
Nsg92
(lp325
g13
(g94
g15
Ntp326
Rp327
(dp328
g98
g316
sbasg99
g100
sg101
F0.17574176311705836
sg102
I0
sg103
(lp329
sg105
g62
(I405
I790
I25
I25
tp330
Rp331
sg108
g111
sg112
I1
sg113
F1000000000000000.0
sg114
I1
sg115
(lp332
sbI0
sg13
(g21
g15
Ntp333
Rp334
(dp335
g25
F3.6000000000003114
sg26
I00
sg27
Nsg28
I4
sg29
F3.6
sg30
F0.1
sg31
(isrc.util
Loc
p336
(dp337
g34
F4127.463373116415
sg31
(F1859.5740465219005
F4127.463373116415
tp338
sg36
F1859.5740465219005
sbsg37
I0
sg38
(isrc.util
Loc
p339
(dp340
g34
F4124.886193258552
sg31
(F1862.087638370278
F4124.886193258552
tp341
sg36
F1862.087638370278
sbsg42
(dp342
g45
I0
sg59
I0
sg78
I0
sg17
I0
ssg91
Nsg92
(lp343
g13
(g94
g15
Ntp344
Rp345
(dp346
g98
g334
sbasg99
g100
sg101
F-2.3437043007985463
sg102
I0
sg103
(lp347
sg105
g62
(I357
I808
I25
I25
tp348
Rp349
sg108
g111
sg112
I1
sg113
F1000000000000000.0
sg114
I1
sg115
(lp350
sbI0
sg13
(g21
g15
Ntp351
Rp352
(dp353
g25
F3.6000000000000534
sg26
I01
sg27
Nsg28
I4
sg29
F3.6
sg30
F0.1
sg31
(isrc.util
Loc
p354
(dp355
g34
F960.311273952688
sg31
(F822.4847717978295
F960.311273952688
tp356
sg36
F822.4847717978295
sbsg37
I0
sg38
(isrc.util
Loc
p357
(dp358
g34
F962.2973552140643
sg31
(F825.4873508930758
F962.2973552140643
tp359
sg36
F825.4873508930758
sbsg42
(dp360
g45
I0
sg59
I0
sg78
I0
sg17
I0
ssg91
Nsg92
(lp361
g13
(g94
g15
Ntp362
Rp363
(dp364
g98
g352
sS'countdown'
p365
I100
sbasg99
g100
sS'health'
p366
F8.0
sg101
F2.5572044232472675
sg102
I0
sg103
(lp367
g13
(csrc.actor
Infection
p368
g15
Ntp369
Rp370
(dp371
g98
g352
sg365
I40
sbasg105
g62
(I150
I177
I25
I25
tp372
Rp373
sg108
g111
sg112
I1
sg113
F1000000000000000.0
sg114
I1
sg115
(lp374
sbI0
sg13
(g21
g15
Ntp375
Rp376
(dp377
g25
F3.599999999999866
sg26
I01
sg27
Nsg28
I4
sg29
F3.6
sg30
F0.1
sg31
(isrc.util
Loc
p378
(dp379
g34
F4239.858773077599
sg31
(F1517.0992959795622
F4239.858773077599
tp380
sg36
F1517.0992959795622
sbsg37
I0
sg38
(isrc.util
Loc
p381
(dp382
g34
F4238.911051321886
sg31
(F1513.626282378416
F4238.911051321886
tp383
sg36
F1513.626282378416
sbsg42
(dp384
g45
I0
sg59
I0
sg78
I0
sg17
I0
ssg91
Nsg92
(lp385
g13
(g94
g15
Ntp386
Rp387
(dp388
g98
g376
sbasg99
g100
sg101
F-0.266395752900829
sg102
I0
sg103
(lp389
sg105
g62
(I289
I831
I25
I25
tp390
Rp391
sg108
g111
sg112
I1
sg113
F1000000000000000.0
sg114
I1
sg115
(lp392
sbI0
sg13
(g21
g15
Ntp393
Rp394
(dp395
g25
F3.6000000000000485
sg26
I01
sg27
Nsg28
I4
sg29
F3.6
sg30
F0.1
sg31
(isrc.util
Loc
p396
(dp397
g34
F1687.4374660559959
sg31
(F2534.4614139822525
F1687.4374660559959
tp398
sg36
F2534.4614139822525
sbsg37
I0
sg38
(isrc.util
Loc
p399
(dp400
g34
F1688.8942157973356
sg31
(F2531.169320394411
F1688.8942157973356
tp401
sg36
F2531.169320394411
sbsg42
(dp402
g45
I0
sg59
I0
sg78
I0
sg17
I0
ssg91
Nsg92
(lp403
g13
(g94
g15
Ntp404
Rp405
(dp406
g98
g394
sbasg99
g100
sg101
F0.41659902253461245
sg102
I0
sg103
(lp407
sg105
g62
(I491
I322
I25
I25
tp408
Rp409
sg108
g111
sg112
I1
sg113
F1000000000000000.0
sg114
I1
sg115
(lp410
sbI0
sg13
(g21
g15
Ntp411
Rp412
(dp413
g25
F3.600000000000052
sg26
I01
sg27
Nsg28
I4
sg29
F3.6
sg30
F0.1
sg31
(isrc.util
Loc
p414
(dp415
g34
F802.5807187491016
sg31
(F437.6696592019673
F802.5807187491016
tp416
sg36
F437.6696592019673
sbsg37
I0
sg38
(isrc.util
Loc
p417
(dp418
g34
F806.174620829031
sg31
(F437.8791057103635
F806.174620829031
tp419
sg36
F437.8791057103635
sbsg42
(dp420
g45
I0
sg59
I0
sg78
I0
sg17
I0
ssg91
Nsg92
(lp421
g13
(g94
g15
Ntp422
Rp423
(dp424
g98
g412
sbasg99
g100
sg101
F1.6290087842210643
sg102
I0
sg103
(lp425
sg105
g62
(I74
I146
I25
I25
tp426
Rp427
sg108
g111
sg112
I1
sg113
F1000000000000000.0
sg114
I1
sg115
(lp428
sbI0
sg13
(g21
g15
Ntp429
Rp430
(dp431
g25
F3.600000000000103
sg26
I01
sg27
Nsg28
I4
sg29
F3.6
sg30
F0.1
sg31
(isrc.util
Loc
p432
(dp433
g34
F3427.2109452610493
sg31
(F501.18323128006574
F3427.2109452610493
tp434
sg36
F501.18323128006574
sbsg37
I0
sg38
(isrc.util
Loc
p435
(dp436
g34
F3423.7930624349106
sg31
(F502.3137519507243
F3423.7930624349106
tp437
sg36
F502.3137519507243
sbsg42
(dp438
g45
I0
sg59
I0
sg78
I0
sg17
I0
ssg91
Nsg92
(lp439
g13
(g94
g15
Ntp440
Rp441
(dp442
g98
g430
sg365
I24
sbasg99
g100
sg366
F4.5
sg101
F-1.890234831280957
sg102
I0
sg103
(lp443
g13
(g368
g15
Ntp444
Rp445
(dp446
g98
g430
sg365
I34
sbasg105
g62
(I86
I669
I25
I25
tp447
Rp448
sg108
g111
sg112
I1
sg113
F1000000000000000.0
sg114
I1
sg115
(lp449
sbI0
sg13
(g21
g15
Ntp450
Rp451
(dp452
g25
F3.600000000000106
sg26
I01
sg27
Nsg28
I4
sg29
F3.6
sg30
F0.1
sg31
(isrc.util
Loc
p453
(dp454
g34
F3837.081239962385
sg31
(F2298.517857739013
F3837.081239962385
tp455
sg36
F2298.517857739013
sbsg37
I0
sg38
(isrc.util
Loc
p456
(dp457
g34
F3833.720402921313
sg31
(F2299.808119101435
F3833.720402921313
tp458
sg36
F2299.808119101435
sbsg42
(dp459
g45
I0
sg59
I0
sg78
I0
sg17
I0
ssg91
Nsg92
(lp460
g13
(g94
g15
Ntp461
Rp462
(dp463
g98
g451
sbasg99
g100
sg101
F-1.9373561568964919
sg102
I0
sg103
(lp464
sg105
g62
(I444
I750
I25
I25
tp465
Rp466
sg108
g111
sg112
I1
sg113
F1000000000000000.0
sg114
I1
sg115
(lp467
sbI0
sg13
(g21
g15
Ntp468
Rp469
(dp470
g25
F3.599999999999963
sg26
I01
sg27
Nsg28
I4
sg29
F3.6
sg30
F0.1
sg31
(isrc.util
Loc
p471
(dp472
g34
F3785.9196197789415
sg31
(F2189.8939931555565
F3785.9196197789415
tp473
sg36
F2189.8939931555565
sbsg37
I0
sg38
(isrc.util
Loc
p474
(dp475
g34
F3782.5684140710146
sg31
(F2191.2090674132155
F3782.5684140710146
tp476
sg36
F2191.2090674132155
sbsg42
(dp477
g45
I0
sg59
I0
sg78
I0
sg17
I0
ssg91
Nsg92
(lp478
g13
(g94
g15
Ntp479
Rp480
(dp481
g98
g469
sbasg99
g100
sg101
F-1.944749668271136
sg102
I0
sg103
(lp482
sg105
g62
(I423
I740
I25
I25
tp483
Rp484
sg108
g111
sg112
I1
sg113
F1000000000000000.0
sg114
I1
sg115
(lp485
sbI0
sg13
(g21
g15
Ntp486
Rp487
(dp488
g25
F3.600000000000054
sg26
I00
sg27
Nsg28
I4
sg29
F3.6
sg30
F0.1
sg31
(isrc.util
Loc
p489
(dp490
g34
F1103.0193529678356
sg31
(F2552.664450563531
F1103.0193529678356
tp491
sg36
F2552.664450563531
sbsg37
I0
sg38
(isrc.util
Loc
p492
(dp493
g34
F1099.7194056580854
sg31
(F2554.103320867927
F1099.7194056580854
tp494
sg36
F2554.103320867927
sbsg42
(dp495
g45
I0
sg59
I0
sg78
I0
sg17
I0
ssg91
Nsg92
(lp496
g13
(g94
g15
Ntp497
Rp498
(dp499
g98
g487
sbasg99
g100
sg101
F-1.9819708098344933
sg102
I0
sg103
(lp500
sg105
g62
(I495
I206
I25
I25
tp501
Rp502
sg108
g111
sg112
I1
sg113
F1000000000000000.0
sg114
I1
sg115
(lp503
sbI0
sg13
(g21
g15
Ntp504
Rp505
(dp506
g25
F3.599999999999923
sg26
I01
sg27
Nsg28
I4
sg29
F3.6
sg30
F0.1
sg31
(isrc.util
Loc
p507
(dp508
g34
F4333.849447597533
sg31
(F1653.9720318967322
F4333.849447597533
tp509
sg36
F1653.9720318967322
sbsg37
I0
sg38
(isrc.util
Loc
p510
(dp511
g34
F4334.733164110821
sg31
(F1650.482183028351
F4334.733164110821
tp512
sg36
F1650.482183028351
sbsg42
(dp513
g45
I0
sg59
I0
sg78
I0
sg17
I0
ssg91
Nsg92
(lp514
g13
(g94
g15
Ntp515
Rp516
(dp517
g98
g505
sbasg99
g100
sg101
F0.24801152084468495
sg102
I0
sg103
(lp518
sg105
g62
(I316
I849
I25
I25
tp519
Rp520
sg108
g111
sg112
I1
sg113
F1000000000000000.0
sg114
I1
sg115
(lp521
sbI0
sg13
(g21
g15
Ntp522
Rp523
(dp524
g25
F3.5999999999998247
sg26
I01
sg27
Nsg28
I4
sg29
F3.6
sg30
F0.1
sg31
(isrc.util
Loc
p525
(dp526
g34
F511.0681539197291
sg31
(F2307.2272742053697
F511.0681539197291
tp527
sg36
F2307.2272742053697
sbsg37
I0
sg38
(isrc.util
Loc
p528
(dp529
g34
F511.02393855069414
sg31
(F2303.62754574323
F511.02393855069414
tp530
sg36
F2303.62754574323
sbsg42
(dp531
g45
I0
sg59
I0
sg78
I0
sg17
I0
ssg91
Nsg92
(lp532
g13
(g94
g15
Ntp533
Rp534
(dp535
g98
g523
sbasg99
g100
sg101
F-0.012282355763547314
sg102
I0
sg103
(lp536
sg105
g62
(I446
I88
I25
I25
tp537
Rp538
sg108
g111
sg112
I1
sg113
F1000000000000000.0
sg114
I1
sg115
(lp539
sbI0
sg13
(g21
g15
Ntp540
Rp541
(dp542
g25
F3.5999999999999677
sg26
I01
sg27
Nsg28
I4
sg29
F3.6
sg30
F0.1
sg31
(isrc.util
Loc
p543
(dp544
g34
F3991.736269618172
sg31
(F1989.745209484877
F3991.736269618172
tp545
sg36
F1989.745209484877
sbsg37
I0
sg38
(isrc.util
Loc
p546
(dp547
g34
F3989.171518227241
sg31
(F1992.2714815016473
F3989.171518227241
tp548
sg36
F1992.2714815016473
sbsg42
(dp549
g45
I0
sg59
I0
sg78
I0
sg17
I0
ssg91
Nsg92
(lp550
g13
(g94
g15
Ntp551
Rp552
(dp553
g98
g541
sbasg99
g100
sg101
F-2.348636355342023
sg102
I0
sg103
(lp554
sg105
g62
(I383
I781
I25
I25
tp555
Rp556
sg108
g111
sg112
I1
sg113
F1000000000000000.0
sg114
I1
sg115
(lp557
sbI0
sg13
(g21
g15
Ntp558
Rp559
(dp560
g25
F2.558568002235051
sg26
I01
sg27
Nsg28
I4
sg29
F2.5585680022350097
sg30
F0.1
sg31
(isrc.util
Loc
p561
(dp562
g34
F1977.3188945823983
sg31
(F3088.306357160158
F1977.3188945823983
tp563
sg36
F3088.306357160158
sbsg37
I0
sg38
(isrc.util
Loc
p564
(dp565
g34
F1974.8048015480483
sg31
(F3088.7813376194335
F1974.8048015480483
tp566
sg36
F3088.7813376194335
sbsg42
(dp567
g45
I0
sg59
I0
sg78
I0
sg17
I0
ssg91
Nsg92
(lp568
g13
(g94
g15
Ntp569
Rp570
(dp571
g98
g559
sbasg99
g100
sg101
F-1.7575226109183772
sg102
I0
sg103
(lp572
sg105
g62
(I602
I380
I25
I25
tp573
Rp574
sg108
g111
sg112
I1
sg113
F1000000000000000.0
sg114
I1
sg115
(lp575
sbI0
sg13
(g21
g15
Ntp576
Rp577
(dp578
g25
F3.6000000000001044
sg26
I01
sg27
Nsg28
I4
sg29
F3.6
sg30
F0.1
sg31
(isrc.util
Loc
p579
(dp580
g34
F3971.8764961923353
sg31
(F2191.2915967453937
F3971.8764961923353
tp581
sg36
F2191.2915967453937
sbsg37
I0
sg38
(isrc.util
Loc
p582
(dp583
g34
F3968.2796698360644
sg31
(F2191.1404671227647
F3968.2796698360644
tp584
sg36
F2191.1404671227647
sbsg42
(dp585
g45
I0
sg59
I0
sg78
I0
sg17
I0
ssg91
Nsg92
(lp586
g13
(g94
g15
Ntp587
Rp588
(dp589
g98
g577
sbasg99
g100
sg101
F-1.5288035355097367
sg102
I0
sg103
(lp590
sg105
g62
(I423
I777
I25
I25
tp591
Rp592
sg108
g111
sg112
I1
sg113
F1000000000000000.0
sg114
I1
sg115
(lp593
sbI0
sg13
(g21
g15
Ntp594
Rp595
(dp596
g25
F3.5999999999999908
sg26
I01
sg27
Nsg28
I4
sg29
F3.6
sg30
F0.1
sg31
(isrc.util
Loc
p597
(dp598
g34
F539.0050556245884
sg31
(F1501.0732196265312
F539.0050556245884
tp599
sg36
F1501.0732196265312
sbsg37
I0
sg38
(isrc.util
Loc
p600
(dp601
g34
F541.9926158789206
sg31
(F1499.0646171953033
F541.9926158789206
tp602
sg36
F1499.0646171953033
sbsg42
(dp603
g45
I0
sg59
I0
sg78
I0
sg17
I0
ssg91
Nsg92
(lp604
g13
(g94
g15
Ntp605
Rp606
(dp607
g98
g595
sbasg99
g100
sg101
F0.9788887175454458
sg102
I0
sg103
(lp608
sg105
g62
(I286
I93
I25
I25
tp609
Rp610
sg108
g111
sg112
I1
sg113
F1000000000000000.0
sg114
I1
sg115
(lp611
sbI0
sg13
(g21
g15
Ntp612
Rp613
(dp614
g25
F3.5999999999999384
sg26
I00
sg27
Nsg28
I4
sg29
F3.6
sg30
F0.1
sg31
(isrc.util
Loc
p615
(dp616
g34
F3973.8860615686913
sg31
(F2339.326122332944
F3973.8860615686913
tp617
sg36
F2339.326122332944
sbsg37
I0
sg38
(isrc.util
Loc
p618
(dp619
g34
F3972.9424900249464
sg31
(F2342.8002657873562
F3972.9424900249464
tp620
sg36
F2342.8002657873562
sbsg42
(dp621
g45
I0
sg59
I0
sg78
I0
sg17
I0
ssg91
Nsg92
(lp622
g13
(g94
g15
Ntp623
Rp624
(dp625
g98
g613
sbasg99
g100
sg101
F-2.876391694887959
sg102
I0
sg103
(lp626
sg105
g62
(I453
I778
I25
I25
tp627
Rp628
sg108
g111
sg112
I1
sg113
F1000000000000000.0
sg114
I1
sg115
(lp629
sbI0
sg13
(g21
g15
Ntp630
Rp631
(dp632
g25
F1.4614891305191506
sg26
I01
sg27
Nsg28
I4
sg29
F1.4614891305191524
sg30
F0.1
sg31
(isrc.util
Loc
p633
(dp634
g34
F427.43981184816033
sg31
(F492.9765778765272
F427.43981184816033
tp635
sg36
F492.9765778765272
sbsg37
I0
sg38
(isrc.util
Loc
p636
(dp637
g34
F426.0059919279965
sg31
(F492.6935391597993
F426.0059919279965
tp638
sg36
F492.6935391597993
sbsg42
(dp639
g45
I0
sg59
I0
sg78
I0
sg17
I0
ssg91
Nsg92
(lp640
g13
(g94
g15
Ntp641
Rp642
(dp643
g98
g631
sbasg99
g100
sg101
F-1.3759002237374827
sg102
I0
sg103
(lp644
sg105
g62
(I85
I71
I25
I25
tp645
Rp646
sg108
g111
sg112
I1
sg113
F1000000000000000.0
sg114
I1
sg115
(lp647
sbI0
sg13
(g21
g15
Ntp648
Rp649
(dp650
g25
F3.600000000000088
sg26
I01
sg27
Nsg28
I4
sg29
F3.6
sg30
F0.1
sg31
(isrc.util
Loc
p651
(dp652
g34
F3078.841885453634
sg31
(F2334.2404313634147
F3078.841885453634
tp653
sg36
F2334.2404313634147
sbsg37
I0
sg38
(isrc.util
Loc
p654
(dp655
g34
F3075.68571164267
sg31
(F2332.508794312822
F3075.68571164267
tp656
sg36
F2332.508794312822
sbsg42
(dp657
g45
I0
sg59
I0
sg78
I0
sg17
I0
ssg91
Nsg92
(lp658
g13
(g94
g15
Ntp659
Rp660
(dp661
g98
g649
sbasg99
g100
sg101
F-1.0689896175138023
sg102
I0
sg103
(lp662
sg105
g62
(I452
I599
I25
I25
tp663
Rp664
sg108
g111
sg112
I1
sg113
F1000000000000000.0
sg114
I1
sg115
(lp665
sbI0
sg13
(g21
g15
Ntp666
Rp667
(dp668
g25
F3.6000000000001586
sg26
I01
sg27
Nsg28
I4
sg29
F3.6
sg30
F0.1
sg31
(isrc.util
Loc
p669
(dp670
g34
F3286.765038543399
sg31
(F2368.868737255509
F3286.765038543399
tp671
sg36
F2368.868737255509
sbsg37
I0
sg38
(isrc.util
Loc
p672
(dp673
g34
F3283.3732455793706
sg31
(F2367.662196543735
F3283.3732455793706
tp674
sg36
F2367.662196543735
sbsg42
(dp675
g45
I0
sg59
I0
sg78
I0
sg17
I0
ssg91
Nsg92
(lp676
g13
(g94
g15
Ntp677
Rp678
(dp679
g98
g667
sbasg99
g100
sg101
F-1.229031683529689
sg102
I0
sg103
(lp680
sg105
g62
(I458
I641
I25
I25
tp681
Rp682
sg108
g111
sg112
I1
sg113
F1000000000000000.0
sg114
I1
sg115
(lp683
sbI0
sg13
(g21
g15
Ntp684
Rp685
(dp686
g25
F3.5999999999999837
sg26
I01
sg27
Nsg28
I4
sg29
F3.6
sg30
F0.1
sg31
(isrc.util
Loc
p687
(dp688
g34
F2439.2342725119574
sg31
(F2480.483380577543
F2439.2342725119574
tp689
sg36
F2480.483380577543
sbsg37
I0
sg38
(isrc.util
Loc
p690
(dp691
g34
F2438.241656784613
sg31
(F2477.022930604226
F2438.241656784613
tp692
sg36
F2477.022930604226
sbsg42
(dp693
g45
I0
sg59
I0
sg78
I0
sg17
I0
ssg91
Nsg92
(lp694
g13
(g94
g15
Ntp695
Rp696
(dp697
g98
g685
sbasg99
g100
sg101
F-0.27934551279150593
sg102
I0
sg103
(lp698
sg105
g62
(I481
I472
I25
I25
tp699
Rp700
sg108
g111
sg112
I1
sg113
F1000000000000000.0
sg114
I1
sg115
(lp701
sbI0
sg13
(g21
g15
Ntp702
Rp703
(dp704
g25
F3.599999999999859
sg26
I01
sg27
Nsg28
I4
sg29
F3.6
sg30
F0.1
sg31
(isrc.util
Loc
p705
(dp706
g34
F2268.3042941519184
sg31
(F2262.7368181636766
F2268.3042941519184
tp707
sg36
F2262.7368181636766
sbsg37
I0
sg38
(isrc.util
Loc
p708
(dp709
g34
F2269.2210448896535
sg31
(F2259.2555011593145
F2269.2210448896535
tp710
sg36
F2259.2555011593145
sbsg42
(dp711
g45
I0
sg59
I0
sg78
I0
sg17
I0
ssg91
Nsg92
(lp712
g13
(g94
g15
Ntp713
Rp714
(dp715
g98
g703
sbasg99
g100
sg101
F0.25748883863901856
sg102
I0
sg103
(lp716
sg105
g62
(I437
I438
I25
I25
tp717
Rp718
sg108
g111
sg112
I1
sg113
F1000000000000000.0
sg114
I1
sg115
(lp719
sbI0
sg13
(g21
g15
Ntp720
Rp721
(dp722
g25
F3.5999999999999606
sg26
I00
sg27
Nsg28
I4
sg29
F3.6
sg30
F0.1
sg31
(isrc.util
Loc
p723
(dp724
g34
F3928.5566937889707
sg31
(F2456.5288133636764
F3928.5566937889707
tp725
sg36
F2456.5288133636764
sbsg37
I0
sg38
(isrc.util
Loc
p726
(dp727
g34
F3926.4860016056537
sg31
(F2459.4736790451548
F3926.4860016056537
tp728
sg36
F2459.4736790451548
sbsg42
(dp729
g45
I0
sg59
I0
sg78
I0
sg17
I0
ssg91
Nsg92
(lp730
g13
(g94
g15
Ntp731
Rp732
(dp733
g98
g721
sbasg99
g100
sg101
F-2.528753477459266
sg102
I0
sg103
(lp734
sg105
g62
(I476
I769
I25
I25
tp735
Rp736
sg108
g111
sg112
I1
sg113
F1000000000000000.0
sg114
I1
sg115
(lp737
sbI0
sg13
(g21
g15
Ntp738
Rp739
(dp740
g25
F0.7491041809824469
sg26
I01
sg27
Nsg28
I4
sg29
F0.7491041809824398
sg30
F0.1
sg31
(isrc.util
Loc
p741
(dp742
g34
F515.7266409055122
sg31
(F444.7959616691248
F515.7266409055122
tp743
sg36
F444.7959616691248
sbsg37
I0
sg38
(isrc.util
Loc
p744
(dp745
g34
F515.9993503947113
sg31
(F445.49366261399024
F515.9993503947113
tp746
sg36
F445.49366261399024
sbsg42
(dp747
g45
I0
sg59
I0
sg78
I0
sg17
I0
ssg91
Nsg92
(lp748
g13
(g94
g15
Ntp749
Rp750
(dp751
g98
g739
sbasg99
g100
sg101
F2.7689827524628234
sg102
I0
sg103
(lp752
sg105
g62
(I75
I89
I25
I25
tp753
Rp754
sg108
g111
sg112
I1
sg113
F1000000000000000.0
sg114
I1
sg115
(lp755
sbI0
sg13
(g21
g15
Ntp756
Rp757
(dp758
g25
F2.029081373193062
sg26
I01
sg27
Nsg28
I4
sg29
F2.0290813731930784
sg30
F0.1
sg31
(isrc.util
Loc
p759
(dp760
g34
F457.64920421137566
sg31
(F430.45550238609565
F457.64920421137566
tp761
sg36
F430.45550238609565
sbsg37
I0
sg38
(isrc.util
Loc
p762
(dp763
g34
F459.6198036774848
sg31
(F430.93914374413833
F459.6198036774848
tp764
sg36
F430.93914374413833
sbsg42
(dp765
g45
I0
sg59
I0
sg78
I0
sg17
I0
ssg91
Nsg92
(lp766
g13
(g94
g15
Ntp767
Rp768
(dp769
g98
g757
sbasg99
g100
sg101
F1.811467836900996
sg102
I0
sg103
(lp770
sg105
g62
(I72
I77
I25
I25
tp771
Rp772
sg108
g111
sg112
I1
sg113
F1000000000000000.0
sg114
I1
sg115
(lp773
sbI0
sg13
(g21
g15
Ntp774
Rp775
(dp776
g25
F3.599999999999963
sg26
I01
sg27
Nsg28
I4
sg29
F3.6
sg30
F0.1
sg31
(isrc.util
Loc
p777
(dp778
g34
F2622.9124717961936
sg31
(F3080.0296276580443
F2622.9124717961936
tp779
sg36
F3080.0296276580443
sbsg37
I0
sg38
(isrc.util
Loc
p780
(dp781
g34
F2619.6546337484083
sg31
(F3078.4978015404963
F2619.6546337484083
tp782
sg36
F3078.4978015404963
sbsg42
(dp783
g45
I0
sg59
I0
sg78
I0
sg17
I0
ssg91
Nsg92
(lp784
g13
(g94
g15
Ntp785
Rp786
(dp787
g98
g775
sbasg99
g100
sg101
F-1.131273984515856
sg102
I0
sg103
(lp788
sg105
g62
(I600
I509
I25
I25
tp789
Rp790
sg108
g111
sg112
I1
sg113
F1000000000000000.0
sg114
I1
sg115
(lp791
sbI0
sg13
(g21
g15
Ntp792
Rp793
(dp794
g25
F3.6000000000001044
sg26
I00
sg27
Nsg28
I4
sg29
F3.6
sg30
F0.1
sg31
(isrc.util
Loc
p795
(dp796
g34
F4126.3604794943685
sg31
(F2169.896103852191
F4126.3604794943685
tp797
sg36
F2169.896103852191
sbsg37
I0
sg38
(isrc.util
Loc
p798
(dp799
g34
F4123.068483704619
sg31
(F2171.353074586377
F4123.068483704619
tp800
sg36
F2171.353074586377
sbsg42
(dp801
g45
I0
sg59
I0
sg78
I0
sg17
I0
ssg91
Nsg92
(lp802
g13
(g94
g15
Ntp803
Rp804
(dp805
g98
g793
sbasg99
g100
sg101
F-1.9874624786873547
sg102
I0
sg103
(lp806
sg105
g62
(I419
I808
I25
I25
tp807
Rp808
sg108
g111
sg112
I1
sg113
F1000000000000000.0
sg114
I1
sg115
(lp809
sbI0
sg13
(g21
g15
Ntp810
Rp811
(dp812
g25
F3.599999999999882
sg26
I01
sg27
Nsg28
I4
sg29
F3.6
sg30
F0.1
sg31
(isrc.util
Loc
p813
(dp814
g34
F3974.1225401378774
sg31
(F2084.367857020837
F3974.1225401378774
tp815
sg36
F2084.367857020837
sbsg37
I0
sg38
(isrc.util
Loc
p816
(dp817
g34
F3971.1652379339835
sg31
(F2086.420748560798
F3971.1652379339835
tp818
sg36
F2086.420748560798
sbsg42
(dp819
g45
I0
sg59
I0
sg78
I0
sg17
I0
ssg91
Nsg92
(lp820
g13
(g94
g15
Ntp821
Rp822
(dp823
g98
g811
sbasg99
g100
sg101
F-2.1776036211725667
sg102
I0
sg103
(lp824
sg105
g62
(I402
I778
I25
I25
tp825
Rp826
sg108
g111
sg112
I1
sg113
F1000000000000000.0
sg114
I1
sg115
(lp827
sbI0
sg13
(g21
g15
Ntp828
Rp829
(dp830
g25
F3.5999999999998225
sg26
I01
sg27
Nsg28
I4
sg29
F3.6
sg30
F0.1
sg31
(isrc.util
Loc
p831
(dp832
g34
F3786.0904144547103
sg31
(F2526.1725102292603
F3786.0904144547103
tp833
sg36
F2526.1725102292603
sbsg37
I0
sg38
(isrc.util
Loc
p834
(dp835
g34
F3782.606259167603
sg31
(F2527.078414161983
F3782.606259167603
tp836
sg36
F2527.078414161983
sbsg42
(dp837
g45
I0
sg59
I0
sg78
I0
sg17
I0
ssg91
Nsg92
(lp838
g13
(g94
g15
Ntp839
Rp840
(dp841
g98
g829
sbasg99
g100
sg101
F-1.8251707186912196
sg102
I0
sg103
(lp842
sg105
g62
(I490
I740
I25
I25
tp843
Rp844
sg108
g111
sg112
I1
sg113
F1000000000000000.0
sg114
I1
sg115
(lp845
sbI0
sg13
(g21
g15
Ntp846
Rp847
(dp848
g25
F3.600000000000158
sg26
I01
sg27
Nsg28
I4
sg29
F3.6
sg30
F0.1
sg31
(isrc.util
Loc
p849
(dp850
g34
F3226.0568109170104
sg31
(F2809.0603292962305
F3226.0568109170104
tp851
sg36
F2809.0603292962305
sbsg37
I0
sg38
(isrc.util
Loc
p852
(dp853
g34
F3222.5094761300757
sg31
(F2808.4468018645666
F3222.5094761300757
tp854
sg36
F2808.4468018645666
sbsg42
(dp855
g45
I0
sg59
I0
sg78
I0
sg17
I0
ssg91
Nsg92
(lp856
g13
(g94
g15
Ntp857
Rp858
(dp859
g98
g847
sbasg99
g100
sg101
F-1.3995360879756942
sg102
I0
sg103
(lp860
sg105
g62
(I546
I629
I25
I25
tp861
Rp862
sg108
g111
sg112
I1
sg113
F1000000000000000.0
sg114
I1
sg115
(lp863
sbI0
sg13
(g21
g15
Ntp864
Rp865
(dp866
g25
F3.600000000000037
sg26
I00
sg27
Nsg28
I4
sg29
F3.6
sg30
F0.1
sg31
(isrc.util
Loc
p867
(dp868
g34
F4093.95718309958
sg31
(F2348.1118170876452
F4093.95718309958
tp869
sg36
F2348.1118170876452
sbsg37
I0
sg38
(isrc.util
Loc
p870
(dp871
g34
F4094.04111536839
sg31
(F2351.7108385344072
F4094.04111536839
tp872
sg36
F2351.7108385344072
sbsg42
(dp873
g45
I0
sg59
I0
sg78
I0
sg17
I0
ssg91
Nsg92
(lp874
g13
(g94
g15
Ntp875
Rp876
(dp877
g98
g865
sbasg99
g100
sg101
F3.1182760217926884
sg102
I0
sg103
(lp878
sg105
g62
(I454
I802
I25
I25
tp879
Rp880
sg108
g111
sg112
I1
sg113
F1000000000000000.0
sg114
I1
sg115
(lp881
sbI0
sg13
(g21
g15
Ntp882
Rp883
(dp884
g25
F3.600000000000024
sg26
I00
sg27
Nsg28
I4
sg29
F3.5999999999999996
sg30
F0.1
sg31
(isrc.util
Loc
p885
(dp886
g34
F4032.7021351510434
sg31
(F2233.3053212135073
F4032.7021351510434
tp887
sg36
F2233.3053212135073
sbsg37
I0
sg38
(isrc.util
Loc
p888
(dp889
g34
F4030.8072724507083
sg31
(F2230.2443580731087
F4030.8072724507083
tp890
sg36
F2230.2443580731087
sbsg42
(dp891
g45
I0
sg59
I0
sg78
I0
sg17
I0
ssg91
Nsg92
(lp892
g13
(g94
g15
Ntp893
Rp894
(dp895
g98
g883
sbasg99
g100
sg101
F-0.5543029511277701
sg102
I0
sg103
(lp896
sg105
g62
(I431
I789
I25
I25
tp897
Rp898
sg108
g111
sg112
I1
sg113
F1000000000000000.0
sg114
I1
sg115
(lp899
sbI0
sg13
(g21
g15
Ntp900
Rp901
(dp902
g25
F3.6000000000001022
sg26
I01
sg27
Nsg28
I4
sg29
F3.6
sg30
F0.1
sg31
(isrc.util
Loc
p903
(dp904
g34
F4530.8562454543735
sg31
(F1520.8563596161418
F4530.8562454543735
tp905
sg36
F1520.8563596161418
sbsg37
I0
sg38
(isrc.util
Loc
p906
(dp907
g34
F4530.623024786123
sg31
(F1517.2639219869127
F4530.623024786123
tp908
sg36
F1517.2639219869127
sbsg42
(dp909
g45
I0
sg59
I0
sg78
I0
sg17
I0
ssg91
Nsg92
(lp910
g13
(g94
g15
Ntp911
Rp912
(dp913
g98
g901
sbasg99
g100
sg101
F-0.06482891979366609
sg102
I0
sg103
(lp914
sg105
g62
(I289
I889
I25
I25
tp915
Rp916
sg108
g111
sg112
I1
sg113
F1000000000000000.0
sg114
I1
sg115
(lp917
sbI0
sg13
(g21
g15
Ntp918
Rp919
(dp920
g25
F3.6000000000001537
sg26
I01
sg27
Nsg28
I4
sg29
F3.6
sg30
F0.1
sg31
(isrc.util
Loc
p921
(dp922
g34
F3852.948125151521
sg31
(F2080.843482535154
F3852.948125151521
tp923
sg36
F2080.843482535154
sbsg37
I0
sg38
(isrc.util
Loc
p924
(dp925
g34
F3849.538311418098
sg31
(F2081.9981124773276
F3849.538311418098
tp926
sg36
F2081.9981124773276
sbsg42
(dp927
g45
I0
sg59
I0
sg78
I0
sg17
I0
ssg91
Nsg92
(lp928
g13
(g94
g15
Ntp929
Rp930
(dp931
g98
g919
sbasg99
g100
sg101
F-1.8972969996423579
sg102
I0
sg103
(lp932
sg105
g62
(I401
I754
I25
I25
tp933
Rp934
sg108
g111
sg112
I1
sg113
F1000000000000000.0
sg114
I1
sg115
(lp935
sbI0
ssS'lostsprites'
p936
(lp937
sbI0
sg17
I0
ssg91
Nsg92
(lp938
g13
(g94
g15
Ntp939
Rp940
(dp941
g98
g68
sbasg99
g100
sg101
F-1.4486515963868218
sg102
I0
sg103
(lp942
sg105
g62
(I368
I788
I25
I25
tp943
Rp944
sg108
g111
sg112
I1
sg113
F1000000000000000.0
sg114
I1
sg115
(lp945
sbg62
(I368
I788
I25
I25
tp946
Rp947
sg82
g62
(I101
I226
I25
I25
tp948
Rp949
sg118
g62
(I447
I768
I25
I25
tp950
Rp951
sg136
g62
(I468
I755
I25
I25
tp952
Rp953
sg154
g62
(I165
I873
I25
I25
tp954
Rp955
sg172
g62
(I88
I737
I25
I25
tp956
Rp957
sg190
g62
(I391
I810
I25
I25
tp958
Rp959
sg208
g62
(I518
I531
I25
I25
tp960
Rp961
sg226
g62
(I228
I851
I25
I25
tp962
Rp963
sg244
g62
(I97
I74
I25
I25
tp964
Rp965
sg262
g62
(I104
I156
I25
I25
tp966
Rp967
sg280
g62
(I490
I812
I25
I25
tp968
Rp969
sg298
g62
(I319
I866
I25
I25
tp970
Rp971
sg316
g62
(I405
I790
I25
I25
tp972
Rp973
sg334
g62
(I357
I808
I25
I25
tp974
Rp975
sg352
g62
(I150
I177
I25
I25
tp976
Rp977
sg376
g62
(I289
I831
I25
I25
tp978
Rp979
sg394
g62
(I491
I322
I25
I25
tp980
Rp981
sg412
g62
(I74
I146
I25
I25
tp982
Rp983
sg430
g62
(I86
I669
I25
I25
tp984
Rp985
sg451
g62
(I444
I750
I25
I25
tp986
Rp987
sg469
g62
(I423
I740
I25
I25
tp988
Rp989
sg487
g62
(I495
I206
I25
I25
tp990
Rp991
sg505
g62
(I316
I849
I25
I25
tp992
Rp993
sg523
g62
(I446
I88
I25
I25
tp994
Rp995
sg541
g62
(I383
I781
I25
I25
tp996
Rp997
sg559
g62
(I602
I380
I25
I25
tp998
Rp999
sg577
g62
(I423
I777
I25
I25
tp1000
Rp1001
sg595
g62
(I286
I93
I25
I25
tp1002
Rp1003
sg613
g62
(I453
I778
I25
I25
tp1004
Rp1005
sg631
g62
(I85
I71
I25
I25
tp1006
Rp1007
sg649
g62
(I452
I599
I25
I25
tp1008
Rp1009
sg667
g62
(I458
I641
I25
I25
tp1010
Rp1011
sg685
g62
(I481
I472
I25
I25
tp1012
Rp1013
sg703
g62
(I437
I438
I25
I25
tp1014
Rp1015
sg721
g62
(I476
I769
I25
I25
tp1016
Rp1017
sg739
g62
(I75
I89
I25
I25
tp1018
Rp1019
sg757
g62
(I72
I77
I25
I25
tp1020
Rp1021
sg775
g62
(I600
I509
I25
I25
tp1022
Rp1023
sg793
g62
(I419
I808
I25
I25
tp1024
Rp1025
sg811
g62
(I402
I778
I25
I25
tp1026
Rp1027
sg829
g62
(I490
I740
I25
I25
tp1028
Rp1029
sg919
g62
(I401
I754
I25
I25
tp1030
Rp1031
sg865
g62
(I454
I802
I25
I25
tp1032
Rp1033
sg883
g62
(I431
I789
I25
I25
tp1034
Rp1035
sg901
g62
(I289
I889
I25
I25
tp1036
Rp1037
sg847
g62
(I546
I629
I25
I25
tp1038
Rp1039
ssg936
(lp1040
sbI0
sg78
I0
sg17
I0
ssg91
Nsg92
(lp1041
g13
(g94
g15
Ntp1042
Rp1043
(dp1044
g98
g49
sbasg99
g100
sg101
F0.41240746885475066
sg102
I0
sg103
(lp1045
sg105
g62
(I339
I836
I25
I25
tp1046
Rp1047
sg108
g111
sg112
I1
sg113
F1000000000000000.0
sg114
I1
sg115
(lp1048
sbI0
sg68
I0
sg82
I0
sg118
I0
sg136
I0
sg13
(csrc.actor
Zombie
p1049
g15
Ntp1050
Rp1051
(dp1052
g25
F4.000000000000133
sg27
Nsg28
I4
sg29
F4.0
sg30
F11.0
sg31
(isrc.util
Loc
p1053
(dp1054
g34
F3368.6446792702686
sg31
(F523.4943951225999
F3368.6446792702686
tp1055
sg36
F523.4943951225999
sbsg37
F11.0
sg38
(isrc.util
Loc
p1056
(dp1057
g34
F3364.9388750658036
sg31
(F525.0000561728268
F3364.9388750658036
tp1058
sg36
F525.0000561728268
sbsg42
(dp1059
g45
I0
sg13
(g14
g15
Ntp1060
Rp1061
(dp1062
g19
(dp1063
g13
(g1049
g15
Ntp1064
Rp1065
(dp1066
g25
F3.9999999999999933
sg27
Nsg28
I4
sg29
F4.0
sg30
F11.0
sg31
(isrc.util
Loc
p1067
(dp1068
g34
F1025.3084546945583
sg31
(F923.1464540321422
F1025.3084546945583
tp1069
sg36
F923.1464540321422
sbsg37
F11.0
sg38
(isrc.util
Loc
p1070
(dp1071
g34
F1027.4704941247892
sg31
(F926.5118047571227
F1027.4704941247892
tp1072
sg36
F926.5118047571227
sbsg42
(dp1073
g45
I0
sg1061
I0
sg17
I0
ssg91
Nsg92
(lp1074
g13
(csrc.actor
Bite
p1075
g15
Ntp1076
Rp1077
(dp1078
g98
g1065
sg365
I109
sbasg99
g100
sg366
F16.0
sg101
F2.5705496538454584
sg102
I0
sg103
(lp1079
sg105
g62
(I170
I190
I25
I25
tp1080
Rp1081
sS'target'
p1082
g352
sg108
g111
sg112
I1
sg113
F123.82239070716835
sg114
I1
sg115
(lp1083
sbg62
(I170
I190
I25
I25
tp1084
Rp1085
sg13
(g1049
g15
Ntp1086
Rp1087
(dp1088
g25
F4.000000000000056
sg27
Nsg28
I4
sg29
F4.0
sg30
F11.0
sg31
(isrc.util
Loc
p1089
(dp1090
g34
F2495.4785887805556
sg31
(F1767.1256329451483
F2495.4785887805556
tp1091
sg36
F1767.1256329451483
sbsg37
F11.0
sg38
(isrc.util
Loc
p1092
(dp1093
g34
F2493.280770367449
sg31
(F1763.7835386581764
F2493.280770367449
tp1094
sg36
F1763.7835386581764
sbsg42
(dp1095
g45
I0
sg1061
I0
sg17
I0
ssg91
Nsg92
(lp1096
g13
(g1075
g15
Ntp1097
Rp1098
(dp1099
g98
g1087
sbasg99
g100
sg366
F11.0
sg101
F-0.5817113372312551
sg102
I0
sg103
(lp1100
sg105
g62
(I339
I483
I25
I25
tp1101
Rp1102
sg1082
g13
(csrc.actor
Soldier
p1103
g15
Ntp1104
Rp1105
(dp1106
g25
F3.999999999999972
sg26
I01
sg27
Nsg28
I4
sg29
F4.0
sg30
F0.1
sg31
(isrc.util
Loc
p1107
(dp1108
g34
F2715.527574529509
sg31
(F2096.345343218332
F2715.527574529509
tp1109
sg36
F2096.345343218332
sbsg37
I0
sg38
(isrc.util
Loc
p1110
(dp1111
g34
F2712.7495270914083
sg31
(F2093.4674181964347
F2712.7495270914083
tp1112
sg36
F2093.4674181964347
sbsg42
(dp1113
g45
I0
sg17
I0
sg13
(g14
g15
Ntp1114
Rp1115
(dp1116
g19
(dp1117
g13
(g1103
g15
Ntp1118
Rp1119
(dp1120
g25
F4.000000000000028
sg26
I01
sg27
Nsg28
I4
sg29
F4.0
sg30
F0.1
sg31
(isrc.util
Loc
p1121
(dp1122
g34
F545.8987904832414
sg31
(F548.8975104176446
F545.8987904832414
tp1123
sg36
F548.8975104176446
sbsg37
I0
sg38
(isrc.util
Loc
p1124
(dp1125
g34
F548.5198727804574
sg31
(F551.9190874216645
F548.5198727804574
tp1126
sg36
F551.9190874216645
sbsg42
(dp1127
g45
I0
sg17
I0
sg1115
I0
ssg91
Nsg92
(lp1128
g13
(csrc.actor
Rifle
p1129
g15
Ntp1130
Rp1131
(dp1132
g98
g1119
sg365
I3
sbag13
(g94
g15
Ntp1133
Rp1134
(dp1135
g98
g1119
sbasg99
g100
sg101
F2.427051899215939
sg102
I0
sg103
(lp1136
sg105
g62
(I96
I95
I25
I25
tp1137
Rp1138
sg108
g111
sg112
I1
sg113
F1000000000000000.0
sg114
I1
sg115
(lp1139
sbg62
(I96
I95
I25
I25
tp1140
Rp1141
sg13
(g1103
g15
Ntp1142
Rp1143
(dp1144
g25
F4.000000000000024
sg26
I01
sg27
Nsg28
I4
sg29
F4.0
sg30
F0.1
sg31
(isrc.util
Loc
p1145
(dp1146
g34
F3702.9262026472525
sg31
(F1520.6070446269962
F3702.9262026472525
tp1147
sg36
F1520.6070446269962
sbsg37
I0
sg38
(isrc.util
Loc
p1148
(dp1149
g34
F3701.862161653926
sg31
(F1516.7511638243104
F3701.862161653926
tp1150
sg36
F1516.7511638243104
sbsg42
(dp1151
g45
I0
sg17
I0
sg1115
I0
ssg91
Nsg92
(lp1152
g13
(g1129
g15
Ntp1153
Rp1154
(dp1155
g98
g1143
sg365
I0
sbag13
(g94
g15
Ntp1156
Rp1157
(dp1158
g98
g1143
sbasg99
g100
sg101
F-0.2692517788569541
sg102
I0
sg103
(lp1159
sg105
g62
(I289
I724
I25
I25
tp1160
Rp1161
sg108
g111
sg112
I1
sg113
F1000000000000000.0
sg114
I1
sg115
(lp1162
sbg62
(I289
I724
I25
I25
tp1163
Rp1164
sg1105
g62
(I404
I527
I25
I25
tp1165
Rp1166
ssg936
(lp1167
sbI0
ssg91
Nsg92
(lp1168
g13
(g1129
g15
Ntp1169
Rp1170
(dp1171
g98
g1105
sg365
I54
sbag13
(g94
g15
Ntp1172
Rp1173
(dp1174
g98
g1105
sbasg99
g100
sg101
F-0.7677412167361468
sg102
I0
sg103
(lp1175
sg105
g62
(I404
I527
I25
I25
tp1176
Rp1177
sg108
g111
sg112
I1
sg113
F1000000000000000.0
sg114
I1
sg115
(lp1178
sbsg108
g111
sg112
I1
sg113
F399.98874460734027
sg114
I1
sg115
(lp1179
sbg62
(I339
I483
I25
I25
tp1180
Rp1181
sg1051
g62
(I91
I657
I25
I25
tp1182
Rp1183
ssg936
(lp1184
sbI0
sg17
I0
ssg91
Nsg92
(lp1185
g13
(g1075
g15
Ntp1186
Rp1187
(dp1188
g98
g1051
sg365
I24
sbasg99
g100
sg366
F15.0
sg101
F-1.9567202453021615
sg102
I0
sg103
(lp1189
sg105
g62
(I91
I657
I25
I25
tp1190
Rp1191
sg1082
g430
sg108
g111
sg112
I1
sg113
F63.075223108093226
sg114
I1
sg115
(lp1192
sbI0
sg154
I0
sg172
I0
sg190
I0
sg208
I0
sg226
I0
sg244
I0
sg262
I0
sg1119
I0
sg280
I0
sg298
I0
sg316
I0
sg334
I0
sg352
I0
sg376
I0
sg394
I0
sg412
I0
sg430
I0
sg451
I0
sg469
I0
sg487
I0
sg505
I0
sg523
I0
sg541
I0
sg559
I0
sg577
I0
sg595
I0
sg613
I0
sg631
I0
sg649
I0
sg667
I0
sg685
I0
sg703
I0
sg1105
I0
sg721
I0
sg1087
I0
sg739
I0
sg1143
I0
sg757
I0
sg775
I0
sg793
I0
sg811
I0
sg1065
I0
sg829
I0
sg847
I0
sg865
I0
sg883
I0
sg901
I0
sg919
I0
ssg936
(lp1193
sbI0
sg59
I0
sg78
I0
sg17
I0
ssg91
Nsg92
(lp1194
g13
(g94
g15
Ntp1195
Rp1196
(dp1197
g98
g23
sbasg99
g100
sg101
F-2.106699905743416
sg102
I0
sg103
(lp1198
sg105
g62
(I424
I765
I25
I25
tp1199
Rp1200
sg108
g111
sg112
I1
sg113
F1000000000000000.0
sg114
I1
sg115
(lp1201
sbI0
sg49
I0
sg68
I0
sg82
I0
sg118
I0
sg136
I0
sg154
I0
sg172
I0
sg190
I0
sg208
I0
sg226
I0
sg244
I0
sg262
I0
sg280
I0
sg298
I0
sg316
I0
sg334
I0
sg352
I0
sg376
I0
sg394
I0
sg412
I0
sg430
I0
sg451
I0
sg469
I0
sg487
I0
sg505
I0
sg523
I0
sg541
I0
sg559
I0
sg577
I0
sg595
I0
sg613
I0
sg631
I0
sg649
I0
sg667
I0
sg685
I0
sg703
I0
sg1105
I0
sg1119
I0
sg793
I0
sg739
I0
sg1143
I0
sg757
I0
sg919
I0
sg775
I0
sg1087
I0
sg811
I0
sg1065
I0
sg829
I0
sg1051
I0
sg865
I0
sg721
I0
sg883
I0
sg901
I0
sg847
I0
ssg936
(lp1202
sbsS'tileNames'
p1203
(lp1204
S'tile0.png'
p1205
aS'tile1.png'
p1206
asS'fill'
p1207
I0
sS'mobSize'
p1208
(isrc.util
Loc
p1209
(dp1210
g34
I25
sg31
(I25
I25
tp1211
sg36
I25
sbsS'scale'
p1212
F0.19921875
sS'friendlies'
p1213
g1115
sS'filename'
p1214
S'map.p'
p1215
sS'width'
p1216
I14
sS'other'
p1217
g13
(g14
g15
Ntp1218
Rp1219
(dp1220
g19
(dp1221
sg936
(lp1222
sbsS'enemies'
p1223
g1061
sS'neutrals'
p1224
g59
sS'viewpoint'
p1225
(F1792.0
F2688.0
tp1226
sS'grid'
p1227
(lp1228
I1
aI1
aI1
aI1
aI1
aI1
aI1
aI1
aI1
aI1
aI1
aI1
aI1
aI1
aI1
aI0
aI0
aI0
aI0
aI0
aI0
aI0
aI0
aI0
aI0
aI0
aI0
aI1
aI1
aI0
aI0
aI0
aI0
aI0
aI0
aI0
aI0
aI0
aI0
aI0
aI0
aI1
aI1
aI0
aI0
aI0
aI0
aI0
aI0
aI0
aI0
aI0
aI0
aI0
aI0
aI1
aI1
aI0
aI0
aI0
aI0
aI0
aI0
aI0
aI0
aI0
aI0
aI0
aI0
aI1
aI1
aI0
aI0
aI0
aI0
aI0
aI0
aI0
aI0
aI0
aI0
aI0
aI0
aI1
aI1
aI0
aI0
aI0
aI0
aI0
aI0
aI0
aI0
aI0
aI0
aI0
aI0
aI1
aI1
aI0
aI0
aI0
aI0
aI0
aI0
aI0
aI0
aI0
aI0
aI0
aI0
aI1
aI1
aI0
aI0
aI0
aI0
aI0
aI0
aI0
aI0
aI0
aI0
aI0
aI0
aI1
aI1
aI0
aI0
aI0
aI0
aI0
aI0
aI0
aI0
aI0
aI0
aI0
aI0
aI1
aI1
aI0
aI0
aI0
aI0
aI0
aI0
aI0
aI0
aI0
aI0
aI0
aI0
aI1
aI1
aI0
aI0
aI0
aI0
aI0
aI0
aI0
aI0
aI0
aI0
aI0
aI0
aI1
aI1
aI0
aI0
aI0
aI0
aI0
aI0
aI0
aI0
aI0
aI0
aI0
aI0
aI1
aI1
aI0
aI0
aI0
aI0
aI0
aI0
aI0
aI0
aI0
aI0
aI0
aI0
aI1
aI1
aI0
aI0
aI0
aI0
aI0
aI0
aI0
aI0
aI0
aI0
aI0
aI0
aI1
aI1
aI0
aI0
aI0
aI0
aI0
aI0
aI0
aI0
aI0
aI0
aI0
aI0
aI1
aI1
aI0
aI0
aI0
aI0
aI0
aI0
aI0
aI0
aI0
aI0
aI0
aI0
aI1
aI1
aI0
aI0
aI0
aI0
aI0
aI0
aI0
aI0
aI0
aI0
aI0
aI0
aI1
aI1
aI0
aI0
aI0
aI0
aI0
aI0
aI0
aI0
aI0
aI0
aI0
aI0
aI1
aI1
aI0
aI0
aI0
aI0
aI0
aI0
aI0
aI0
aI0
aI0
aI0
aI0
aI1
aI1
aI1
aI1
aI1
aI1
aI1
aI1
aI1
aI1
aI1
aI1
aI1
aI1
aI1
asS'actorSize'
p1229
I25
sS'tileSize'
p1230
I51
sS'mobOffset'
p1231
(isrc.util
Loc
p1232
(dp1233
g34
F-12.5
sg31
(F-12.5
F-12.5
tp1234
sg36
F-12.5
sbsS'maxScale'
p1235
F2.0
sS'mobs'
p1236
g45
sS'minScale'
p1237
F0.05
s.