(dp0
S'actorNames'
p1
(lp2
S'blip.png'
p3
aS'zombie.png'
p4
aS'soldier.png'
p5
aS'civilian.png'
p6
asS'wall'
p7
I1
sS'height'
p8
I20
sS'tileNames'
p9
(lp10
S'tile0.jpg'
p11
aS'tile1.jpg'
p12
asS'fill'
p13
I1
sS'mobSize'
p14
(isrc.util
Loc
p15
(dp16
S'y'
p17
I12
sS'loc'
p18
(I12
I12
tp19
sS'x'
p20
I12
sbsS'filename'
p21
S'map.p'
p22
sS'width'
p23
I20
sS'size'
p24
(I20
I20
tp25
sS'viewpoint'
p26
(F2560.0
F2560.0
tp27
sS'scale'
p28
F0.09375
sS'grid'
p29
(lp30
I1
aI1
aI1
aI1
aI1
aI1
aI1
aI1
aI1
aI1
aI1
aI1
aI1
aI1
aI1
aI1
aI1
aI1
aI1
aI1
aI1
aI1
aI1
aI1
aI1
aI1
aI1
aI1
aI1
aI1
aI1
aI1
aI1
aI1
aI1
aI1
aI1
aI1
aI1
aI1
aI1
aI1
aI1
aI1
aI1
aI1
aI1
aI1
aI1
aI1
aI1
aI1
aI1
aI1
aI1
aI1
aI1
aI1
aI1
aI1
aI1
aI1
aI1
aI1
aI1
aI1
aI1
aI1
aI1
aI1
aI1
aI1
aI1
aI1
aI1
aI1
aI1
aI1
aI1
aI1
aI1
aI1
aI1
aI1
aI1
aI1
aI1
aI1
aI1
aI1
aI1
aI1
aI1
aI1
aI1
aI1
aI1
aI1
aI1
aI1
aI1
aI1
aI1
aI1
aI1
aI1
aI1
aI1
aI1
aI1
aI1
aI1
aI1
aI1
aI1
aI1
aI1
aI1
aI1
aI1
aI1
aI1
aI1
aI1
aI1
aI1
aI1
aI1
aI1
aI1
aI1
aI1
aI1
aI1
aI1
aI1
aI1
aI1
aI1
aI1
aI1
aI1
aI1
aI1
aI1
aI1
aI1
aI1
aI1
aI1
aI1
aI1
aI1
aI1
aI1
aI1
aI1
aI1
aI1
aI1
aI1
aI1
aI1
aI1
aI1
aI1
aI1
aI1
aI1
aI1
aI1
aI1
aI1
aI1
aI1
aI1
aI1
aI1
aI1
aI1
aI1
aI1
aI1
aI1
aI1
aI1
aI1
aI1
aI1
aI1
aI1
aI1
aI1
aI1
aI1
aI1
aI1
aI1
aI1
aI1
aI1
aI1
aI1
aI1
aI1
aI1
aI1
aI1
aI1
aI1
aI1
aI1
aI1
aI1
aI1
aI1
aI1
aI1
aI1
aI1
aI1
aI1
aI1
aI1
aI1
aI1
aI1
aI1
aI1
aI1
aI1
aI1
aI1
aI1
aI1
aI1
aI1
aI1
aI1
aI1
aI1
aI1
aI1
aI1
aI1
aI1
aI1
aI1
aI1
aI1
aI1
aI1
aI1
aI1
aI1
aI1
aI1
aI1
aI1
aI1
aI1
aI1
aI1
aI1
aI1
aI1
aI1
aI1
aI1
aI1
aI1
aI1
aI1
aI1
aI1
aI1
aI1
aI1
aI1
aI1
aI1
aI1
aI1
aI1
aI1
aI1
aI1
aI1
aI1
aI1
aI1
aI1
aI1
aI1
aI1
aI1
aI1
aI1
aI1
aI1
aI1
aI1
aI1
aI1
aI1
aI1
aI1
aI1
aI1
aI1
aI1
aI1
aI1
aI1
aI1
aI1
aI1
aI1
aI1
aI1
aI1
aI1
aI1
aI1
aI1
aI1
aI1
aI1
aI1
aI1
aI1
aI1
aI1
aI1
aI1
aI1
aI1
aI1
aI1
aI1
aI1
aI1
aI1
aI1
aI1
aI1
aI1
aI1
aI1
aI1
aI1
aI1
aI1
aI1
aI1
aI1
aI1
aI1
aI1
aI1
aI1
aI1
aI1
aI1
aI1
aI1
aI1
aI1
aI1
aI1
aI1
aI1
aI1
aI1
aI1
aI1
aI1
aI1
aI1
aI1
aI1
aI1
aI1
aI1
aI1
aI1
aI1
aI1
aI1
aI1
aI1
aI1
aI1
aI1
aI1
aI1
aI1
aI1
aI1
aI1
asS'actorSize'
p31
I12
sS'tileSize'
p32
I24
sS'mobOffset'
p33
(isrc.util
Loc
p34
(dp35
g17
F-6.0
sg18
(F-6.0
F-6.0
tp36
sg20
F-6.0
sbsS'maxScale'
p37
F2.0
sS'mobs'
p38
ccopy_reg
_reconstructor
p39
(cpygame.sprite
Group
p40
c__builtin__
object
p41
Ntp42
Rp43
(dp44
S'spritedict'
p45
(dp46
g39
(csrc.actors
Soldier
p47
g41
Ntp48
Rp49
(dp50
g18
(isrc.util
Loc
p51
(dp52
g17
F4501.704144309664
sg18
(F1125.4459733331555
F4501.704144309664
tp53
sg20
F1125.4459733331555
sbsS'direction'
p54
F6.251210012574273
sS'level'
p55
g39
(csrc.tilemap
Map
p56
g41
Ntp57
Rp58
g0
bsS'image'
p59
NsS'_Sprite__g'
p60
(dp61
g43
I0
ssS'speed'
p62
F14.642686157179147
sS'rect'
p63
cpygame
__rect_constructor
p64
(I99
I416
I12
I12
tp65
Rp66
sbg64
(I99
I416
I12
I12
tp67
Rp68
sg39
(g47
g41
Ntp69
Rp70
(dp71
g18
(isrc.util
Loc
p72
(dp73
g17
F254.82629196068746
sg18
(F1606.652699302418
F254.82629196068746
tp74
sg20
F1606.652699302418
sbsg54
F2.4649489523560466
sg55
g58
sg59
Nsg60
(dp75
g43
I0
ssg62
F1.4008533704308608
sg63
g64
(I144
I17
I12
I12
tp76
Rp77
sbg64
(I144
I17
I12
I12
tp78
Rp79
sg39
(g47
g41
Ntp80
Rp81
(dp82
g18
(isrc.util
Loc
p83
(dp84
g17
F1320.5200748300754
sg18
(F134.5594427013894
F1320.5200748300754
tp85
sg20
F134.5594427013894
sbsg54
F3.8578052161146275
sg55
g58
sg59
Nsg60
(dp86
g43
I0
ssg62
F0.9237937220822552
sg63
g64
(I6
I117
I12
I12
tp87
Rp88
sbg64
(I6
I117
I12
I12
tp89
Rp90
sg39
(g47
g41
Ntp91
Rp92
(dp93
g18
(isrc.util
Loc
p94
(dp95
g17
F431.62882012404634
sg18
(F4986.446871068354
F431.62882012404634
tp96
sg20
F4986.446871068354
sbsg54
F5.448755945343986
sg55
g58
sg59
Nsg60
(dp97
g43
I0
ssg62
F14.251310495976956
sg63
g64
(I461
I34
I12
I12
tp98
Rp99
sbg64
(I461
I34
I12
I12
tp100
Rp101
sg39
(csrc.actors
Zombie
p102
g41
Ntp103
Rp104
(dp105
g18
(isrc.util
Loc
p106
(dp107
g17
F3929.4171596706387
sg18
(F4893.079611082324
F3929.4171596706387
tp108
sg20
F4893.079611082324
sbsg54
F2.772022299714168
sg55
g58
sg59
Nsg60
(dp109
g43
I0
ssg62
F3.471945079972392
sg63
g64
(I452
I362
I12
I12
tp110
Rp111
sbg64
(I452
I362
I12
I12
tp112
Rp113
sg39
(csrc.actors
Civilian
p114
g41
Ntp115
Rp116
(dp117
g18
(isrc.util
Loc
p118
(dp119
g17
F2411.2467475713033
sg18
(F1980.4181441492897
F2411.2467475713033
tp120
sg20
F1980.4181441492897
sbsg54
F0.48783034313813
sg55
g58
sg59
Nsg60
(dp121
g43
I0
ssg62
F4.353819187305882
sg63
g64
(I179
I220
I12
I12
tp122
Rp123
sbg64
(I179
I220
I12
I12
tp124
Rp125
sg39
(g47
g41
Ntp126
Rp127
(dp128
g18
(isrc.util
Loc
p129
(dp130
g17
F3932.1709801990874
sg18
(F4991.278869758395
F3932.1709801990874
tp131
sg20
F4991.278869758395
sbsg54
F1.1943192836975631
sg55
g58
sg59
Nsg60
(dp132
g43
I0
ssg62
F7.663342048205186
sg63
g64
(I461
I362
I12
I12
tp133
Rp134
sbg64
(I461
I362
I12
I12
tp135
Rp136
sg39
(g114
g41
Ntp137
Rp138
(dp139
g18
(isrc.util
Loc
p140
(dp141
g17
F130.62358547593072
sg18
(F230.98151321964036
F130.62358547593072
tp142
sg20
F230.98151321964036
sbsg54
F5.451870586805492
sg55
g58
sg59
Nsg60
(dp143
g43
I0
ssg62
F13.520083118673467
sg63
g64
(I15
I6
I12
I12
tp144
Rp145
sbg64
(I15
I6
I12
I12
tp146
Rp147
sg39
(g114
g41
Ntp148
Rp149
(dp150
g18
(isrc.util
Loc
p151
(dp152
g17
F2443.8632172996963
sg18
(F1313.7333958279403
F2443.8632172996963
tp153
sg20
F1313.7333958279403
sbsg54
F2.2760720069321208
sg55
g58
sg59
Nsg60
(dp154
g43
I0
ssg62
F12.478580957211225
sg63
g64
(I117
I223
I12
I12
tp155
Rp156
sbg64
(I117
I223
I12
I12
tp157
Rp158
sg39
(g102
g41
Ntp159
Rp160
(dp161
g18
(isrc.util
Loc
p162
(dp163
g17
F4014.7983010123266
sg18
(F3638.4661757877852
F4014.7983010123266
tp164
sg20
F3638.4661757877852
sbsg54
F4.059223069515724
sg55
g58
sg59
Nsg60
(dp165
g43
I0
ssg62
F1.3516544524491794
sg63
g64
(I335
I370
I12
I12
tp166
Rp167
sbg64
(I335
I370
I12
I12
tp168
Rp169
sg39
(g102
g41
Ntp170
Rp171
(dp172
g18
(isrc.util
Loc
p173
(dp174
g17
F4279.645455259661
sg18
(F3479.129814361088
F4279.645455259661
tp175
sg20
F3479.129814361088
sbsg54
F2.19858344773029
sg55
g58
sg59
Nsg60
(dp176
g43
I0
ssg62
F4.072953957201662
sg63
g64
(I320
I395
I12
I12
tp177
Rp178
sbg64
(I320
I395
I12
I12
tp179
Rp180
sg39
(g102
g41
Ntp181
Rp182
(dp183
g18
(isrc.util
Loc
p184
(dp185
g17
F4402.3405227096555
sg18
(F4953.795665540929
F4402.3405227096555
tp186
sg20
F4953.795665540929
sbsg54
F6.120720746028211
sg55
g58
sg59
Nsg60
(dp187
g43
I0
ssg62
F4.364709404983232
sg63
g64
(I458
I406
I12
I12
tp188
Rp189
sbg64
(I458
I406
I12
I12
tp190
Rp191
sg39
(g102
g41
Ntp192
Rp193
(dp194
g18
(isrc.util
Loc
p195
(dp196
g17
F3705.507434712274
sg18
(F4060.6134069794716
F3705.507434712274
tp197
sg20
F4060.6134069794716
sbsg54
F1.0049863101525531
sg55
g58
sg59
Nsg60
(dp198
g43
I0
ssg62
F9.473063358421092
sg63
g64
(I374
I341
I12
I12
tp199
Rp200
sbg64
(I374
I341
I12
I12
tp201
Rp202
sg39
(g102
g41
Ntp203
Rp204
(dp205
g18
(isrc.util
Loc
p206
(dp207
g17
F4974.898529349768
sg18
(F3882.4788949023778
F4974.898529349768
tp208
sg20
F3882.4788949023778
sbsg54
F1.1538942482787307
sg55
g58
sg59
Nsg60
(dp209
g43
I0
ssg62
F7.523088645996459
sg63
g64
(I357
I460
I12
I12
tp210
Rp211
sbg64
(I357
I460
I12
I12
tp212
Rp213
sg39
(g114
g41
Ntp214
Rp215
(dp216
g18
(isrc.util
Loc
p217
(dp218
g17
F1612.742231642829
sg18
(F133.47566484094762
F1612.742231642829
tp219
sg20
F133.47566484094762
sbsg54
F2.1338242083528316
sg55
g58
sg59
Nsg60
(dp220
g43
I0
ssg62
F10.65996998739326
sg63
g64
(I6
I145
I12
I12
tp221
Rp222
sbg64
(I6
I145
I12
I12
tp223
Rp224
sg39
(g102
g41
Ntp225
Rp226
(dp227
g18
(isrc.util
Loc
p228
(dp229
g17
F2671.613665739466
sg18
(F2111.872292050744
F2671.613665739466
tp230
sg20
F2111.872292050744
sbsg54
F2.4697205882299245
sg55
g58
sg59
Nsg60
(dp231
g43
I0
ssg62
F5.1289515068619025
sg63
g64
(I191
I244
I12
I12
tp232
Rp233
sbg64
(I191
I244
I12
I12
tp234
Rp235
sg39
(g102
g41
Ntp236
Rp237
(dp238
g18
(isrc.util
Loc
p239
(dp240
g17
F4973.62873752445
sg18
(F4707.200880709756
F4973.62873752445
tp241
sg20
F4707.200880709756
sbsg54
F3.2261786921399076
sg55
g58
sg59
Nsg60
(dp242
g43
I0
ssg62
F4.860479670216386
sg63
g64
(I435
I460
I12
I12
tp243
Rp244
sbg64
(I435
I460
I12
I12
tp245
Rp246
sg39
(g102
g41
Ntp247
Rp248
(dp249
g18
(isrc.util
Loc
p250
(dp251
g17
F2794.3680975109537
sg18
(F4836.341986199982
F2794.3680975109537
tp252
sg20
F4836.341986199982
sbsg54
F1.0278459358231735
sg55
g58
sg59
Nsg60
(dp253
g43
I0
ssg62
F1.920280959714757
sg63
g64
(I447
I255
I12
I12
tp254
Rp255
sbg64
(I447
I255
I12
I12
tp256
Rp257
sg39
(g102
g41
Ntp258
Rp259
(dp260
g18
(isrc.util
Loc
p261
(dp262
g17
F4801.71256683653
sg18
(F3677.7605248106365
F4801.71256683653
tp263
sg20
F3677.7605248106365
sbsg54
F2.6441482780161913
sg55
g58
sg59
Nsg60
(dp264
g43
I0
ssg62
F7.87428918192382
sg63
g64
(I338
I444
I12
I12
tp265
Rp266
sbg64
(I338
I444
I12
I12
tp267
Rp268
sg39
(g114
g41
Ntp269
Rp270
(dp271
g18
(isrc.util
Loc
p272
(dp273
g17
F1974.7732438817627
sg18
(F313.39963408508453
F1974.7732438817627
tp274
sg20
F313.39963408508453
sbsg54
F5.370255859279283
sg55
g58
sg59
Nsg60
(dp275
g43
I0
ssg62
F5.00249461691563
sg63
g64
(I23
I179
I12
I12
tp276
Rp277
sbg64
(I23
I179
I12
I12
tp278
Rp279
ssS'lostsprites'
p280
(lp281
sbsS'minScale'
p282
F0.05
s.