(dp0
S'size'
p1
(I20
I20
tp2
sS'actorNames'
p3
(lp4
S'blip.png'
p5
aS'zombie.png'
p6
aS'soldier.png'
p7
aS'civilian.png'
p8
aS'corpse.png'
p9
asS'wall'
p10
I1
sS'height'
p11
I20
sS'visible'
p12
ccopy_reg
_reconstructor
p13
(cpygame.sprite
Group
p14
c__builtin__
object
p15
Ntp16
Rp17
(dp18
S'spritedict'
p19
(dp20
g13
(csrc.actor
Zombie
p21
g15
Ntp22
Rp23
(dp24
S'distanceMoved'
p25
F0.7006673227525994
sS'image'
p26
NsS'blendmode'
p27
I4
sS'speed'
p28
F0.7006673227527892
sS'maxRiled'
p29
F0.1
sS'loc'
p30
(isrc.util
Loc
p31
(dp32
S'y'
p33
F1043.4719788799616
sg30
(F4130.970872536013
F1043.4719788799616
tp34
sS'x'
p35
F4130.970872536013
sbsS'riled'
p36
I0
sS'lastLoc'
p37
(isrc.util
Loc
p38
(dp39
g33
F1042.812722122521
sg30
(F4131.2081808269395
F1042.812722122521
tp40
sg35
F4131.2081808269395
sbsS'_Sprite__g'
p41
(dp42
g17
I0
sg13
(g14
g15
Ntp43
Rp44
(dp45
g19
(dp46
g13
(g21
g15
Ntp47
Rp48
(dp49
g29
F0.1
sg30
(isrc.util
Loc
p50
(dp51
g33
F562.5808099225262
sg30
(F1274.9112247825644
F562.5808099225262
tp52
sg35
F1274.9112247825644
sbsS'direction'
p53
F0.8752061375422311
sg36
I0
sg37
(isrc.util
Loc
p54
(dp55
g33
F563.0834524221651
sg30
(F1274.4916299430467
F563.0834524221651
tp56
sg35
F1274.4916299430467
sbsg41
(dp57
g17
I0
sg44
I0
sg13
(g14
g15
Ntp58
Rp59
(dp60
g19
(dp61
g13
(g21
g15
Ntp62
Rp63
(dp64
g25
F0.46569222455697384
sg26
Nsg27
I4
sg28
F0.4656922245568679
sg29
F0.1
sg30
(isrc.util
Loc
p65
(dp66
g33
F770.549630399041
sg30
(F4326.145445483556
F770.549630399041
tp67
sg35
F4326.145445483556
sbsg36
I0
sg37
(isrc.util
Loc
p68
(dp69
g33
F770.1045191141815
sg30
(F4326.282358565851
F770.1045191141815
tp70
sg35
F4326.282358565851
sbsg41
(dp71
g17
I0
sg44
I0
sg59
I0
ssS'source_rect'
p72
NsS'weapons'
p73
(lp74
g13
(csrc.actor
Bite
p75
g15
Ntp76
Rp77
(dp78
S'owner'
p79
g63
sS'countdown'
p80
I0
sbasS'health'
p81
F16.0
sg53
F-1.869204468893401
sS'_layer'
p82
I0
sS'effects'
p83
(lp84
sS'rect'
p85
cpygame
__rect_constructor
p86
(I898
I148
I27
I27
tp87
Rp88
sS'target'
p89
NsS'level'
p90
g13
(csrc.tilemap
Map
p91
g15
Ntp92
Rp93
g0
bsS'_visible'
p94
I1
sS'targetDistance'
p95
F1000000000000000.0
sS'dirty'
p96
I1
sS'highlight'
p97
(lp98
sbI0
sg13
(g21
g15
Ntp99
Rp100
(dp101
g29
F0.1
sg30
(isrc.util
Loc
p102
(dp103
g33
F312.2553626621195
sg30
(F4327.288891913376
F312.2553626621195
tp104
sg35
F4327.288891913376
sbsg53
F3.031230102865215
sg36
I0
sg37
(isrc.util
Loc
p105
(dp106
g33
F312.30418045135025
sg30
(F4327.72943473621
F312.30418045135025
tp107
sg35
F4327.72943473621
sbsg41
(dp108
g17
I0
sg44
I0
sg59
I0
ssg95
F1000000000000000.0
sg26
Nsg94
I1
sg82
I0
sg83
(lp109
sg72
Nsg73
(lp110
g13
(g75
g15
Ntp111
Rp112
(dp113
g79
g100
sg80
I0
sbasg96
I1
sg89
Nsg97
(lp114
sg90
g93
sg28
F0.44323938825009707
sg25
F0.4432393882503329
sg85
g86
(I898
I51
I27
I27
tp115
Rp116
sg27
I4
sbI0
sg13
(g21
g15
Ntp117
Rp118
(dp119
g25
F0.4755996859620268
sg26
Nsg27
I4
sg28
F0.47559968596202307
sg29
F0.1
sg30
(isrc.util
Loc
p120
(dp121
g33
F272.57790119038145
sg30
(F4039.490053532161
F272.57790119038145
tp122
sg35
F4039.490053532161
sbsg36
I0
sg37
(isrc.util
Loc
p123
(dp124
g33
F272.46190831049523
sg30
(F4039.9512917711468
F272.46190831049523
tp125
sg35
F4039.9512917711468
sbsg41
(dp126
g17
I0
sg44
I0
sg59
I0
ssg72
Nsg73
(lp127
g13
(g75
g15
Ntp128
Rp129
(dp130
g79
g118
sg80
I0
sbasg81
F13.0
sg53
F-2.8952201331014056
sg82
I0
sg83
(lp131
sg85
g86
(I838
I43
I27
I27
tp132
Rp133
sg89
Nsg90
g93
sg94
I1
sg95
F1000000000000000.0
sg96
I1
sg97
(lp134
sbI0
sg13
(g21
g15
Ntp135
Rp136
(dp137
g25
F0.47512692896627423
sg26
Nsg27
I4
sg28
F0.475126928966036
sg29
F0.1
sg30
(isrc.util
Loc
p138
(dp139
g33
F415.4757453388908
sg30
(F4096.313990260242
F415.4757453388908
tp140
sg35
F4096.313990260242
sbsg36
I0
sg37
(isrc.util
Loc
p141
(dp142
g33
F415.3025984724781
sg30
(F4096.756444507911
F415.3025984724781
tp143
sg35
F4096.756444507911
sbsg41
(dp144
g17
I0
sg44
I0
sg59
I0
ssg72
Nsg73
(lp145
g13
(g75
g15
Ntp146
Rp147
(dp148
g79
g136
sg80
I0
sbasg81
F14.0
sg53
F-2.7685802446006176
sg82
I0
sg83
(lp149
sg85
g86
(I850
I73
I27
I27
tp150
Rp151
sg89
Nsg90
g93
sg94
I1
sg95
F1000000000000000.0
sg96
I1
sg97
(lp152
sbI0
sg13
(g21
g15
Ntp153
Rp154
(dp155
g29
F0.1
sg30
(isrc.util
Loc
p156
(dp157
g33
F973.7115363159347
sg30
(F3830.7405148539056
F973.7115363159347
tp158
sg35
F3830.7405148539056
sbsg53
F-2.6234268760427417
sg36
I0
sg37
(isrc.util
Loc
p159
(dp160
g33
F973.3156339456558
sg30
(F3831.4349234399097
F973.3156339456558
tp161
sg35
F3831.4349234399097
sbsg41
(dp162
g17
I0
sg44
I0
sg59
I0
ssg95
F1000000000000000.0
sg26
Nsg94
I1
sg82
I0
sg83
(lp163
sg72
Nsg73
(lp164
g13
(g75
g15
Ntp165
Rp166
(dp167
g79
g154
sbasg96
I1
sg89
Nsg97
(lp168
sg90
g93
sg28
F0.7993384584197376
sg25
F0.7993384584196365
sg85
g86
(I794
I191
I27
I27
tp169
Rp170
sg27
I4
sbI0
sg13
(g21
g15
Ntp171
Rp172
(dp173
g29
F0.1
sg30
(isrc.util
Loc
p174
(dp175
g33
F351.28272763856495
sg30
(F4863.999303344932
F351.28272763856495
tp176
sg35
F4863.999303344932
sbsg53
F1.5859266759328356
sg36
I0
sg37
(isrc.util
Loc
p177
(dp178
g33
F351.42588393369283
sg30
(F4863.999303344932
F351.42588393369283
tp179
sg35
F4863.999303344932
sbsg41
(dp180
g17
I0
sg44
I0
sg59
I0
ssg95
F1000000000000000.0
sg26
Nsg94
I1
sg82
I0
sg83
(lp181
sg72
Nsg73
(lp182
g13
(g75
g15
Ntp183
Rp184
(dp185
g79
g172
sbasg96
I1
sg89
Nsg97
(lp186
sg90
g93
sg28
F0.14315629512788663
sg25
F0.14315629512788064
sg85
g86
(I1011
I60
I27
I27
tp187
Rp188
sg27
I4
sbI0
sg13
(g21
g15
Ntp189
Rp190
(dp191
g25
F0.6106821225815472
sg26
Nsg27
I4
sg28
F0.610682122581583
sg29
F0.1
sg30
(isrc.util
Loc
p192
(dp193
g33
F275.61106856066874
sg30
(F4178.017756406719
F275.61106856066874
tp194
sg35
F4178.017756406719
sbsg36
I0
sg37
(isrc.util
Loc
p195
(dp196
g33
F275.0176377748294
sg30
(F4178.161883285748
F275.0176377748294
tp197
sg35
F4178.161883285748
sbsg41
(dp198
g17
I0
sg44
I0
sg59
I0
ssg72
Nsg73
(lp199
g13
(g75
g15
Ntp200
Rp201
(dp202
g79
g190
sg80
I0
sbasg81
F13.0
sg53
F-1.8090537735130725
sg82
I0
sg83
(lp203
sg85
g86
(I867
I44
I27
I27
tp204
Rp205
sg89
Nsg90
g93
sg94
I1
sg95
F1000000000000000.0
sg96
I1
sg97
(lp206
sbI0
sg13
(g21
g15
Ntp207
Rp208
(dp209
g25
F0.7880047318786679
sg26
Nsg27
I4
sg28
F0.7880047318788531
sg29
F0.1
sg30
(isrc.util
Loc
p210
(dp211
g33
F813.8666164701315
sg30
(F3743.205689959544
F813.8666164701315
tp212
sg35
F3743.205689959544
sbsg36
I0
sg37
(isrc.util
Loc
p213
(dp214
g33
F813.5982836807051
sg30
(F3743.9466008661866
F813.5982836807051
tp215
sg35
F3743.9466008661866
sbsg41
(dp216
g17
I0
sg44
I0
sg59
I0
ssg72
Nsg73
(lp217
g13
(g75
g15
Ntp218
Rp219
(dp220
g79
g208
sg80
I0
sbasg81
F15.0
sg53
F-2.794120845490157
sg82
I0
sg83
(lp221
sg85
g86
(I775
I157
I27
I27
tp222
Rp223
sg89
Nsg90
g93
sg94
I1
sg95
F1000000000000000.0
sg96
I1
sg97
(lp224
sbI0
sg13
(g21
g15
Ntp225
Rp226
(dp227
g25
F0.7880764919444281
sg26
Nsg27
I4
sg28
F0.7880764919443932
sg29
F0.1
sg30
(isrc.util
Loc
p228
(dp229
g33
F538.5412991261418
sg30
(F4558.035836193467
F538.5412991261418
tp230
sg35
F4558.035836193467
sbsg36
I0
sg37
(isrc.util
Loc
p231
(dp232
g33
F537.7643685040364
sg30
(F4558.167909527605
F537.7643685040364
tp233
sg35
F4558.167909527605
sbsg41
(dp234
g17
I0
sg44
I0
sg59
I0
ssg72
Nsg73
(lp235
g13
(g75
g15
Ntp236
Rp237
(dp238
g79
g226
sg80
I0
sbasg81
F18.0
sg53
F-1.7391803897178837
sg82
I0
sg83
(lp239
sg85
g86
(I947
I99
I27
I27
tp240
Rp241
sg89
Nsg90
g93
sg94
I1
sg95
F1000000000000000.0
sg96
I1
sg97
(lp242
sbI0
sg13
(g21
g15
Ntp243
Rp244
(dp245
g29
F0.1
sg30
(isrc.util
Loc
p246
(dp247
g33
F627.9326296268213
sg30
(F3681.0012428422356
F627.9326296268213
tp248
sg35
F3681.0012428422356
sbsg53
F-3.1069414734437886
sg36
I0
sg37
(isrc.util
Loc
p249
(dp250
g33
F627.9052405140628
sg30
(F3681.7913501254634
F627.9052405140628
tp251
sg35
F3681.7913501254634
sbsg41
(dp252
g17
I0
sg44
I0
sg59
I0
ssg95
F1000000000000000.0
sg26
Nsg94
I1
sg82
I0
sg83
(lp253
sg72
Nsg73
(lp254
g13
(g75
g15
Ntp255
Rp256
(dp257
g79
g244
sbasg96
I1
sg89
Nsg97
(lp258
sg90
g93
sg28
F0.7905818632549462
sg25
F0.7905818632547491
sg85
g86
(I762
I118
I27
I27
tp259
Rp260
sg27
I4
sbI0
sg13
(g21
g15
Ntp261
Rp262
(dp263
g25
F0.15782536827408006
sg26
Nsg27
I4
sg28
F0.15782536827393848
sg29
F0.1
sg30
(isrc.util
Loc
p264
(dp265
g33
F275.09961815213416
sg30
(F4667.266233582175
F275.09961815213416
tp266
sg35
F4667.266233582175
sbsg36
I0
sg37
(isrc.util
Loc
p267
(dp268
g33
F275.1746054813201
sg30
(F4667.127360448228
F275.1746054813201
tp269
sg35
F4667.127360448228
sbsg41
(dp270
g17
I0
sg44
I0
sg59
I0
ssg72
Nsg73
(lp271
g13
(g75
g15
Ntp272
Rp273
(dp274
g79
g262
sg80
I0
sbasg81
F13.0
sg53
F0.49511005316724976
sg82
I0
sg83
(lp275
sg85
g86
(I970
I44
I27
I27
tp276
Rp277
sg89
Nsg90
g93
sg94
I1
sg95
F1000000000000000.0
sg96
I1
sg97
(lp278
sbI0
sg13
(g21
g15
Ntp279
Rp280
(dp281
g29
F0.1
sg30
(isrc.util
Loc
p282
(dp283
g33
F261.1165867365804
sg30
(F4794.2824834858275
F261.1165867365804
tp284
sg35
F4794.2824834858275
sbsg53
F0.3967541155731992
sg36
I0
sg37
(isrc.util
Loc
p285
(dp286
g33
F261.21409819259924
sg30
(F4794.04974388811
F261.21409819259924
tp287
sg35
F4794.04974388811
sbsg41
(dp288
g17
I0
sg44
I0
sg59
I0
ssg95
F1000000000000000.0
sg26
Nsg94
I1
sg82
I0
sg83
(lp289
sg72
Nsg73
(lp290
g13
(g75
g15
Ntp291
Rp292
(dp293
g79
g280
sg80
I0
sbasg96
I1
sg89
Nsg97
(lp294
sg90
g93
sg28
F0.2523414440804095
sg25
F0.25234144408021325
sg85
g86
(I997
I41
I27
I27
tp295
Rp296
sg27
I4
sbI0
sg13
(g21
g15
Ntp297
Rp298
(dp299
g29
F0.1
sg30
(isrc.util
Loc
p300
(dp301
g33
F789.218626911234
sg30
(F4856.731466249764
F789.218626911234
tp302
sg35
F4856.731466249764
sbsg53
F2.9337910802619587
sg36
I0
sg37
(isrc.util
Loc
p303
(dp304
g33
F789.3745569275428
sg30
(F4857.471013576678
F789.3745569275428
tp305
sg35
F4857.471013576678
sbsg41
(dp306
g17
I0
sg44
I0
sg59
I0
ssg95
F1000000000000000.0
sg26
Nsg94
I1
sg82
I0
sg83
(lp307
sg72
Nsg73
(lp308
g13
(g75
g15
Ntp309
Rp310
(dp311
g79
g298
sg80
I0
sbasg96
I1
sg89
Nsg97
(lp312
sg90
g93
sg28
F0.7558071306443911
sg25
F0.7558071306439592
sg85
g86
(I1010
I152
I27
I27
tp313
Rp314
sg27
I4
sbI0
sg13
(g21
g15
Ntp315
Rp316
(dp317
g29
F0.1
sg30
(isrc.util
Loc
p318
(dp319
g33
F630.4592178265673
sg30
(F4390.288719405236
F630.4592178265673
tp320
sg35
F4390.288719405236
sbsg53
F-1.6404215393493644
sg36
I0
sg37
(isrc.util
Loc
p321
(dp322
g33
F629.913663574922
sg30
(F4390.326765233722
F629.913663574922
tp323
sg35
F4390.326765233722
sbsg41
(dp324
g17
I0
sg44
I0
sg59
I0
ssg95
F1000000000000000.0
sg26
Nsg94
I1
sg82
I0
sg83
(lp325
sg72
Nsg73
(lp326
g13
(g75
g15
Ntp327
Rp328
(dp329
g79
g316
sbasg96
I1
sg89
Nsg97
(lp330
sg90
g93
sg28
F0.5468792614036174
sg25
F0.5468792614036327
sg85
g86
(I912
I118
I27
I27
tp331
Rp332
sg27
I4
sbI0
sg13
(g21
g15
Ntp333
Rp334
(dp335
g25
F0.7903579161520611
sg26
Nsg27
I4
sg28
F0.7903579161521588
sg29
F0.1
sg30
(isrc.util
Loc
p336
(dp337
g33
F256.00127809372464
sg30
(F3906.1676254505373
F256.00127809372464
tp338
sg35
F3906.1676254505373
sbsg36
I0
sg37
(isrc.util
Loc
p339
(dp340
g33
F256.00127809372464
sg30
(F3906.9579833666894
F256.00127809372464
tp341
sg35
F3906.9579833666894
sbsg41
(dp342
g17
I0
sg44
I0
sg59
I0
ssg72
Nsg73
(lp343
g13
(g75
g15
Ntp344
Rp345
(dp346
g79
g334
sg80
I0
sbasg81
F19.0
sg53
F3.1485423021019767
sg82
I0
sg83
(lp347
sg85
g86
(I809
I40
I27
I27
tp348
Rp349
sg89
Nsg90
g93
sg94
I1
sg95
F1000000000000000.0
sg96
I1
sg97
(lp350
sbI0
sg13
(g21
g15
Ntp351
Rp352
(dp353
g25
F0.7895578979377208
sg26
Nsg27
I4
sg28
F0.7895578979375615
sg29
F0.1
sg30
(isrc.util
Loc
p354
(dp355
g33
F456.4558363686027
sg30
(F3768.5318410654136
F456.4558363686027
tp356
sg35
F3768.5318410654136
sbsg36
I0
sg37
(isrc.util
Loc
p357
(dp358
g33
F456.5185773803177
sg30
(F3769.318902206396
F456.5185773803177
tp359
sg35
F3769.318902206396
sbsg41
(dp360
g17
I0
sg44
I0
sg59
I0
ssg72
Nsg73
(lp361
g13
(g75
g15
Ntp362
Rp363
(dp364
g79
g352
sg80
I0
sbasg81
F16.0
sg53
F3.0620453153858525
sg82
I0
sg83
(lp365
sg85
g86
(I780
I82
I27
I27
tp366
Rp367
sg89
Nsg90
g93
sg94
I1
sg95
F1000000000000000.0
sg96
I1
sg97
(lp368
sbI0
sg13
(g21
g15
Ntp369
Rp370
(dp371
g29
F0.1
sg30
(isrc.util
Loc
p372
(dp373
g33
F840.3272776230638
sg30
(F4589.441079736249
F840.3272776230638
tp374
sg35
F4589.441079736249
sbsg53
F-0.8304396886766497
sg36
I0
sg37
(isrc.util
Loc
p375
(dp376
g33
F839.8217328892641
sg30
(F4588.979141407911
F839.8217328892641
tp377
sg35
F4588.979141407911
sbsg41
(dp378
g17
I0
sg44
I0
sg59
I0
ssg95
F1000000000000000.0
sg26
Nsg94
I1
sg82
I0
sg83
(lp379
sg72
Nsg73
(lp380
g13
(g75
g15
Ntp381
Rp382
(dp383
g79
g370
sbasg96
I1
sg89
Nsg97
(lp384
sg90
g93
sg28
F0.6848083652092379
sg25
F0.6848083652089981
sg85
g86
(I954
I163
I27
I27
tp385
Rp386
sg27
I4
sbI0
sg13
(g21
g15
Ntp387
Rp388
(dp389
g25
F0.7872086627538097
sg26
Nsg27
I4
sg28
F0.7872086627539803
sg29
F0.1
sg30
(isrc.util
Loc
p390
(dp391
g33
F323.5321030339696
sg30
(F3828.519927441904
F323.5321030339696
tp392
sg35
F3828.519927441904
sbsg36
I0
sg37
(isrc.util
Loc
p393
(dp394
g33
F323.57012910971724
sg30
(F3829.306217144417
F323.57012910971724
tp395
sg35
F3829.306217144417
sbsg41
(dp396
g17
I0
sg44
I0
sg59
I0
ssg72
Nsg73
(lp397
g13
(g75
g15
Ntp398
Rp399
(dp400
g79
g388
sg80
I0
sbasg81
F16.0
sg53
F3.0932688974667615
sg82
I0
sg83
(lp401
sg85
g86
(I793
I54
I27
I27
tp402
Rp403
sg89
Nsg90
g93
sg94
I1
sg95
F1000000000000000.0
sg96
I1
sg97
(lp404
sbI0
sg13
(g21
g15
Ntp405
Rp406
(dp407
g25
F0.2206126768613544
sg26
Nsg27
I4
sg28
F0.22061267686142785
sg29
F0.1
sg30
(isrc.util
Loc
p408
(dp409
g33
F552.6966304930824
sg30
(F4210.47043330457
F552.6966304930824
tp410
sg35
F4210.47043330457
sbsg36
I0
sg37
(isrc.util
Loc
p411
(dp412
g33
F552.5079858258886
sg30
(F4210.5848148709665
F552.5079858258886
tp413
sg35
F4210.5848148709665
sbsg41
(dp414
g17
I0
sg44
I0
sg59
I0
ssg72
Nsg73
(lp415
g13
(g75
g15
Ntp416
Rp417
(dp418
g79
g406
sg80
I0
sbasg81
F11.0
sg53
F-2.11585974489809
sg82
I0
sg83
(lp419
sg85
g86
(I874
I102
I27
I27
tp420
Rp421
sg89
Nsg90
g93
sg94
I1
sg95
F1000000000000000.0
sg96
I1
sg97
(lp422
sbI0
sg13
(g21
g15
Ntp423
Rp424
(dp425
g25
F0.7874284552288384
sg26
Nsg27
I4
sg28
F0.787428455228814
sg29
F0.1
sg30
(isrc.util
Loc
p426
(dp427
g33
F860.4050582871806
sg30
(F4144.155963289831
F860.4050582871806
tp428
sg35
F4144.155963289831
sbsg36
I0
sg37
(isrc.util
Loc
p429
(dp430
g33
F859.7179106656671
sg30
(F4144.540504208788
F859.7179106656671
tp431
sg35
F4144.540504208788
sbsg41
(dp432
g17
I0
sg44
I0
sg59
I0
ssg72
Nsg73
(lp433
g13
(g75
g15
Ntp434
Rp435
(dp436
g79
g424
sg80
I0
sbasg81
F5.0
sg53
F-2.0809946189854633
sg82
I0
sg83
(lp437
sg85
g86
(I860
I167
I27
I27
tp438
Rp439
sg89
Nsg90
g93
sg94
I1
sg95
F1000000000000000.0
sg96
I1
sg97
(lp440
sbI0
sg13
(g21
g15
Ntp441
Rp442
(dp443
g29
F0.1
sg30
(isrc.util
Loc
p444
(dp445
g33
F1190.6173105053997
sg30
(F4226.115476714107
F1190.6173105053997
tp446
sg35
F4226.115476714107
sbsg53
F-1.6876289682335737
sg36
I0
sg37
(isrc.util
Loc
p447
(dp448
g33
F1189.8364533570355
sg30
(F4226.207123686923
F1189.8364533570355
tp449
sg35
F4226.207123686923
sbsg41
(dp450
g17
I0
sg44
I0
sg59
I0
ssg95
F1000000000000000.0
sg26
Nsg94
I1
sg82
I0
sg83
(lp451
sg72
Nsg73
(lp452
g13
(g75
g15
Ntp453
Rp454
(dp455
g79
g442
sbasg96
I1
sg89
Nsg97
(lp456
sg90
g93
sg28
F0.7862169253951686
sg25
F0.7862169253952361
sg85
g86
(I877
I237
I27
I27
tp457
Rp458
sg27
I4
sbI0
sg13
(g21
g15
Ntp459
Rp460
(dp461
g29
F0.1
sg30
(isrc.util
Loc
p462
(dp463
g33
F256.0524442471202
sg30
(F4863.996514758581
F256.0524442471202
tp464
sg35
F4863.996514758581
sbsg53
F0.651345117126166
sg36
I0
sg37
g462
sg41
(dp465
g17
I0
sg44
I0
sg59
I0
ssg95
F1000000000000000.0
sg26
Nsg94
I1
sg82
I0
sg83
(lp466
sg72
Nsg73
(lp467
g13
(g75
g15
Ntp468
Rp469
(dp470
g79
g460
sbasg96
I1
sg89
Nsg97
(lp471
sg90
g93
sg28
F1.392299069710699
sg25
F0.35322210982297975
sg85
g86
(I1011
I40
I27
I27
tp472
Rp473
sg27
I4
sbI0
sg13
(g21
g15
Ntp474
Rp475
(dp476
g25
F0.793695236714195
sg26
Nsg27
I4
sg28
F0.7936952367145825
sg29
F0.1
sg30
(isrc.util
Loc
p477
(dp478
g33
F527.3961284529264
sg30
(F4830.013303110227
F527.3961284529264
tp479
sg35
F4830.013303110227
sbsg36
I0
sg37
(isrc.util
Loc
p480
(dp481
g33
F527.0504855225889
sg30
(F4829.298822114335
F527.0504855225889
tp482
sg35
F4829.298822114335
sbsg41
(dp483
g17
I0
sg44
I0
sg59
I0
ssg72
Nsg73
(lp484
g13
(g75
g15
Ntp485
Rp486
(dp487
g79
g475
sg80
I0
sbasg81
F10.0
sg53
F-0.4505777621998813
sg82
I0
sg83
(lp488
sg85
g86
(I1004
I97
I27
I27
tp489
Rp490
sg89
Nsg90
g93
sg94
I1
sg95
F1000000000000000.0
sg96
I1
sg97
(lp491
sbI0
sg13
(g21
g15
Ntp492
Rp493
(dp494
g25
F0.7438789954037596
sg26
Nsg27
I4
sg28
F0.7438789954036471
sg29
F0.1
sg30
(isrc.util
Loc
p495
(dp496
g33
F462.3492505677779
sg30
(F4417.6074839926705
F462.3492505677779
tp497
sg35
F4417.6074839926705
sbsg36
I0
sg37
(isrc.util
Loc
p498
(dp499
g33
F461.62992820131217
sg30
(F4417.417928478625
F461.62992820131217
tp500
sg35
F4417.417928478625
sbsg41
(dp501
g17
I0
sg44
I0
sg59
I0
ssg72
Nsg73
(lp502
g13
(g75
g15
Ntp503
Rp504
(dp505
g79
g493
sg80
I0
sbasg81
F15.0
sg53
F-1.313134399897428
sg82
I0
sg83
(lp506
sg85
g86
(I917
I83
I27
I27
tp507
Rp508
sg89
Nsg90
g93
sg94
I1
sg95
F1000000000000000.0
sg96
I1
sg97
(lp509
sbI0
sg13
(g21
g15
Ntp510
Rp511
(dp512
g25
F0.7912794999503878
sg26
Nsg27
I4
sg28
F0.7912794999503083
sg29
F0.1
sg30
(isrc.util
Loc
p513
(dp514
g33
F426.94118333824616
sg30
(F4594.065424452461
F426.94118333824616
tp515
sg35
F4594.065424452461
sbsg36
I0
sg37
(isrc.util
Loc
p516
(dp517
g33
F426.27366244919546
sg30
(F4594.490323393061
F426.27366244919546
tp518
sg35
F4594.490323393061
sbsg41
(dp519
g17
I0
sg44
I0
sg59
I0
ssg72
Nsg73
(lp520
g13
(g75
g15
Ntp521
Rp522
(dp523
g79
g511
sg80
I0
sbasg81
F12.0
sg53
F-2.137645939834579
sg82
I0
sg83
(lp524
sg85
g86
(I955
I76
I27
I27
tp525
Rp526
sg89
Nsg90
g93
sg94
I1
sg95
F1000000000000000.0
sg96
I1
sg97
(lp527
sbI0
sg48
I0
sg13
(g21
g15
Ntp528
Rp529
(dp530
g25
F0.7987240138587014
sg26
Nsg27
I4
sg28
F0.7987240138587591
sg29
F0.1
sg30
(isrc.util
Loc
p531
(dp532
g33
F1129.3453112216296
sg30
(F4510.004881680043
F1129.3453112216296
tp533
sg35
F4510.004881680043
sbsg36
I0
sg37
(isrc.util
Loc
p534
(dp535
g33
F1128.5952079580593
sg30
(F4509.7304638520945
F1128.5952079580593
tp536
sg35
F4509.7304638520945
sbsg41
(dp537
g17
I0
sg44
I0
sg59
I0
ssg72
Nsg73
(lp538
g13
(g75
g15
Ntp539
Rp540
(dp541
g79
g529
sg80
I0
sbasg81
F4.0
sg53
F-1.2200803659764756
sg82
I0
sg83
(lp542
sg85
g86
(I937
I224
I27
I27
tp543
Rp544
sg89
Nsg90
g93
sg94
I1
sg95
F1000000000000000.0
sg96
I1
sg97
(lp545
sbI0
sg13
(g21
g15
Ntp546
Rp547
(dp548
g29
F0.1
sg30
(isrc.util
Loc
p549
(dp550
g33
F1057.1487687817944
sg30
(F3977.990101133832
F1057.1487687817944
tp551
sg35
F3977.990101133832
sbsg53
F-2.177878685893416
sg36
I0
sg37
(isrc.util
Loc
p552
(dp553
g33
F1056.5025791004373
sg30
(F3978.4389346745706
F1056.5025791004373
tp554
sg35
F3978.4389346745706
sbsg41
(dp555
g17
I0
sg44
I0
sg59
I0
ssg95
F1000000000000000.0
sg26
Nsg94
I1
sg82
I0
sg83
(lp556
sg72
Nsg73
(lp557
g13
(g75
g15
Ntp558
Rp559
(dp560
g79
g547
sbasg96
I1
sg89
Nsg97
(lp561
sg90
g93
sg28
F0.7867735707203947
sg25
F0.7867735707205529
sg85
g86
(I825
I208
I27
I27
tp562
Rp563
sg27
I4
sbI0
sg13
(g21
g15
Ntp564
Rp565
(dp566
g25
F0.6052627621826213
sg26
Nsg27
I4
sg28
F0.6052627621830494
sg29
F0.1
sg30
(isrc.util
Loc
p567
(dp568
g33
F258.35724157463045
sg30
(F4444.938184682029
F258.35724157463045
tp569
sg35
F4444.938184682029
sbsg36
I0
sg37
(isrc.util
Loc
p570
(dp571
g33
F258.4017609913233
sg30
(F4444.334561427985
F258.4017609913233
tp572
sg35
F4444.334561427985
sbsg41
(dp573
g17
I0
sg44
I0
sg59
I0
ssg72
Nsg73
(lp574
g13
(g75
g15
Ntp575
Rp576
(dp577
g79
g565
sg80
I0
sbasg81
F17.0
sg53
F0.07362035213358556
sg82
I0
sg83
(lp578
sg85
g86
(I923
I40
I27
I27
tp579
Rp580
sg89
Nsg90
g93
sg94
I1
sg95
F1000000000000000.0
sg96
I1
sg97
(lp581
sbI0
sg13
(g21
g15
Ntp582
Rp583
(dp584
g29
F0.1
sg30
(isrc.util
Loc
p585
(dp586
g33
F938.2025729378659
sg30
(F4390.677803452204
F938.2025729378659
tp587
sg35
F4390.677803452204
sbsg53
F-1.418911330705198
sg36
I0
sg37
(isrc.util
Loc
p588
(dp589
g33
F937.5977673867791
sg30
(F4390.585229602579
F937.5977673867791
tp590
sg35
F4390.585229602579
sbsg41
(dp591
g17
I0
sg44
I0
sg59
I0
ssg95
F1000000000000000.0
sg26
Nsg94
I1
sg82
I0
sg83
(lp592
sg72
Nsg73
(lp593
g13
(g75
g15
Ntp594
Rp595
(dp596
g79
g583
sg80
I0
sbasg96
I1
sg89
Nsg97
(lp597
sg90
g93
sg28
F0.6118493869081273
sg25
F0.6118493869081004
sg85
g86
(I912
I183
I27
I27
tp598
Rp599
sg27
I4
sbI0
sg13
(g21
g15
Ntp600
Rp601
(dp602
g25
F0.7858200879932994
sg26
Nsg27
I4
sg28
F0.7858200879932843
sg29
F0.1
sg30
(isrc.util
Loc
p603
(dp604
g33
F790.2107684309395
sg30
(F3965.366659744368
F790.2107684309395
tp605
sg35
F3965.366659744368
sbsg36
I0
sg37
(isrc.util
Loc
p606
(dp607
g33
F789.7032507813736
sg30
(F3965.9666089472785
F789.7032507813736
tp608
sg35
F3965.9666089472785
sbsg41
(dp609
g17
I0
sg44
I0
sg59
I0
ssg72
Nsg73
(lp610
g13
(g75
g15
Ntp611
Rp612
(dp613
g79
g601
sg80
I0
sbasg81
F5.0
sg53
F-2.4394636389337414
sg82
I0
sg83
(lp614
sg85
g86
(I822
I152
I27
I27
tp615
Rp616
sg89
Nsg90
g93
sg94
I1
sg95
F1000000000000000.0
sg96
I1
sg97
(lp617
sbI0
sg13
(g21
g15
Ntp618
Rp619
(dp620
g29
F0.1
sg30
(isrc.util
Loc
p621
(dp622
g33
F913.1017421311808
sg30
(F4747.238422544604
F913.1017421311808
tp623
sg35
F4747.238422544604
sbsg53
F-0.8037623436992537
sg36
I0
sg37
(isrc.util
Loc
p624
(dp625
g33
F912.5280391470036
sg30
(F4746.685413038052
F912.5280391470036
tp626
sg35
F4746.685413038052
sbsg41
(dp627
g17
I0
sg44
I0
sg59
I0
ssg95
F1000000000000000.0
sg26
Nsg94
I1
sg82
I0
sg83
(lp628
sg72
Nsg73
(lp629
g13
(g75
g15
Ntp630
Rp631
(dp632
g79
g619
sg80
I0
sbasg96
I1
sg89
Nsg97
(lp633
sg90
g93
sg28
F0.7968404033376704
sg25
F0.7968404033375345
sg85
g86
(I987
I178
I27
I27
tp634
Rp635
sg27
I4
sbI0
sg13
(g21
g15
Ntp636
Rp637
(dp638
g29
F0.1
sg30
(isrc.util
Loc
p639
(dp640
g33
F608.8162889166558
sg30
(F3888.6910340829627
F608.8162889166558
tp641
sg35
F3888.6910340829627
sbsg53
F-2.9936141573138975
sg36
I0
sg37
(isrc.util
Loc
p642
(dp643
g33
F608.7000324088289
sg30
(F3889.470922299668
F608.7000324088289
tp644
sg35
F3889.470922299668
sbsg41
(dp645
g17
I0
sg44
I0
sg59
I0
ssg95
F1000000000000000.0
sg26
Nsg94
I1
sg82
I0
sg83
(lp646
sg72
Nsg73
(lp647
g13
(g75
g15
Ntp648
Rp649
(dp650
g79
g637
sbasg96
I1
sg89
Nsg97
(lp651
sg90
g93
sg28
F0.7885056792234345
sg25
F0.7885056792236446
sg85
g86
(I806
I114
I27
I27
tp652
Rp653
sg27
I4
sbI0
sg13
(g21
g15
Ntp654
Rp655
(dp656
g29
F0.1
sg30
(isrc.util
Loc
p657
(dp658
g33
F457.8085568997925
sg30
(F3964.7976771721123
F457.8085568997925
tp659
sg35
F3964.7976771721123
sbsg53
F-3.0440013287272656
sg36
I0
sg37
(isrc.util
Loc
p660
(dp661
g33
F457.7316457189202
sg30
(F3965.583268071052
F457.7316457189202
tp662
sg35
F3965.583268071052
sbsg41
(dp663
g17
I0
sg44
I0
sg59
I0
ssg95
F1000000000000000.0
sg26
Nsg94
I1
sg82
I0
sg83
(lp664
sg72
Nsg73
(lp665
g13
(g75
g15
Ntp666
Rp667
(dp668
g79
g655
sbasg96
I1
sg89
Nsg97
(lp669
sg90
g93
sg28
F0.7893468123958405
sg25
F0.7893468123960271
sg85
g86
(I822
I82
I27
I27
tp670
Rp671
sg27
I4
sbI0
sg13
(g21
g15
Ntp672
Rp673
(dp674
g25
F0.7922132598690487
sg26
Nsg27
I4
sg28
F0.7922132598692503
sg29
F0.1
sg30
(isrc.util
Loc
p675
(dp676
g33
F1052.7059261964002
sg30
(F4664.725118416305
F1052.7059261964002
tp677
sg35
F4664.725118416305
sbsg36
I0
sg37
(isrc.util
Loc
p678
(dp679
g33
F1052.0594924444983
sg30
(F4664.267160717915
F1052.0594924444983
tp680
sg35
F4664.267160717915
sbsg41
(dp681
g17
I0
sg44
I0
sg59
I0
ssg72
Nsg73
(lp682
g13
(g75
g15
Ntp683
Rp684
(dp685
g79
g673
sg80
I0
sbasg81
F13.0
sg53
F-0.9544302477510971
sg82
I0
sg83
(lp686
sg85
g86
(I969
I208
I27
I27
tp687
Rp688
sg89
Nsg90
g93
sg94
I1
sg95
F1000000000000000.0
sg96
I1
sg97
(lp689
sbI0
sg13
(g21
g15
Ntp690
Rp691
(dp692
g29
F0.1
sg30
(isrc.util
Loc
p693
(dp694
g33
F624.7068177766749
sg30
(F4043.6018739705078
F624.7068177766749
tp695
sg35
F4043.6018739705078
sbsg53
F-2.394920079085026
sg36
I0
sg37
(isrc.util
Loc
p696
(dp697
g33
F624.3641626907132
sg30
(F4043.9721516055597
F624.3641626907132
tp698
sg35
F4043.9721516055597
sbsg41
(dp699
g17
I0
sg44
I0
sg59
I0
ssg95
F1000000000000000.0
sg26
Nsg94
I1
sg82
I0
sg83
(lp700
sg72
Nsg73
(lp701
g13
(g75
g15
Ntp702
Rp703
(dp704
g79
g691
sbasg96
I1
sg89
Nsg97
(lp705
sg90
g93
sg28
F0.5044978047079937
sg25
F0.5044978047078993
sg85
g86
(I838
I117
I27
I27
tp706
Rp707
sg27
I4
sbI0
sg13
(g21
g15
Ntp708
Rp709
(dp710
g25
F0.7948105177193534
sg26
Nsg27
I4
sg28
F0.7948105177192387
sg29
F0.1
sg30
(isrc.util
Loc
p711
(dp712
g33
F594.0752985085545
sg30
(F4722.501423690483
F594.0752985085545
tp713
sg35
F4722.501423690483
sbsg36
I0
sg37
(isrc.util
Loc
p714
(dp715
g33
F593.319513313913
sg30
(F4722.255430807175
F593.319513313913
tp716
sg35
F4722.255430807175
sbsg41
(dp717
g17
I0
sg44
I0
sg59
I0
ssg72
Nsg73
(lp718
g13
(g75
g15
Ntp719
Rp720
(dp721
g79
g709
sg80
I0
sbasg81
F15.0
sg53
F-1.2561304433190974
sg82
I0
sg83
(lp722
sg85
g86
(I982
I111
I27
I27
tp723
Rp724
sg89
Nsg90
g93
sg94
I1
sg95
F1000000000000000.0
sg96
I1
sg97
(lp725
sbI0
sg13
(g21
g15
Ntp726
Rp727
(dp728
g25
F0.6067247652909826
sg26
Nsg27
I4
sg28
F0.6067247652907518
sg29
F0.1
sg30
(isrc.util
Loc
p729
(dp730
g33
F623.5497372013033
sg30
(F4856.880472392921
F623.5497372013033
tp731
sg35
F4856.880472392921
sbsg36
I0
sg37
(isrc.util
Loc
p732
(dp733
g33
F623.9955075598131
sg30
(F4857.292059234658
F623.9955075598131
tp734
sg35
F4857.292059234658
sbsg41
(dp735
g17
I0
sg44
I0
sg59
I0
ssg72
Nsg73
(lp736
g13
(g75
g15
Ntp737
Rp738
(dp739
g79
g727
sg80
I0
sbasg81
F11.0
sg53
F2.3163447981441725
sg82
I0
sg83
(lp740
sg85
g86
(I1010
I117
I27
I27
tp741
Rp742
sg89
Nsg90
g93
sg94
I1
sg95
F1000000000000000.0
sg96
I1
sg97
(lp743
sbI0
sg13
(g21
g15
Ntp744
Rp745
(dp746
g29
F0.1
sg30
(isrc.util
Loc
p747
(dp748
g33
F1078.0132852142428
sg30
(F4348.3777664819645
F1078.0132852142428
tp749
sg35
F4348.3777664819645
sbsg53
F-1.4398519471293352
sg36
I0
sg37
(isrc.util
Loc
p750
(dp751
g33
F1077.2223549670605
sg30
(F4348.2736025833865
F1077.2223549670605
tp752
sg35
F4348.2736025833865
sbsg41
(dp753
g17
I0
sg44
I0
sg59
I0
ssg95
F1000000000000000.0
sg26
Nsg94
I1
sg82
I0
sg83
(lp754
sg72
Nsg73
(lp755
g13
(g75
g15
Ntp756
Rp757
(dp758
g79
g745
sbasg96
I1
sg89
Nsg97
(lp759
sg90
g93
sg28
F0.7977598471188744
sg25
F0.7977598471187414
sg85
g86
(I903
I213
I27
I27
tp760
Rp761
sg27
I4
sbI0
sg13
(g21
g15
Ntp762
Rp763
(dp764
g25
F0.10044396663579391
sg26
Nsg27
I4
sg28
F0.10044396663552677
sg29
F0.1
sg30
(isrc.util
Loc
p765
(dp766
g33
F256.0011757193215
sg30
(F4540.5448615842515
F256.0011757193215
tp767
sg35
F4540.5448615842515
sbsg36
I0
sg37
(isrc.util
Loc
p768
(dp769
g33
F256.0011757193215
sg30
(F4540.645305550887
F256.0011757193215
tp770
sg35
F4540.645305550887
sbsg41
(dp771
g17
I0
sg44
I0
sg59
I0
ssg72
Nsg73
(lp772
g13
(g75
g15
Ntp773
Rp774
(dp775
g79
g763
sg80
I0
sbasg81
F15.0
sg53
F3.1492327871685712
sg82
I0
sg83
(lp776
sg85
g86
(I943
I40
I27
I27
tp777
Rp778
sg89
Nsg90
g93
sg94
I1
sg95
F1000000000000000.0
sg96
I1
sg97
(lp779
sbI0
sg13
(g21
g15
Ntp780
Rp781
(dp782
g29
F0.1
sg30
(isrc.util
Loc
p783
(dp784
g33
F417.2559293873754
sg30
(F4704.633422899258
F417.2559293873754
tp785
sg35
F4704.633422899258
sbsg53
F-1.4773566454198201
sg36
I0
sg37
(isrc.util
Loc
p786
(dp787
g33
F416.46334127315384
sg30
(F4704.559147426735
F416.46334127315384
tp788
sg35
F4704.559147426735
sbsg41
(dp789
g17
I0
sg44
I0
sg59
I0
ssg95
F1000000000000000.0
sg26
Nsg94
I1
sg82
I0
sg83
(lp790
sg72
Nsg73
(lp791
g13
(g75
g15
Ntp792
Rp793
(dp794
g79
g781
sbasg96
I1
sg89
Nsg97
(lp795
sg90
g93
sg28
F0.7960607794783848
sg25
F0.7960607794784335
sg85
g86
(I978
I74
I27
I27
tp796
Rp797
sg27
I4
sbI0
sg23
I0
sg13
(g21
g15
Ntp798
Rp799
(dp800
g29
F0.1
sg30
(isrc.util
Loc
p801
(dp802
g33
F683.058736326491
sg30
(F4634.771067898782
F683.058736326491
tp803
sg35
F4634.771067898782
sbsg53
F-0.7839244573791816
sg36
I0
sg37
(isrc.util
Loc
p804
(dp805
g33
F682.5119874829028
sg30
(F4634.222705181528
F682.5119874829028
tp806
sg35
F4634.222705181528
sbsg41
(dp807
g17
I0
sg44
I0
sg59
I0
ssg95
F1000000000000000.0
sg26
Nsg94
I1
sg82
I0
sg83
(lp808
sg72
Nsg73
(lp809
g13
(g75
g15
Ntp810
Rp811
(dp812
g79
g799
sg80
I0
sbasg96
I1
sg89
Nsg97
(lp813
sg90
g93
sg28
F0.7743616517105744
sg25
F0.7743616517104102
sg85
g86
(I963
I130
I27
I27
tp814
Rp815
sg27
I4
sbI0
ssS'lostsprites'
p816
(lp817
sbI0
ssg95
F1000000000000000.0
sg26
Nsg94
I1
sg82
I0
sg83
(lp818
sg72
Nsg73
(lp819
g13
(g75
g15
Ntp820
Rp821
(dp822
g79
g48
sbasg96
I1
sg89
Nsg97
(lp823
sg90
g93
sg28
F0.6547589722890725
sg25
F0.6547589722891346
sg85
g86
(I254
I104
I27
I27
tp824
Rp825
sg27
I4
sbI0
sg63
I0
sg388
I0
sg406
I0
sg424
I0
sg442
I0
sg565
I0
sg547
I0
sg475
I0
sg118
I0
sg316
I0
sg154
I0
sg460
I0
sg172
I0
sg529
I0
sg190
I0
sg709
I0
sg781
I0
sg370
I0
sg208
I0
sg226
I0
sg691
I0
sg583
I0
sg601
I0
sg619
I0
sg244
I0
sg493
I0
sg655
I0
sg100
I0
sg673
I0
sg262
I0
sg280
I0
sg727
I0
sg298
I0
sg745
I0
sg23
I0
sg511
I0
sg763
I0
sg334
I0
sg352
I0
sg799
I0
sg637
I0
sg136
I0
ssg816
(lp826
sbI0
sg59
I0
ssg72
Nsg73
(lp827
g13
(g75
g15
Ntp828
Rp829
(dp830
g79
g23
sg80
I0
sbasg81
F16.0
sg53
F-1.9163194887522683
sg82
I0
sg83
(lp831
sg85
g86
(I857
I206
I27
I27
tp832
Rp833
sg89
Nsg90
g93
sg94
I1
sg95
F1000000000000000.0
sg96
I1
sg97
(lp834
sbg86
(I857
I206
I27
I27
tp835
Rp836
sg48
g86
(I254
I104
I27
I27
tp837
Rp838
sg63
g86
(I898
I148
I27
I27
tp839
Rp840
sg388
g86
(I793
I54
I27
I27
tp841
Rp842
sg406
g86
(I874
I102
I27
I27
tp843
Rp844
sg424
g86
(I860
I167
I27
I27
tp845
Rp846
sg442
g86
(I877
I237
I27
I27
tp847
Rp848
sg460
g86
(I1011
I40
I27
I27
tp849
Rp850
sg547
g86
(I825
I208
I27
I27
tp851
Rp852
sg100
g86
(I898
I51
I27
I27
tp853
Rp854
sg118
g86
(I838
I43
I27
I27
tp855
Rp856
sg511
g86
(I955
I76
I27
I27
tp857
Rp858
sg565
g86
(I923
I40
I27
I27
tp859
Rp860
sg154
g86
(I794
I191
I27
I27
tp861
Rp862
sg172
g86
(I1011
I60
I27
I27
tp863
Rp864
sg529
g86
(I937
I224
I27
I27
tp865
Rp866
sg190
g86
(I867
I44
I27
I27
tp867
Rp868
sg691
g86
(I838
I117
I27
I27
tp869
Rp870
sg781
g86
(I978
I74
I27
I27
tp871
Rp872
sg763
g86
(I943
I40
I27
I27
tp873
Rp874
sg208
g86
(I775
I157
I27
I27
tp875
Rp876
sg226
g86
(I947
I99
I27
I27
tp877
Rp878
sg475
g86
(I1004
I97
I27
I27
tp879
Rp880
sg583
g86
(I912
I183
I27
I27
tp881
Rp882
sg601
g86
(I822
I152
I27
I27
tp883
Rp884
sg619
g86
(I987
I178
I27
I27
tp885
Rp886
sg244
g86
(I762
I118
I27
I27
tp887
Rp888
sg493
g86
(I917
I83
I27
I27
tp889
Rp890
sg655
g86
(I822
I82
I27
I27
tp891
Rp892
sg673
g86
(I969
I208
I27
I27
tp893
Rp894
sg262
g86
(I970
I44
I27
I27
tp895
Rp896
sg280
g86
(I997
I41
I27
I27
tp897
Rp898
sg727
g86
(I1010
I117
I27
I27
tp899
Rp900
sg298
g86
(I1010
I152
I27
I27
tp901
Rp902
sg745
g86
(I903
I213
I27
I27
tp903
Rp904
sg709
g86
(I982
I111
I27
I27
tp905
Rp906
sg799
g86
(I963
I130
I27
I27
tp907
Rp908
sg316
g86
(I912
I118
I27
I27
tp909
Rp910
sg637
g86
(I806
I114
I27
I27
tp911
Rp912
sg334
g86
(I809
I40
I27
I27
tp913
Rp914
sg352
g86
(I780
I82
I27
I27
tp915
Rp916
sg370
g86
(I954
I163
I27
I27
tp917
Rp918
sg136
g86
(I850
I73
I27
I27
tp919
Rp920
ssg816
(lp921
sbsS'tileNames'
p922
(lp923
S'tile0.png'
p924
aS'tile1.png'
p925
asS'fill'
p926
I0
sS'mobSize'
p927
(isrc.util
Loc
p928
(dp929
g33
I27
sg30
(I27
I27
tp930
sg35
I27
sbsS'scale'
p931
F0.2109375
sS'friendlies'
p932
g13
(g14
g15
Ntp933
Rp934
(dp935
g19
(dp936
sg816
(lp937
sbsS'filename'
p938
S'map.p'
p939
sS'width'
p940
I20
sS'enemies'
p941
g44
sS'neutrals'
p942
g13
(g14
g15
Ntp943
Rp944
(dp945
g19
(dp946
sg816
(lp947
sbsS'viewpoint'
p948
(F2560.0
F2560.0
tp949
sS'grid'
p950
(lp951
I1
aI1
aI1
aI1
aI1
aI1
aI1
aI1
aI1
aI1
aI1
aI1
aI1
aI1
aI1
aI1
aI1
aI1
aI1
aI1
aI1
aI0
aI0
aI0
aI0
aI0
aI0
aI0
aI0
aI0
aI0
aI0
aI0
aI0
aI0
aI0
aI0
aI0
aI0
aI1
aI1
aI0
aI0
aI0
aI0
aI0
aI0
aI0
aI0
aI0
aI0
aI0
aI0
aI0
aI0
aI0
aI0
aI0
aI0
aI1
aI1
aI0
aI0
aI0
aI0
aI0
aI0
aI0
aI0
aI0
aI0
aI0
aI0
aI0
aI0
aI0
aI0
aI0
aI0
aI1
aI1
aI0
aI0
aI0
aI0
aI0
aI0
aI0
aI0
aI0
aI0
aI0
aI0
aI0
aI0
aI0
aI0
aI0
aI0
aI1
aI1
aI0
aI0
aI0
aI0
aI0
aI0
aI0
aI0
aI0
aI0
aI0
aI0
aI0
aI0
aI0
aI0
aI0
aI0
aI1
aI1
aI0
aI0
aI0
aI0
aI0
aI0
aI0
aI0
aI0
aI0
aI0
aI0
aI0
aI0
aI0
aI0
aI0
aI0
aI1
aI1
aI0
aI0
aI0
aI0
aI0
aI0
aI0
aI0
aI0
aI0
aI0
aI0
aI0
aI0
aI0
aI0
aI0
aI0
aI1
aI1
aI0
aI0
aI0
aI0
aI0
aI0
aI0
aI0
aI0
aI0
aI0
aI0
aI0
aI0
aI0
aI0
aI0
aI0
aI1
aI1
aI0
aI0
aI0
aI0
aI0
aI0
aI0
aI0
aI0
aI0
aI0
aI0
aI0
aI0
aI0
aI0
aI0
aI0
aI1
aI1
aI0
aI0
aI0
aI0
aI0
aI0
aI0
aI0
aI0
aI0
aI0
aI0
aI0
aI0
aI0
aI0
aI0
aI0
aI1
aI1
aI0
aI0
aI0
aI0
aI0
aI0
aI0
aI0
aI0
aI0
aI0
aI0
aI0
aI0
aI0
aI0
aI0
aI0
aI1
aI1
aI0
aI0
aI0
aI0
aI0
aI0
aI0
aI0
aI0
aI0
aI0
aI0
aI0
aI0
aI0
aI0
aI0
aI0
aI1
aI1
aI0
aI0
aI0
aI0
aI0
aI0
aI0
aI0
aI0
aI0
aI0
aI0
aI0
aI0
aI0
aI0
aI0
aI0
aI1
aI1
aI0
aI0
aI0
aI0
aI0
aI0
aI0
aI0
aI0
aI0
aI0
aI0
aI0
aI0
aI0
aI0
aI0
aI0
aI1
aI1
aI0
aI0
aI0
aI0
aI0
aI0
aI0
aI0
aI0
aI0
aI0
aI0
aI0
aI0
aI0
aI0
aI0
aI0
aI1
aI1
aI0
aI0
aI0
aI0
aI0
aI0
aI0
aI0
aI0
aI0
aI0
aI0
aI0
aI0
aI0
aI0
aI0
aI0
aI1
aI1
aI0
aI0
aI0
aI0
aI0
aI0
aI0
aI0
aI0
aI0
aI0
aI0
aI0
aI0
aI0
aI0
aI0
aI0
aI1
aI1
aI0
aI0
aI0
aI0
aI0
aI0
aI0
aI0
aI0
aI0
aI0
aI0
aI0
aI0
aI0
aI0
aI0
aI0
aI1
aI1
aI1
aI1
aI1
aI1
aI1
aI1
aI1
aI1
aI1
aI1
aI1
aI1
aI1
aI1
aI1
aI1
aI1
aI1
aI1
asS'actorSize'
p952
I27
sS'tileSize'
p953
I54
sS'mobOffset'
p954
(isrc.util
Loc
p955
(dp956
g33
F-13.5
sg30
(F-13.5
F-13.5
tp957
sg35
F-13.5
sbsS'maxScale'
p958
F2.0
sS'mobs'
p959
g59
sS'minScale'
p960
F0.05
s.