(dp0
S'size'
p1
(I20
I20
tp2
sS'actorNames'
p3
(lp4
S'blip.png'
p5
aS'zombie.png'
p6
aS'soldier.png'
p7
aS'civilian.png'
p8
aS'corpse.png'
p9
asS'wall'
p10
I1
sS'height'
p11
I20
sS'visible'
p12
ccopy_reg
_reconstructor
p13
(cpygame.sprite
Group
p14
c__builtin__
object
p15
Ntp16
Rp17
(dp18
S'spritedict'
p19
(dp20
g13
(csrc.actor
Civilian
p21
g15
Ntp22
Rp23
(dp24
S'loc'
p25
(isrc.util
Loc
p26
(dp27
S'y'
p28
F1926.840766651129
sg25
(F4510.787940321555
F1926.840766651129
tp29
sS'x'
p30
F4510.787940321555
sbsS'direction'
p31
F-2.8272319955334435
sS'lastLoc'
p32
(isrc.util
Loc
p33
(dp34
g28
F1926.80991438592
sg25
(F4510.882828802789
F1926.80991438592
tp35
sg30
F4510.882828802789
sbsS'_Sprite__g'
p36
(dp37
g13
(g14
g15
Ntp38
Rp39
(dp40
g19
(dp41
g23
I0
sg13
(g21
g15
Ntp42
Rp43
(dp44
g25
(isrc.util
Loc
p45
(dp46
g28
F1988.6492975832612
sg25
(F4346.150131144394
F1988.6492975832612
tp47
sg30
F4346.150131144394
sbsg31
F-1.6625257178149913
sg32
(isrc.util
Loc
p48
(dp49
g28
F1987.4866608398902
sg25
(F4346.257079237016
F1987.4866608398902
tp50
sg30
F4346.257079237016
sbsg36
(dp51
g39
I0
sg17
I0
sg13
(g14
g15
Ntp52
Rp53
(dp54
g19
(dp55
g23
I0
sg43
I0
sg13
(g21
g15
Ntp56
Rp57
(dp58
g25
(isrc.util
Loc
p59
(dp60
g28
F1936.382583087822
sg25
(F4591.636524082675
F1936.382583087822
tp61
sg30
F4591.636524082675
sbsg31
F0.19864136377708044
sg32
(isrc.util
Loc
p62
(dp63
g28
F1936.4271255988178
sg25
(F4591.415245369125
F1936.4271255988178
tp64
sg30
F4591.415245369125
sbsg36
(dp65
g39
I0
sg17
I0
sg53
I0
ssS'image'
p66
NsS'_visible'
p67
I1
sS'_layer'
p68
I0
sS'effects'
p69
(lp70
sS'source_rect'
p71
NsS'weapons'
p72
(lp73
g13
(csrc.actor
Punch
p74
g15
Ntp75
Rp76
(dp77
S'owner'
p78
g57
sbasS'dirty'
p79
I1
sS'level'
p80
g13
(csrc.tilemap
Map
p81
g15
Ntp82
Rp83
g0
bsS'speed'
p84
F0.22571731071469647
sS'rect'
p85
cpygame
__rect_constructor
p86
(I424
I175
I12
I12
tp87
Rp88
sS'blendmode'
p89
I4
sbI0
sg13
(g21
g15
Ntp90
Rp91
(dp92
g25
(isrc.util
Loc
p93
(dp94
g28
F1943.6371792380348
sg25
(F4388.902543825397
F1943.6371792380348
tp95
sg30
F4388.902543825397
sbsg31
F0.7919841909735094
sg32
(isrc.util
Loc
p96
(dp97
g28
F1944.1536127668603
sg25
(F4388.392868376308
F1944.1536127668603
tp98
sg30
F4388.392868376308
sbsg36
(dp99
g39
I0
sg17
I0
sg53
I0
ssg66
Nsg67
I1
sg68
I0
sg69
(lp100
sg71
Nsg72
(lp101
g13
(g74
g15
Ntp102
Rp103
(dp104
g78
g91
sbasg79
I1
sg80
g83
sg84
F0.7255843528484845
sg85
g86
(I405
I176
I12
I12
tp105
Rp106
sg89
I4
sbI0
sg13
(g21
g15
Ntp107
Rp108
(dp109
g25
(isrc.util
Loc
p110
(dp111
g28
F1751.5648322435202
sg25
(F4290.014589148027
F1751.5648322435202
tp112
sg30
F4290.014589148027
sbsg31
F-1.7001615007942048
sg32
(isrc.util
Loc
p113
(dp114
g28
F1750.9356617716498
sg25
(F4290.096439001092
F1750.9356617716498
tp115
sg30
F4290.096439001092
sbsg36
(dp116
g39
I0
sg17
I0
sg53
I0
ssg66
Nsg67
I1
sg68
I0
sg69
(lp117
sg71
Nsg72
(lp118
g13
(g74
g15
Ntp119
Rp120
(dp121
g78
g108
sbasg79
I1
sg80
g83
sg84
F0.6344721279303626
sg85
g86
(I396
I158
I12
I12
tp122
Rp123
sg89
I4
sbI0
sg13
(g21
g15
Ntp124
Rp125
(dp126
g25
(isrc.util
Loc
p127
(dp128
g28
F1877.9146316547478
sg25
(F4410.81766811833
F1877.9146316547478
tp129
sg30
F4410.81766811833
sbsg31
F-1.831115337476396
sg32
(isrc.util
Loc
p130
(dp131
g28
F1877.3821046014107
sg25
(F4410.9595137054375
F1877.3821046014107
tp132
sg30
F4410.9595137054375
sbsg36
(dp133
g39
I0
sg17
I0
sg53
I0
ssg66
Nsg67
I1
sg68
I0
sg69
(lp134
sg71
Nsg72
(lp135
g13
(g74
g15
Ntp136
Rp137
(dp138
g78
g125
sbasg79
I1
sg80
g83
sg84
F0.5510945772893651
sg85
g86
(I407
I170
I12
I12
tp139
Rp140
sg89
I4
sbI0
sg13
(g21
g15
Ntp141
Rp142
(dp143
g25
(isrc.util
Loc
p144
(dp145
g28
F1798.8972305642305
sg25
(F4506.670521162052
F1798.8972305642305
tp146
sg30
F4506.670521162052
sbsg31
F2.605011004987084
sg32
(isrc.util
Loc
p147
(dp148
g28
F1799.3837136933666
sg25
(F4507.488425118996
F1799.3837136933666
tp149
sg30
F4507.488425118996
sbsg36
(dp150
g39
I0
sg17
I0
sg53
I0
ssg66
Nsg67
I1
sg68
I0
sg69
(lp151
sg71
Nsg72
(lp152
g13
(g74
g15
Ntp153
Rp154
(dp155
g78
g142
sbasg79
I1
sg80
g83
sg84
F0.9516473704677915
sg85
g86
(I416
I162
I12
I12
tp156
Rp157
sg89
I4
sbI0
sg13
(g21
g15
Ntp158
Rp159
(dp160
g25
(isrc.util
Loc
p161
(dp162
g28
F1750.0422048329676
sg25
(F4418.677871689174
F1750.0422048329676
tp163
sg30
F4418.677871689174
sbsg31
F0.04669730384573246
sg32
(isrc.util
Loc
p164
(dp165
g28
F1750.0548129011981
sg25
(F4418.4080723364195
F1750.0548129011981
tp166
sg30
F4418.4080723364195
sbsg36
(dp167
g39
I0
sg17
I0
sg53
I0
ssg66
Nsg67
I1
sg68
I0
sg69
(lp168
sg71
Nsg72
(lp169
g13
(g74
g15
Ntp170
Rp171
(dp172
g78
g159
sbasg79
I1
sg80
g83
sg84
F0.27009378765744335
sg85
g86
(I408
I158
I12
I12
tp173
Rp174
sg89
I4
sbI0
sg13
(g21
g15
Ntp175
Rp176
(dp177
g25
(isrc.util
Loc
p178
(dp179
g28
F1666.3501759881015
sg25
(F4385.483645554616
F1666.3501759881015
tp180
sg30
F4385.483645554616
sbsg31
F-0.05740687860044331
sg32
(isrc.util
Loc
p181
(dp182
g28
F1666.3261369693946
sg25
(F4385.065357603269
F1666.3261369693946
tp183
sg30
F4385.065357603269
sbsg36
(dp184
g39
I0
sg17
I0
sg53
I0
ssg66
Nsg67
I1
sg68
I0
sg69
(lp185
sg71
Nsg72
(lp186
g13
(g74
g15
Ntp187
Rp188
(dp189
g78
g176
sbasg79
I1
sg80
g83
sg84
F0.41897814341801043
sg85
g86
(I405
I150
I12
I12
tp190
Rp191
sg89
I4
sbI0
sg13
(g21
g15
Ntp192
Rp193
(dp194
g25
(isrc.util
Loc
p195
(dp196
g28
F1664.9786792633868
sg25
(F4514.543483008189
F1664.9786792633868
tp197
sg30
F4514.543483008189
sbsg31
F-0.4363562222812368
sg32
(isrc.util
Loc
p198
(dp199
g28
F1664.7197769357113
sg25
(F4513.988299831173
F1664.7197769357113
tp200
sg30
F4513.988299831173
sbsg36
(dp201
g39
I0
sg17
I0
sg53
I0
ssg66
Nsg67
I1
sg68
I0
sg69
(lp202
sg71
Nsg72
(lp203
g13
(g74
g15
Ntp204
Rp205
(dp206
g78
g193
sbasg79
I1
sg80
g83
sg84
F0.6125836884183463
sg85
g86
(I417
I150
I12
I12
tp207
Rp208
sg89
I4
sbI0
sg13
(g21
g15
Ntp209
Rp210
(dp211
g25
(isrc.util
Loc
p212
(dp213
g28
F1738.2961093060142
sg25
(F4619.367029011404
F1738.2961093060142
tp214
sg30
F4619.367029011404
sbsg31
F-0.15077374986556924
sg32
(isrc.util
Loc
p215
(dp216
g28
F1738.2331801938578
sg25
(F4618.952822042806
F1738.2331801938578
tp217
sg30
F4618.952822042806
sbsg36
(dp218
g39
I0
sg17
I0
sg53
I0
ssg66
Nsg67
I1
sg68
I0
sg69
(lp219
sg71
Nsg72
(lp220
g13
(g74
g15
Ntp221
Rp222
(dp223
g78
g210
sbasg79
I1
sg80
g83
sg84
F0.4189600052418623
sg85
g86
(I427
I156
I12
I12
tp224
Rp225
sg89
I4
sbI0
sg13
(g21
g15
Ntp226
Rp227
(dp228
g25
(isrc.util
Loc
p229
(dp230
g28
F1808.3951947901517
sg25
(F4595.878798644845
F1808.3951947901517
tp231
sg30
F4595.878798644845
sbsg31
F1.2070254944178007
sg32
(isrc.util
Loc
p232
(dp233
g28
F1808.845125478533
sg25
(F4595.707503700464
F1808.845125478533
tp234
sg30
F4595.707503700464
sbsg36
(dp235
g39
I0
sg17
I0
sg53
I0
ssg66
Nsg67
I1
sg68
I0
sg69
(lp236
sg71
Nsg72
(lp237
g13
(g74
g15
Ntp238
Rp239
(dp240
g78
g227
sbasg79
I1
sg80
g83
sg84
F0.4814349201270859
sg85
g86
(I424
I163
I12
I12
tp241
Rp242
sg89
I4
sbI0
sg13
(g21
g15
Ntp243
Rp244
(dp245
g25
(isrc.util
Loc
p246
(dp247
g28
F1734.5896039114434
sg25
(F4491.933140872099
F1734.5896039114434
tp248
sg30
F4491.933140872099
sbsg31
F1.121298461356573
sg32
(isrc.util
Loc
p249
(dp250
g28
F1735.103851287433
sg25
(F4491.6850494702685
F1735.103851287433
tp251
sg30
F4491.6850494702685
sbsg36
(dp252
g39
I0
sg17
I0
sg53
I0
ssg66
Nsg67
I1
sg68
I0
sg69
(lp253
sg71
Nsg72
(lp254
g13
(g74
g15
Ntp255
Rp256
(dp257
g78
g244
sbasg79
I1
sg80
g83
sg84
F0.5709638406889654
sg85
g86
(I415
I156
I12
I12
tp258
Rp259
sg89
I4
sbI0
sg13
(g21
g15
Ntp260
Rp261
(dp262
g25
(isrc.util
Loc
p263
(dp264
g28
F1879.564563380641
sg25
(F4278.574304398792
F1879.564563380641
tp265
sg30
F4278.574304398792
sbsg31
F-1.6363157138676456
sg32
(isrc.util
Loc
p266
(dp267
g28
F1879.0320042965923
sg25
(F4278.609247358805
F1879.0320042965923
tp268
sg30
F4278.609247358805
sbsg36
(dp269
g39
I0
sg17
I0
sg53
I0
ssg66
Nsg67
I1
sg68
I0
sg69
(lp270
sg71
Nsg72
(lp271
g13
(g74
g15
Ntp272
Rp273
(dp274
g78
g261
sbasg79
I1
sg80
g83
sg84
F0.5337042143896463
sg85
g86
(I395
I170
I12
I12
tp275
Rp276
sg89
I4
sbI0
sg13
(g21
g15
Ntp277
Rp278
(dp279
g25
(isrc.util
Loc
p280
(dp281
g28
F2052.6673095429314
sg25
(F4457.167254420737
F2052.6673095429314
tp282
sg30
F4457.167254420737
sbsg31
F-0.46878765261543226
sg32
(isrc.util
Loc
p283
(dp284
g28
F2052.1862349962894
sg25
(F4456.2173433480675
F2052.1862349962894
tp285
sg30
F4456.2173433480675
sbsg36
(dp286
g39
I0
sg17
I0
sg53
I0
ssg66
Nsg67
I1
sg68
I0
sg69
(lp287
sg71
Nsg72
(lp288
g13
(g74
g15
Ntp289
Rp290
(dp291
g78
g278
sbasg79
I1
sg80
g83
sg84
F1.0647834359183737
sg85
g86
(I411
I186
I12
I12
tp292
Rp293
sg89
I4
sbI0
sg13
(g21
g15
Ntp294
Rp295
(dp296
g25
(isrc.util
Loc
p297
(dp298
g28
F4633.587367469326
sg25
(F1849.1025785629033
F4633.587367469326
tp299
sg30
F1849.1025785629033
sbsg31
F0.01316948456744597
sg32
(isrc.util
Loc
p300
(dp301
g28
F4633.597176720244
sg25
(F1848.3577746359779
F4633.597176720244
tp302
sg30
F1848.3577746359779
sbsg36
(dp303
g39
I0
sg17
I0
sg53
I0
ssg66
Nsg67
I1
sg68
I0
sg69
(lp304
sg71
Nsg72
(lp305
g13
(g74
g15
Ntp306
Rp307
(dp308
g78
g295
sbasg79
I1
sg80
g83
sg84
F0.7448685192482688
sg85
g86
(I167
I428
I12
I12
tp309
Rp310
sg89
I4
sbI0
sg13
(g21
g15
Ntp311
Rp312
(dp313
g25
(isrc.util
Loc
p314
(dp315
g28
F1988.3654625834606
sg25
(F4473.620905879897
F1988.3654625834606
tp316
sg30
F4473.620905879897
sbsg31
F-2.7959088317802507
sg32
(isrc.util
Loc
p317
(dp318
g28
F1988.0288189774292
sg25
(F4474.555650856049
F1988.0288189774292
tp319
sg30
F4474.555650856049
sbsg36
(dp320
g39
I0
sg17
I0
sg53
I0
ssg66
Nsg67
I1
sg68
I0
sg69
(lp321
sg71
Nsg72
(lp322
g13
(g74
g15
Ntp323
Rp324
(dp325
g78
g312
sbasg79
I1
sg80
g83
sg84
F0.993517532771739
sg85
g86
(I413
I180
I12
I12
tp326
Rp327
sg89
I4
sbI0
sg13
(g21
g15
Ntp328
Rp329
(dp330
g25
(isrc.util
Loc
p331
(dp332
g28
F4612.228800050169
sg25
(F1976.8275008397272
F4612.228800050169
tp333
sg30
F1976.8275008397272
sbsg31
F-0.010001479909738839
sg32
(isrc.util
Loc
p334
(dp335
g28
F4612.213270246841
sg25
(F1975.274802073966
F4612.213270246841
tp336
sg30
F1975.274802073966
sbsg36
(dp337
g39
I0
sg17
I0
sg53
I0
ssg66
Nsg67
I1
sg68
I0
sg69
(lp338
sg71
Nsg72
(lp339
g13
(g74
g15
Ntp340
Rp341
(dp342
g78
g329
sbasg79
I1
sg80
g83
sg84
F1.5527764269166249
sg85
g86
(I179
I426
I12
I12
tp343
Rp344
sg89
I4
sbI0
sg13
(g21
g15
Ntp345
Rp346
(dp347
g25
(isrc.util
Loc
p348
(dp349
g28
F1793.7919747817834
sg25
(F4378.820074418275
F1793.7919747817834
tp350
sg30
F4378.820074418275
sbsg31
F1.3667785863321458
sg32
(isrc.util
Loc
p351
(dp352
g28
F1794.3867625869857
sg25
(F4378.697015020691
F1794.3867625869857
tp353
sg30
F4378.697015020691
sbsg36
(dp354
g39
I0
sg17
I0
sg53
I0
ssg66
Nsg67
I1
sg68
I0
sg69
(lp355
sg71
Nsg72
(lp356
g13
(g74
g15
Ntp357
Rp358
(dp359
g78
g346
sbasg79
I1
sg80
g83
sg84
F0.6073846792198122
sg85
g86
(I404
I162
I12
I12
tp360
Rp361
sg89
I4
sbI0
sg13
(g21
g15
Ntp362
Rp363
(dp364
g25
(isrc.util
Loc
p365
(dp366
g28
F4552.737084973846
sg25
(F1863.0410159387375
F4552.737084973846
tp367
sg30
F1863.0410159387375
sbsg31
F-0.12777407168939975
sg32
(isrc.util
Loc
p368
(dp369
g28
F4552.646733186172
sg25
(F1862.3377468824806
F4552.646733186172
tp370
sg30
F1862.3377468824806
sbsg36
(dp371
g39
I0
sg17
I0
sg53
I0
ssg66
Nsg67
I1
sg68
I0
sg69
(lp372
sg71
Nsg72
(lp373
g13
(g74
g15
Ntp374
Rp375
(dp376
g78
g363
sbasg79
I1
sg80
g83
sg84
F0.7090492303250399
sg85
g86
(I168
I420
I12
I12
tp377
Rp378
sg89
I4
sbI0
ssS'lostsprites'
p379
(lp380
sbI0
ssg66
Nsg67
I1
sg68
I0
sg69
(lp381
sg71
Nsg72
(lp382
g13
(g74
g15
Ntp383
Rp384
(dp385
g78
g43
sbasg79
I1
sg80
g83
sg84
F1.1675453274077092
sg85
g86
(I401
I180
I12
I12
tp386
Rp387
sg89
I4
sbI0
sg57
I0
sg91
I0
sg108
I0
sg13
(csrc.actor
Zombie
p388
g15
Ntp389
Rp390
(dp391
g25
(isrc.util
Loc
p392
(dp393
g28
F1228.8336679659158
sg25
(F1590.6321074981042
F1228.8336679659158
tp394
sg30
F1590.6321074981042
sbsg31
F1.7510033879764522
sg32
(isrc.util
Loc
p395
(dp396
g28
F1230.1804560019464
sg25
(F1590.8774699952346
F1230.1804560019464
tp397
sg30
F1590.8774699952346
sbsg36
(dp398
g39
I0
sg17
I0
ssg66
Nsg67
I1
sg68
I0
sg69
(lp399
sg71
Nsg72
(lp400
g13
(csrc.actor
Bite
p401
g15
Ntp402
Rp403
(dp404
g78
g390
sbasg79
I1
sS'target'
p405
Nsg80
g83
sg84
F1.3689560873136808
sg85
g86
(I143
I109
I12
I12
tp406
Rp407
sg89
I4
sbI0
sg125
I0
sg142
I0
sg159
I0
sg176
I0
sg193
I0
sg13
(g388
g15
Ntp408
Rp409
(dp410
g25
(isrc.util
Loc
p411
(dp412
g28
F2565.744095433075
sg25
(F393.12680774636186
F2565.744095433075
tp413
sg30
F393.12680774636186
sbsg31
F2.94716223298194
sg32
(isrc.util
Loc
p414
(dp415
g28
F2566.032848390415
sg25
(F394.5931686127486
F2566.032848390415
tp416
sg30
F394.5931686127486
sbsg36
(dp417
g39
I0
sg17
I0
ssg66
Nsg67
I1
sg68
I0
sg69
(lp418
sg71
Nsg72
(lp419
g13
(g401
g15
Ntp420
Rp421
(dp422
g78
g409
sS'countdown'
p423
I0
sbasS'health'
p424
F14.0
sg79
I1
sg405
Nsg80
g83
sg84
F1.4945208131181063
sg85
g86
(I30
I234
I12
I12
tp425
Rp426
sg89
I4
sbI0
sg210
I0
sg227
I0
sg244
I0
sg261
I0
sg278
I0
sg13
(csrc.actor
Soldier
p427
g15
Ntp428
Rp429
(dp430
g25
(isrc.util
Loc
p431
(dp432
g28
F1866.5260206064704
sg25
(F4615.161488827453
F1866.5260206064704
tp433
sg30
F4615.161488827453
sbsg31
F2.394970312469017
sg32
(isrc.util
Loc
p434
(dp435
g28
F1866.9201666674178
sg25
(F4615.587451215427
F1866.9201666674178
tp436
sg30
F4615.587451215427
sbsg36
(dp437
g39
I0
sg17
I0
sg13
(g14
g15
Ntp438
Rp439
(dp440
g19
(dp441
g13
(g427
g15
Ntp442
Rp443
(dp444
g25
(isrc.util
Loc
p445
(dp446
g28
F4616.925414114923
sg25
(F1722.7427745924713
F4616.925414114923
tp447
sg30
F1722.7427745924713
sbsg31
F0.3592950966924245
sg32
(isrc.util
Loc
p448
(dp449
g28
F4616.99145314493
sg25
(F1722.566951029149
F4616.99145314493
tp450
sg30
F1722.566951029149
sbsg36
(dp451
g39
I0
sg17
I0
sg439
I0
ssg66
Nsg67
I1
sg68
I0
sg69
(lp452
sg71
Nsg72
(lp453
g13
(csrc.actor
Rifle
p454
g15
Ntp455
Rp456
(dp457
g78
g443
sg423
I0
sbag13
(g74
g15
Ntp458
Rp459
(dp460
g78
g443
sbasg79
I1
sg80
g83
sg84
F0.18781660976485032
sg85
g86
(I155
I426
I12
I12
tp461
Rp462
sg89
I4
sbI0
sg13
(g427
g15
Ntp463
Rp464
(dp465
g25
(isrc.util
Loc
p466
(dp467
g28
F1861.9442873989522
sg25
(F4486.8631123936875
F1861.9442873989522
tp468
sg30
F4486.8631123936875
sbsg31
F-1.0038046405604275
sg32
(isrc.util
Loc
p469
(dp470
g28
F1860.905481685718
sg25
(F4486.2016710809385
F1860.905481685718
tp471
sg30
F4486.2016710809385
sbsg36
(dp472
g39
I0
sg17
I0
sg439
I0
ssg66
Nsg67
I1
sg68
I0
sg69
(lp473
sg71
Nsg72
(lp474
g13
(g454
g15
Ntp475
Rp476
(dp477
g78
g464
sg423
I0
sbag13
(g74
g15
Ntp478
Rp479
(dp480
g78
g464
sbasg79
I1
sg80
g83
sg84
F1.231512046249931
sg85
g86
(I414
I168
I12
I12
tp481
Rp482
sg89
I4
sbI0
sg13
(g427
g15
Ntp483
Rp484
(dp485
g25
(isrc.util
Loc
p486
(dp487
g28
F2031.5329938801362
sg25
(F4583.861302672627
F2031.5329938801362
tp488
sg30
F4583.861302672627
sbsg31
F0.04980316170491888
sg32
(isrc.util
Loc
p489
(dp490
g28
F2031.5725939148272
sg25
(F4583.066829245485
F2031.5725939148272
tp491
sg30
F4583.066829245485
sbsg36
(dp492
g39
I0
sg17
I0
sg439
I0
ssg66
Nsg67
I1
sg68
I0
sg69
(lp493
sg71
Nsg72
(lp494
g13
(g454
g15
Ntp495
Rp496
(dp497
g78
g484
sg423
I0
sbag13
(g74
g15
Ntp498
Rp499
(dp500
g78
g484
sbasg79
I1
sg80
g83
sg84
F0.795459734482714
sg85
g86
(I423
I184
I12
I12
tp501
Rp502
sg89
I4
sbI0
sg13
(g427
g15
Ntp503
Rp504
(dp505
g25
(isrc.util
Loc
p506
(dp507
g28
F1861.1564076742281
sg25
(F4354.416382493217
F1861.1564076742281
tp508
sg30
F4354.416382493217
sbsg31
F-1.748628005866259
sg32
(isrc.util
Loc
p509
(dp510
g28
F1860.1628963719115
sg25
(F4354.59494656643
F1860.1628963719115
tp511
sg30
F4354.59494656643
sbsg36
(dp512
g39
I0
sg17
I0
sg439
I0
ssg66
Nsg67
I1
sg68
I0
sg69
(lp513
sg71
Nsg72
(lp514
g13
(g454
g15
Ntp515
Rp516
(dp517
g78
g504
sg423
I0
sbag13
(g74
g15
Ntp518
Rp519
(dp520
g78
g504
sbasg79
I1
sg80
g83
sg84
F1.0094304513304821
sg85
g86
(I402
I168
I12
I12
tp521
Rp522
sg89
I4
sbI0
sg429
I0
ssg379
(lp523
sbI0
ssg66
Nsg67
I1
sg68
I0
sg69
(lp524
sg71
Nsg72
(lp525
g13
(g454
g15
Ntp526
Rp527
(dp528
g78
g429
sg423
I0
sbag13
(g74
g15
Ntp529
Rp530
(dp531
g78
g429
sbasg79
I1
sg80
g83
sg84
F0.5803404805190312
sg85
g86
(I426
I168
I12
I12
tp532
Rp533
sg89
I4
sbI0
sg295
I0
sg312
I0
sg13
(g388
g15
Ntp534
Rp535
(dp536
g25
(isrc.util
Loc
p537
(dp538
g28
F3717.1356822116445
sg25
(F589.9840360300823
F3717.1356822116445
tp539
sg30
F589.9840360300823
sbsg31
F5.974118706581226
sg32
(isrc.util
Loc
p540
(dp541
g28
F3717.1314665405403
sg25
(F589.9708331202862
F3717.1314665405403
tp542
sg30
F589.9708331202862
sbsg36
(dp543
g39
I0
sg17
I0
ssg66
Nsg67
I1
sg68
I0
sg69
(lp544
sg71
Nsg72
(lp545
g13
(g401
g15
Ntp546
Rp547
(dp548
g78
g535
sbasg79
I1
sg405
Nsg80
g83
sg84
F0.013859607135250362
sg85
g86
(I49
I342
I12
I12
tp549
Rp550
sg89
I4
sbI0
sg329
I0
sg13
(g388
g15
Ntp551
Rp552
(dp553
g25
(isrc.util
Loc
p554
(dp555
g28
F3087.0142381272544
sg25
(F3290.928955736221
F3087.0142381272544
tp556
sg30
F3290.928955736221
sbsg31
F5.014480534277708
sg32
(isrc.util
Loc
p557
(dp558
g28
F3086.1209797316956
sg25
(F3290.650590132426
F3086.1209797316956
tp559
sg30
F3290.650590132426
sbsg36
(dp560
g39
I0
sg17
I0
ssg66
Nsg67
I1
sg68
I0
sg69
(lp561
sg71
Nsg72
(lp562
g13
(g401
g15
Ntp563
Rp564
(dp565
g78
g552
sbasg79
I1
sg405
Nsg80
g83
sg84
F0.9356270467512102
sg85
g86
(I302
I283
I12
I12
tp566
Rp567
sg89
I4
sbI0
sg464
I0
sg504
I0
sg484
I0
sg13
(g388
g15
Ntp568
Rp569
(dp570
g25
(isrc.util
Loc
p571
(dp572
g28
F1446.1148531931888
sg25
(F1317.8124321308862
F1446.1148531931888
tp573
sg30
F1317.8124321308862
sbsg31
F0.29767244806855236
sg32
(isrc.util
Loc
p574
(dp575
g28
F1446.2971448849348
sg25
(F1317.2182374218016
F1446.2971448849348
tp576
sg30
F1317.2182374218016
sbsg36
(dp577
g39
I0
sg17
I0
ssg66
Nsg67
I1
sg68
I0
sg69
(lp578
sg71
Nsg72
(lp579
g13
(g401
g15
Ntp580
Rp581
(dp582
g78
g569
sg423
I0
sbasg424
F16.0
sg79
I1
sg405
Nsg80
g83
sg84
F0.6215284492152504
sg85
g86
(I117
I129
I12
I12
tp583
Rp584
sg89
I4
sbI0
sg443
I0
sg346
I0
sg363
I0
sg13
(g388
g15
Ntp585
Rp586
(dp587
g25
(isrc.util
Loc
p588
(dp589
g28
F3137.8908876978094
sg25
(F2411.506788609029
F3137.8908876978094
tp590
sg30
F2411.506788609029
sbsg31
F2.606945441012197
sg32
(isrc.util
Loc
p591
(dp592
g28
F3138.5623154159853
sg25
(F2412.6406186326244
F3138.5623154159853
tp593
sg30
F2412.6406186326244
sbsg36
(dp594
g39
I0
sg17
I0
ssg66
Nsg67
I1
sg68
I0
sg69
(lp595
sg71
Nsg72
(lp596
g13
(g401
g15
Ntp597
Rp598
(dp599
g78
g586
sbasg79
I1
sg405
Nsg80
g83
sg84
F1.3177198879659986
sg85
g86
(I220
I288
I12
I12
tp600
Rp601
sg89
I4
sbI0
ssg379
(lp602
sbI0
sg17
I0
sg53
I0
ssg66
Nsg67
I1
sg68
I0
sg69
(lp603
sg71
Nsg72
(lp604
g13
(g74
g15
Ntp605
Rp606
(dp607
g78
g23
sbasg79
I1
sg80
g83
sg84
F0.09977818468720259
sg85
g86
(I416
I174
I12
I12
tp608
Rp609
sg89
I4
sbg86
(I416
I174
I12
I12
tp610
Rp611
sg43
g86
(I401
I180
I12
I12
tp612
Rp613
sg346
g86
(I404
I162
I12
I12
tp614
Rp615
sg57
g86
(I424
I175
I12
I12
tp616
Rp617
sg91
g86
(I405
I176
I12
I12
tp618
Rp619
sg108
g86
(I396
I158
I12
I12
tp620
Rp621
sg125
g86
(I407
I170
I12
I12
tp622
Rp623
sg142
g86
(I416
I162
I12
I12
tp624
Rp625
sg159
g86
(I408
I158
I12
I12
tp626
Rp627
sg176
g86
(I405
I150
I12
I12
tp628
Rp629
sg193
g86
(I417
I150
I12
I12
tp630
Rp631
sg278
g86
(I411
I186
I12
I12
tp632
Rp633
sg210
g86
(I427
I156
I12
I12
tp634
Rp635
sg227
g86
(I424
I163
I12
I12
tp636
Rp637
sg244
g86
(I415
I156
I12
I12
tp638
Rp639
sg261
g86
(I395
I170
I12
I12
tp640
Rp641
sg409
g86
(I30
I234
I12
I12
tp642
Rp643
sg484
g86
(I423
I184
I12
I12
tp644
Rp645
sg295
g86
(I167
I428
I12
I12
tp646
Rp647
sg312
g86
(I413
I180
I12
I12
tp648
Rp649
sg363
g86
(I168
I420
I12
I12
tp650
Rp651
sg329
g86
(I179
I426
I12
I12
tp652
Rp653
sg552
g86
(I302
I283
I12
I12
tp654
Rp655
sg464
g86
(I414
I168
I12
I12
tp656
Rp657
sg504
g86
(I402
I168
I12
I12
tp658
Rp659
sg390
g86
(I143
I109
I12
I12
tp660
Rp661
sg569
g86
(I117
I129
I12
I12
tp662
Rp663
sg443
g86
(I155
I426
I12
I12
tp664
Rp665
sg429
g86
(I426
I168
I12
I12
tp666
Rp667
sg535
g86
(I49
I342
I12
I12
tp668
Rp669
sg586
g86
(I220
I288
I12
I12
tp670
Rp671
ssg379
(lp672
sbsS'tileNames'
p673
(lp674
S'tile0.png'
p675
aS'tile1.png'
p676
asS'fill'
p677
I0
sS'mobSize'
p678
(isrc.util
Loc
p679
(dp680
g28
I12
sg25
(I12
I12
tp681
sg30
I12
sbsS'scale'
p682
F0.09375
sS'friendlies'
p683
g439
sS'filename'
p684
S'map.p'
p685
sS'width'
p686
I20
sS'enemies'
p687
g13
(g14
g15
Ntp688
Rp689
(dp690
g19
(dp691
sg379
(lp692
sbsS'neutrals'
p693
g53
sS'viewpoint'
p694
(F2560.0
F2560.0
tp695
sS'grid'
p696
(lp697
I1
aI1
aI1
aI1
aI1
aI1
aI1
aI1
aI1
aI1
aI1
aI1
aI1
aI1
aI1
aI1
aI1
aI1
aI1
aI1
aI1
aI0
aI0
aI0
aI0
aI0
aI0
aI0
aI0
aI0
aI0
aI0
aI0
aI0
aI0
aI0
aI0
aI0
aI0
aI1
aI1
aI0
aI0
aI0
aI0
aI0
aI0
aI0
aI0
aI0
aI0
aI0
aI0
aI0
aI0
aI0
aI0
aI0
aI0
aI1
aI1
aI0
aI0
aI0
aI0
aI0
aI0
aI0
aI0
aI0
aI0
aI0
aI0
aI0
aI0
aI0
aI0
aI0
aI0
aI1
aI1
aI0
aI0
aI0
aI0
aI0
aI0
aI0
aI0
aI0
aI0
aI0
aI0
aI0
aI0
aI0
aI0
aI0
aI0
aI1
aI1
aI0
aI0
aI0
aI0
aI0
aI0
aI0
aI0
aI0
aI0
aI0
aI0
aI0
aI0
aI0
aI0
aI0
aI0
aI1
aI1
aI0
aI0
aI0
aI0
aI0
aI0
aI0
aI0
aI0
aI0
aI0
aI0
aI0
aI0
aI0
aI0
aI0
aI0
aI1
aI1
aI0
aI0
aI0
aI0
aI0
aI0
aI0
aI0
aI0
aI0
aI0
aI0
aI0
aI0
aI0
aI0
aI0
aI0
aI1
aI1
aI0
aI0
aI0
aI0
aI0
aI0
aI0
aI0
aI0
aI0
aI0
aI0
aI0
aI0
aI0
aI0
aI0
aI0
aI1
aI1
aI0
aI0
aI0
aI0
aI0
aI0
aI0
aI0
aI0
aI0
aI0
aI0
aI0
aI0
aI0
aI0
aI0
aI0
aI1
aI1
aI0
aI0
aI0
aI0
aI0
aI0
aI0
aI0
aI0
aI0
aI0
aI0
aI0
aI0
aI0
aI0
aI0
aI0
aI1
aI1
aI0
aI0
aI0
aI0
aI0
aI0
aI0
aI0
aI0
aI0
aI0
aI0
aI0
aI0
aI0
aI0
aI0
aI0
aI1
aI1
aI0
aI0
aI0
aI0
aI0
aI0
aI0
aI0
aI0
aI0
aI0
aI0
aI0
aI0
aI0
aI0
aI0
aI0
aI1
aI1
aI0
aI0
aI0
aI0
aI0
aI0
aI0
aI0
aI0
aI0
aI0
aI0
aI0
aI0
aI0
aI0
aI0
aI0
aI1
aI1
aI0
aI0
aI0
aI0
aI0
aI0
aI0
aI0
aI0
aI0
aI0
aI0
aI0
aI0
aI0
aI0
aI0
aI0
aI1
aI1
aI0
aI0
aI0
aI0
aI0
aI0
aI0
aI0
aI0
aI0
aI0
aI0
aI0
aI0
aI0
aI0
aI0
aI0
aI1
aI1
aI0
aI0
aI0
aI0
aI0
aI0
aI0
aI0
aI0
aI0
aI0
aI0
aI0
aI0
aI0
aI0
aI0
aI0
aI1
aI1
aI0
aI0
aI0
aI0
aI0
aI0
aI0
aI0
aI0
aI0
aI0
aI0
aI0
aI0
aI0
aI0
aI0
aI0
aI1
aI1
aI0
aI0
aI0
aI0
aI0
aI0
aI0
aI0
aI0
aI0
aI0
aI0
aI0
aI0
aI0
aI0
aI0
aI0
aI1
aI1
aI1
aI1
aI1
aI1
aI1
aI1
aI1
aI1
aI1
aI1
aI1
aI1
aI1
aI1
aI1
aI1
aI1
aI1
aI1
asS'actorSize'
p698
I12
sS'tileSize'
p699
I24
sS'mobOffset'
p700
(isrc.util
Loc
p701
(dp702
g28
F-6.0
sg25
(F-6.0
F-6.0
tp703
sg30
F-6.0
sbsS'maxScale'
p704
F2.0
sS'mobs'
p705
g39
sS'minScale'
p706
F0.05
s.