(dp0
S'size'
p1
(I20
I20
tp2
sS'actorNames'
p3
(lp4
S'blip.png'
p5
aS'zombie.png'
p6
aS'soldier.png'
p7
aS'civilian.png'
p8
asS'wall'
p9
I1
sS'height'
p10
I20
sS'visible'
p11
ccopy_reg
_reconstructor
p12
(cpygame.sprite
Group
p13
c__builtin__
object
p14
Ntp15
Rp16
(dp17
S'spritedict'
p18
(dp19
g12
(csrc.actor
Zombie
p20
g14
Ntp21
Rp22
(dp23
S'loc'
p24
(isrc.util
Loc
p25
(dp26
S'y'
p27
F3603.037023144639
sg24
(F362.1384128729529
F3603.037023144639
tp28
sS'x'
p29
F362.1384128729529
sbsS'direction'
p30
F4.641091982776555
sS'lastLoc'
p31
(isrc.util
Loc
p32
(dp33
g27
F3602.9964636053455
sg24
(F362.1413095561929
F3602.9964636053455
tp34
sg29
F362.1413095561929
sbsS'_Sprite__g'
p35
(dp36
g12
(g13
g14
Ntp37
Rp38
(dp39
g18
(dp40
g12
(g20
g14
Ntp41
Rp42
(dp43
g24
(isrc.util
Loc
p44
(dp45
g27
F614.5414512535099
sg24
(F1329.7140290227333
F614.5414512535099
tp46
sg29
F1329.7140290227333
sbsg30
F3.7785901973564364
sg31
(isrc.util
Loc
p47
(dp48
g27
F614.1366688900224
sg24
(F1330.261115489692
F614.1366688900224
tp49
sg29
F1330.261115489692
sbsg35
(dp50
g38
I0
sg12
(g13
g14
Ntp51
Rp52
(dp53
g18
(dp54
g22
I0
sg12
(g20
g14
Ntp55
Rp56
(dp57
g24
(isrc.util
Loc
p58
(dp59
g27
F3882.64279090394
sg24
(F4190.128843662748
F3882.64279090394
tp60
sg29
F4190.128843662748
sbsg30
F4.1298264919197605
sg31
(isrc.util
Loc
p61
(dp62
g27
F3881.0552492284455
sg24
(F4191.174774923426
F3881.0552492284455
tp63
sg29
F4191.174774923426
sbsg35
(dp64
g38
I0
sg52
I0
sg16
I0
ssS'image'
p65
NsS'_visible'
p66
I1
sS'_layer'
p67
I0
sS'source_rect'
p68
NsS'weapons'
p69
(lp70
g12
(csrc.actor
Bite
p71
g14
Ntp72
Rp73
(dp74
S'owner'
p75
g56
sS'countdown'
p76
I0
sbasS'health'
p77
F14.0
sS'dirty'
p78
I1
sS'target'
p79
NsS'level'
p80
g12
(csrc.tilemap
Map
p81
g14
Ntp82
Rp83
g0
bsS'speed'
p84
F1.901120925531916
sS'rect'
p85
cpygame
__rect_constructor
p86
(I386
I357
I12
I12
tp87
Rp88
sS'blendmode'
p89
I4
sbI0
sg12
(g20
g14
Ntp90
Rp91
(dp92
g24
(isrc.util
Loc
p93
(dp94
g27
F504.5885678161829
sg24
(F1372.0027827399967
F504.5885678161829
tp95
sg29
F1372.0027827399967
sbsg30
F4.5562897368423565
sg31
(isrc.util
Loc
p96
(dp97
g27
F502.66879535989233
sg24
(F1372.3049157866253
F502.66879535989233
tp98
sg29
F1372.3049157866253
sbsg35
(dp99
g38
I0
sg52
I0
sg16
I0
ssg65
Nsg66
I1
sg67
I0
sg68
Nsg69
(lp100
g12
(g71
g14
Ntp101
Rp102
(dp103
g75
g91
sg76
I0
sbasg77
F17.0
sg78
I1
sg79
Nsg80
g83
sg84
F1.9434018271569482
sg85
g86
(I122
I41
I12
I12
tp104
Rp105
sg89
I4
sbI0
sg12
(g20
g14
Ntp106
Rp107
(dp108
g24
(isrc.util
Loc
p109
(dp110
g27
F4021.933438834679
sg24
(F4163.573227711076
F4021.933438834679
tp111
sg29
F4163.573227711076
sbsg30
F6.184630653373059
sg31
(isrc.util
Loc
p112
(dp113
g27
F4021.844007478358
sg24
(F4162.668738519549
F4021.844007478358
tp114
sg29
F4162.668738519549
sbsg35
(dp115
g38
I0
sg52
I0
sg16
I0
ssg65
Nsg66
I1
sg67
I0
sg68
Nsg69
(lp116
g12
(g71
g14
Ntp117
Rp118
(dp119
g75
g107
sg76
I0
sbasg78
I1
sg79
Nsg80
g83
sg84
F0.9088997002320509
sg85
g86
(I384
I371
I12
I12
tp120
Rp121
sg89
I4
sbI0
sg12
(g20
g14
Ntp122
Rp123
(dp124
g24
(isrc.util
Loc
p125
(dp126
g27
F3608.5901178635963
sg24
(F3644.542250573856
F3608.5901178635963
tp127
sg29
F3644.542250573856
sbsg30
F1.7104218233690094
sg31
(isrc.util
Loc
p128
(dp129
g27
F3608.7155426736063
sg24
(F3644.559877773451
F3608.7155426736063
tp130
sg29
F3644.559877773451
sbsg35
(dp131
g38
I0
sg52
I0
sg16
I0
ssg65
Nsg66
I1
sg67
I0
sg68
Nsg69
(lp132
g12
(g71
g14
Ntp133
Rp134
(dp135
g75
g123
sg76
I0
sbasg78
I1
sg79
Nsg80
g83
sg84
F0.12665741640984507
sg85
g86
(I335
I332
I12
I12
tp136
Rp137
sg89
I4
sbI0
sg12
(g20
g14
Ntp138
Rp139
(dp140
g24
(isrc.util
Loc
p141
(dp142
g27
F4374.6573518231135
sg24
(F389.6542879400803
F4374.6573518231135
tp143
sg29
F389.6542879400803
sbsg30
F2.9040147325219405
sg31
(isrc.util
Loc
p144
(dp145
g27
F4374.700536900919
sg24
(F389.83262733045643
F4374.700536900919
tp146
sg29
F389.83262733045643
sbsg35
(dp147
g38
I0
sg52
I0
sg16
I0
ssg65
Nsg66
I1
sg67
I0
sg68
Nsg69
(lp148
g12
(g71
g14
Ntp149
Rp150
(dp151
g75
g139
sbasg77
F8.0
sg78
I1
sg79
Nsg80
g83
sg84
F0.18349356693036234
sg85
g86
(I30
I404
I12
I12
tp152
Rp153
sg89
I4
sbI0
sg12
(g20
g14
Ntp154
Rp155
(dp156
g24
(isrc.util
Loc
p157
(dp158
g27
F458.96725833479803
sg24
(F1269.7569915185138
F458.96725833479803
tp159
sg29
F1269.7569915185138
sbsg30
F3.0713950168620983
sg31
(isrc.util
Loc
p160
(dp161
g27
F459.0232815725206
sg24
(F1270.5537588746404
F459.0232815725206
tp162
sg29
F1270.5537588746404
sbsg35
(dp163
g38
I0
sg52
I0
sg16
I0
ssg65
Nsg66
I1
sg67
I0
sg68
Nsg69
(lp164
g12
(g71
g14
Ntp165
Rp166
(dp167
g75
g155
sg76
I0
sbasg77
F19.0
sg78
I1
sg79
Nsg80
g83
sg84
F0.7987345134360504
sg85
g86
(I113
I37
I12
I12
tp168
Rp169
sg89
I4
sbI0
sg12
(g20
g14
Ntp170
Rp171
(dp172
g24
(isrc.util
Loc
p173
(dp174
g27
F2958.420127221697
sg24
(F840.70681950645
F2958.420127221697
tp175
sg29
F840.70681950645
sbsg30
F1.700888942780356
sg31
(isrc.util
Loc
p176
(dp177
g27
F2962.38632675477
sg24
(F841.225723412632
F2962.38632675477
tp178
sg29
F841.225723412632
sbsg35
(dp179
g38
I0
sg52
I0
sg16
I0
ssg65
Nsg66
I1
sg67
I0
sg68
Nsg69
(lp180
g12
(g71
g14
Ntp181
Rp182
(dp183
g75
g171
sg76
I0
sbasg77
F7.0
sg78
I1
sg79
g12
(csrc.actor
Civilian
p184
g14
Ntp185
Rp186
(dp187
g24
(isrc.util
Loc
p188
(dp189
g27
F2281.243803100286
sg24
(F752.0650731231838
F2281.243803100286
tp190
sg29
F752.0650731231838
sbsg30
F1.715986864056009
sg31
(isrc.util
Loc
p191
(dp192
g27
F2284.216255489246
sg24
(F752.4997034277586
F2284.216255489246
tp193
sg29
F752.4997034277586
sbsg35
(dp194
g38
I0
sg16
I0
sg12
(g13
g14
Ntp195
Rp196
(dp197
g18
(dp198
g12
(g184
g14
Ntp199
Rp200
(dp201
g24
(isrc.util
Loc
p202
(dp203
g27
F2129.7742114745524
sg24
(F583.4750613009974
F2129.7742114745524
tp204
sg29
F583.4750613009974
sbsg30
F1.5140513834131166
sg31
(isrc.util
Loc
p205
(dp206
g27
F2133.2050402178866
sg24
(F583.2801698905796
F2133.2050402178866
tp207
sg29
F583.2801698905796
sbsg35
(dp208
g38
I0
sg16
I0
sg196
I0
ssg65
Nsg66
I1
sg67
I0
sg68
Nsg69
(lp209
g12
(csrc.actor
Punch
p210
g14
Ntp211
Rp212
(dp213
g75
g200
sg76
I0
sbasg77
F8.5
sg78
I1
sg80
g83
sg84
F3.436359778594585
sg85
g86
(I48
I193
I12
I12
tp214
Rp215
sg89
I4
sbI0
sg12
(g184
g14
Ntp216
Rp217
(dp218
g24
(isrc.util
Loc
p219
(dp220
g27
F4626.216306003837
sg24
(F2476.4285954203933
F4626.216306003837
tp221
sg29
F2476.4285954203933
sbsg30
F0.9208511213299054
sg31
(isrc.util
Loc
p222
(dp223
g27
F4627.115351052787
sg24
(F2475.7452151481543
F4627.115351052787
tp224
sg29
F2475.7452151481543
sbsg35
(dp225
g38
I0
sg16
I0
sg196
I0
ssg65
Nsg66
I1
sg67
I0
sg68
Nsg69
(lp226
g12
(g210
g14
Ntp227
Rp228
(dp229
g75
g217
sg76
I0
sbasg77
F2.5
sg78
I1
sg80
g83
sg84
F1.1292876500377105
sg85
g86
(I226
I427
I12
I12
tp230
Rp231
sg89
I4
sbI0
sg12
(g184
g14
Ntp232
Rp233
(dp234
g24
(isrc.util
Loc
p235
(dp236
g27
F2094.5621999528944
sg24
(F960.5934996605808
F2094.5621999528944
tp237
sg29
F960.5934996605808
sbsg30
F2.1708703616681615
sg31
(isrc.util
Loc
p238
(dp239
g27
F2095.8920764056124
sg24
(F961.5034616392247
F2095.8920764056124
tp240
sg29
F961.5034616392247
sbsg35
(dp241
g38
I0
sg16
I0
sg196
I0
ssg65
Nsg66
I1
sg67
I0
sg68
Nsg69
(lp242
g12
(g210
g14
Ntp243
Rp244
(dp245
g75
g233
sbasg78
I1
sg80
g83
sg84
F1.6113975865910544
sg85
g86
(I84
I190
I12
I12
tp246
Rp247
sg89
I4
sbI0
sg12
(g184
g14
Ntp248
Rp249
(dp250
g24
(isrc.util
Loc
p251
(dp252
g27
F4555.906793664219
sg24
(F2648.8976296965343
F4555.906793664219
tp253
sg29
F2648.8976296965343
sbsg30
F1.2674430178255862
sg31
(isrc.util
Loc
p254
(dp255
g27
F4556.896154958499
sg24
(F2648.587945501089
F4556.896154958499
tp256
sg29
F2648.587945501089
sbsg35
(dp257
g38
I0
sg16
I0
sg196
I0
ssg65
Nsg66
I1
sg67
I0
sg68
Nsg69
(lp258
g12
(g210
g14
Ntp259
Rp260
(dp261
g75
g249
sg76
I0
sbasg78
I1
sg80
g83
sg84
F1.0366967114490226
sg85
g86
(I242
I421
I12
I12
tp262
Rp263
sg89
I4
sbI0
sg12
(g184
g14
Ntp264
Rp265
(dp266
g24
(isrc.util
Loc
p267
(dp268
g27
F4607.587101839844
sg24
(F2404.15309449091
F4607.587101839844
tp269
sg29
F2404.15309449091
sbsg30
F0.28645973114579726
sg31
(isrc.util
Loc
p270
(dp271
g27
F4607.874903285495
sg24
(F2403.1760434088
F4607.874903285495
tp272
sg29
F2403.1760434088
sbsg35
(dp273
g38
I0
sg16
I0
sg196
I0
ssg65
Nsg66
I1
sg67
I0
sg68
Nsg69
(lp274
g12
(g210
g14
Ntp275
Rp276
(dp277
g75
g265
sbasg78
I1
sg80
g83
sg84
F1.018557062304944
sg85
g86
(I219
I425
I12
I12
tp278
Rp279
sg89
I4
sbI0
sg12
(g184
g14
Ntp280
Rp281
(dp282
g24
(isrc.util
Loc
p283
(dp284
g27
F4636.830364123471
sg24
(F2665.677605800873
F4636.830364123471
tp285
sg29
F2665.677605800873
sbsg30
F-0.29916440894155527
sg31
(isrc.util
Loc
p286
(dp287
g27
F4636.271143111129
sg24
(F2663.8644311969
F4636.271143111129
tp288
sg29
F2663.8644311969
sbsg35
(dp289
g38
I0
sg16
I0
sg196
I0
ssg65
Nsg66
I1
sg67
I0
sg68
Nsg69
(lp290
g12
(g210
g14
Ntp291
Rp292
(dp293
g75
g281
sbasg78
I1
sg80
g83
sg84
F1.8974536318806405
sg85
g86
(I243
I428
I12
I12
tp294
Rp295
sg89
I4
sbI0
sg12
(g184
g14
Ntp296
Rp297
(dp298
g24
(isrc.util
Loc
p299
(dp300
g27
F4619.884284027452
sg24
(F2538.5723149528353
F4619.884284027452
tp301
sg29
F2538.5723149528353
sbsg30
F0.006360291822670828
sg31
(isrc.util
Loc
p302
(dp303
g27
F4619.890109167346
sg24
(F2537.656466827131
F4619.890109167346
tp304
sg29
F2537.656466827131
sbsg35
(dp305
g38
I0
sg16
I0
sg196
I0
ssg65
Nsg66
I1
sg67
I0
sg68
Nsg69
(lp306
g12
(g210
g14
Ntp307
Rp308
(dp309
g75
g297
sg76
I0
sbasg78
I1
sg80
g83
sg84
F0.9158666505613717
sg85
g86
(I231
I427
I12
I12
tp310
Rp311
sg89
I4
sbI0
sg12
(g184
g14
Ntp312
Rp313
(dp314
g24
(isrc.util
Loc
p315
(dp316
g27
F2226.5119906875575
sg24
(F503.8602454227802
F2226.5119906875575
tp317
sg29
F503.8602454227802
sbsg30
F1.4955880316178636
sg31
(isrc.util
Loc
p318
(dp319
g27
F2229.8911566471884
sg24
(F503.6056238597754
F2229.8911566471884
tp320
sg29
F503.6056238597754
sbsg35
(dp321
g38
I0
sg16
I0
sg196
I0
ssg65
Nsg66
I1
sg67
I0
sg68
Nsg69
(lp322
g12
(g210
g14
Ntp323
Rp324
(dp325
g75
g313
sbasg78
I1
sg80
g83
sg84
F3.388745302184168
sg85
g86
(I41
I202
I12
I12
tp326
Rp327
sg89
I4
sbI0
sg12
(g184
g14
Ntp328
Rp329
(dp330
g24
(isrc.util
Loc
p331
(dp332
g27
F4671.829320413148
sg24
(F2596.5588241467617
F4671.829320413148
tp333
sg29
F2596.5588241467617
sbsg30
F-0.5814247091716706
sg31
(isrc.util
Loc
p334
(dp335
g27
F4671.330432519145
sg24
(F2595.79972056374
F4671.330432519145
tp336
sg29
F2595.79972056374
sbsg35
(dp337
g38
I0
sg16
I0
sg196
I0
ssg65
Nsg66
I1
sg67
I0
sg68
Nsg69
(lp338
g12
(g210
g14
Ntp339
Rp340
(dp341
g75
g329
sg76
I0
sbasg78
I1
sg80
g83
sg84
F0.9083652242020427
sg85
g86
(I237
I431
I12
I12
tp342
Rp343
sg89
I4
sbI0
sg12
(g184
g14
Ntp344
Rp345
(dp346
g24
(isrc.util
Loc
p347
(dp348
g27
F2202.2522440109474
sg24
(F923.6511389801766
F2202.2522440109474
tp349
sg29
F923.6511389801766
sbsg30
F1.484250608359348
sg31
(isrc.util
Loc
p350
(dp351
g27
F2204.054116754046
sg24
(F923.4948040895302
F2204.054116754046
tp352
sg29
F923.4948040895302
sbsg35
(dp353
g38
I0
sg16
I0
sg196
I0
ssg65
Nsg66
I1
sg67
I0
sg68
Nsg69
(lp354
g12
(g210
g14
Ntp355
Rp356
(dp357
g75
g345
sg76
I0
sbasg78
I1
sg80
g83
sg84
F1.808642026592109
sg85
g86
(I80
I200
I12
I12
tp358
Rp359
sg89
I4
sbI0
sg12
(g184
g14
Ntp360
Rp361
(dp362
g24
(isrc.util
Loc
p363
(dp364
g27
F2154.1276895653127
sg24
(F704.2598440584115
F2154.1276895653127
tp365
sg29
F704.2598440584115
sbsg30
F1.4397341418084515
sg31
(isrc.util
Loc
p366
(dp367
g27
F2157.625902161421
sg24
(F703.7987173400827
F2157.625902161421
tp368
sg29
F703.7987173400827
sbsg35
(dp369
g38
I0
sg16
I0
sg196
I0
ssg65
Nsg66
I1
sg67
I0
sg68
Nsg69
(lp370
g12
(g210
g14
Ntp371
Rp372
(dp373
g75
g361
sbasg78
I1
sg80
g83
sg84
F3.528474063660877
sg85
g86
(I60
I195
I12
I12
tp374
Rp375
sg89
I4
sbI0
sg186
I0
sg12
(g184
g14
Ntp376
Rp377
(dp378
g24
(isrc.util
Loc
p379
(dp380
g27
F4512.500209733532
sg24
(F2702.8389523181263
F4512.500209733532
tp381
sg29
F2702.8389523181263
sbsg30
F-0.28223546564840407
sg31
(isrc.util
Loc
p382
(dp383
g27
F4512.258025699102
sg24
(F2702.0037664073775
F4512.258025699102
tp384
sg29
F2702.0037664073775
sbsg35
(dp385
g38
I0
sg16
I0
sg196
I0
ssg65
Nsg66
I1
sg67
I0
sg68
Nsg69
(lp386
g12
(g210
g14
Ntp387
Rp388
(dp389
g75
g377
sbasg78
I1
sg80
g83
sg84
F0.8695910602379708
sg85
g86
(I247
I417
I12
I12
tp390
Rp391
sg89
I4
sbI0
ssS'lostsprites'
p392
(lp393
sbI0
ssg65
Nsg66
I1
sg67
I0
sg68
Nsg69
(lp394
g12
(g210
g14
Ntp395
Rp396
(dp397
g75
g186
sbasg78
I1
sg80
g83
sg84
F3.0040600370644537
sg85
g86
(I64
I207
I12
I12
tp398
Rp399
sg89
I4
sbsg80
g83
sg84
F4.0
sg85
g86
(I72
I271
I12
I12
tp400
Rp401
sg89
I4
sbI0
sg42
I0
sg12
(g20
g14
Ntp402
Rp403
(dp404
g24
(isrc.util
Loc
p405
(dp406
g27
F4328.80184306328
sg24
(F1323.1842504253702
F4328.80184306328
tp407
sg29
F1323.1842504253702
sbsg30
F5.923014408431971
sg31
(isrc.util
Loc
p408
(dp409
g27
F4328.647041325399
sg24
(F1322.773197398378
F4328.647041325399
tp410
sg29
F1322.773197398378
sbsg35
(dp411
g38
I0
sg52
I0
sg16
I0
ssg65
Nsg66
I1
sg67
I0
sg68
Nsg69
(lp412
g12
(g71
g14
Ntp413
Rp414
(dp415
g75
g403
sg76
I0
sbasg78
I1
sg79
Nsg80
g83
sg84
F0.43923589226121207
sg85
g86
(I118
I399
I12
I12
tp416
Rp417
sg89
I4
sbI0
ssg392
(lp418
sbI0
sg16
I0
ssg65
Nsg66
I1
sg67
I0
sg68
Nsg69
(lp419
g12
(g71
g14
Ntp420
Rp421
(dp422
g75
g42
sg76
I0
sbasg78
I1
sg79
Nsg80
g83
sg84
F0.6805529840651205
sg85
g86
(I118
I51
I12
I12
tp423
Rp424
sg89
I4
sbI0
sg200
I0
sg217
I0
sg12
(csrc.actor
Soldier
p425
g14
Ntp426
Rp427
(dp428
g24
(isrc.util
Loc
p429
(dp430
g27
F2171.158305374098
sg24
(F800.0113631139401
F2171.158305374098
tp431
sg29
F800.0113631139401
sbsg30
F1.5099871042441573
sg31
(isrc.util
Loc
p432
(dp433
g27
F2173.8466019698635
sg24
(F799.8476880944838
F2173.8466019698635
tp434
sg29
F799.8476880944838
sbsg35
(dp435
g12
(g13
g14
Ntp436
Rp437
(dp438
g18
(dp439
g12
(g425
g14
Ntp440
Rp441
(dp442
g24
(isrc.util
Loc
p443
(dp444
g27
F4545.195653060575
sg24
(F2574.9096335319414
F4545.195653060575
tp445
sg29
F2574.9096335319414
sbsg30
F-0.47181882007744613
sg31
(isrc.util
Loc
p446
(dp447
g27
F4544.638220779445
sg24
(F2573.817177739
F4544.638220779445
tp448
sg29
F2573.817177739
sbsg35
(dp449
g437
I0
sg38
I0
sg16
I0
ssg65
Nsg66
I1
sg67
I0
sg68
Nsg69
(lp450
g12
(csrc.actor
Rifle
p451
g14
Ntp452
Rp453
(dp454
g75
g441
sg76
I0
sbag12
(g210
g14
Ntp455
Rp456
(dp457
g75
g441
sbasg78
I1
sg80
g83
sg84
F1.226454405013597
sg85
g86
(I235
I420
I12
I12
tp458
Rp459
sg89
I4
sbI0
sg12
(g425
g14
Ntp460
Rp461
(dp462
g24
(isrc.util
Loc
p463
(dp464
g27
F4630.245889805669
sg24
(F2753.368464749409
F4630.245889805669
tp465
sg29
F2753.368464749409
sbsg30
F0.1677227849645102
sg31
(isrc.util
Loc
p466
(dp467
g27
F4630.4727349785835
sg24
(F2752.028670332334
F4630.4727349785835
tp468
sg29
F2752.028670332334
sbsg35
(dp469
g437
I0
sg38
I0
sg16
I0
ssg65
Nsg66
I1
sg67
I0
sg68
Nsg69
(lp470
g12
(g451
g14
Ntp471
Rp472
(dp473
g75
g461
sg76
I0
sbag12
(g210
g14
Ntp474
Rp475
(dp476
g75
g461
sbasg78
I1
sg80
g83
sg84
F1.3588626908193104
sg85
g86
(I252
I428
I12
I12
tp477
Rp478
sg89
I4
sbI0
sg12
(g425
g14
Ntp479
Rp480
(dp481
g24
(isrc.util
Loc
p482
(dp483
g27
F2259.3618620251104
sg24
(F626.6060915530101
F2259.3618620251104
tp484
sg29
F626.6060915530101
sbsg30
F1.4931645375919373
sg31
(isrc.util
Loc
p485
(dp486
g27
F2262.8656001467275
sg24
(F626.3335423500082
F2262.8656001467275
tp487
sg29
F626.3335423500082
sbsg35
(dp488
g437
I0
sg38
I0
sg16
I0
ssg65
Nsg66
I1
sg67
I0
sg68
Nsg69
(lp489
g12
(g451
g14
Ntp490
Rp491
(dp492
g75
g480
sg76
I33
sbag12
(g210
g14
Ntp493
Rp494
(dp495
g75
g480
sbasg78
I1
sg80
g83
sg84
F3.514322679113105
sg85
g86
(I52
I205
I12
I12
tp496
Rp497
sg89
I4
sbI0
sg12
(g425
g14
Ntp498
Rp499
(dp500
g24
(isrc.util
Loc
p501
(dp502
g27
F4444.404799324865
sg24
(F2587.480762338229
F4444.404799324865
tp503
sg29
F2587.480762338229
sbsg30
F-0.06602880777262912
sg31
(isrc.util
Loc
p504
(dp505
g27
F4444.31628264586
sg24
(F2586.1421344553223
F4444.31628264586
tp506
sg29
F2586.1421344553223
sbsg35
(dp507
g437
I0
sg38
I0
sg16
I0
ssg65
Nsg66
I1
sg67
I0
sg68
Nsg69
(lp508
g12
(g451
g14
Ntp509
Rp510
(dp511
g75
g499
sg76
I0
sbag12
(g210
g14
Ntp512
Rp513
(dp514
g75
g499
sbasg78
I1
sg80
g83
sg84
F1.3415512704915018
sg85
g86
(I236
I410
I12
I12
tp515
Rp516
sg89
I4
sbI0
sg427
I0
sg12
(g425
g14
Ntp517
Rp518
(dp519
g24
(isrc.util
Loc
p520
(dp521
g27
F2077.6363185643963
sg24
(F834.3241383561791
F2077.6363185643963
tp522
sg29
F834.3241383561791
sbsg30
F1.6057091972291457
sg31
(isrc.util
Loc
p523
(dp524
g27
F2080.0258356928603
sg24
(F834.4075971703948
F2080.0258356928603
tp525
sg29
F834.4075971703948
sbsg35
(dp526
g437
I0
sg38
I0
sg16
I0
ssg65
Nsg66
I1
sg67
I0
sg68
Nsg69
(lp527
g12
(g451
g14
Ntp528
Rp529
(dp530
g75
g518
sg76
I0
sbag12
(g210
g14
Ntp531
Rp532
(dp533
g75
g518
sg76
I0
sbasg77
F8.5
sg78
I1
sg80
g83
sg84
F2.3909741698504927
sg85
g86
(I72
I188
I12
I12
tp534
Rp535
sg89
I4
sbI0
sg12
(g425
g14
Ntp536
Rp537
(dp538
g24
(isrc.util
Loc
p539
(dp540
g27
F4498.309957691925
sg24
(F2470.74688621881
F4498.309957691925
tp541
sg29
F2470.74688621881
sbsg30
F0.8973594616370719
sg31
(isrc.util
Loc
p542
(dp543
g27
F4499.235465007938
sg24
(F2470.0084576741688
F4499.235465007938
tp544
sg29
F2470.0084576741688
sbsg35
(dp545
g437
I0
sg38
I0
sg16
I0
ssg65
Nsg66
I1
sg67
I0
sg68
Nsg69
(lp546
g12
(g451
g14
Ntp547
Rp548
(dp549
g75
g537
sg76
I0
sbag12
(g210
g14
Ntp550
Rp551
(dp552
g75
g537
sg76
I0
sbasg77
F8.5
sg78
I1
sg80
g83
sg84
F1.1839934575554762
sg85
g86
(I225
I415
I12
I12
tp553
Rp554
sg89
I4
sbI0
ssg392
(lp555
sbI0
sg38
I0
sg16
I0
ssg65
Nsg66
I1
sg67
I0
sg68
Nsg69
(lp556
g12
(g451
g14
Ntp557
Rp558
(dp559
g75
g427
sg76
I10
sbag12
(g210
g14
Ntp560
Rp561
(dp562
g75
g427
sg76
I0
sbasg78
I1
sg80
g83
sg84
F2.693274605160026
sg85
g86
(I69
I197
I12
I12
tp563
Rp564
sg89
I4
sbI0
sg441
I0
sg537
I0
sg480
I0
sg91
I0
sg518
I0
sg139
I0
sg233
I0
sg123
I0
sg461
I0
sg22
I0
sg499
I0
sg249
I0
sg155
I0
sg171
I0
sg265
I0
sg56
I0
sg281
I0
sg107
I0
sg297
I0
sg313
I0
sg329
I0
sg345
I0
sg361
I0
sg186
I0
sg377
I0
sg403
I0
ssg392
(lp565
sbI0
sg52
I0
sg16
I0
ssg65
Nsg66
I1
sg67
I0
sg68
Nsg69
(lp566
g12
(g71
g14
Ntp567
Rp568
(dp569
g75
g22
sg76
I0
sbasg77
F17.0
sg78
I1
sg79
Nsg80
g83
sg84
F0.04066284546741272
sg85
g86
(I27
I331
I12
I12
tp570
Rp571
sg89
I4
sbg86
(I27
I331
I12
I12
tp572
Rp573
sg200
g86
(I48
I193
I12
I12
tp574
Rp575
sg217
g86
(I226
I427
I12
I12
tp576
Rp577
sg441
g86
(I235
I420
I12
I12
tp578
Rp579
sg480
g86
(I52
I205
I12
I12
tp580
Rp581
sg91
g86
(I122
I41
I12
I12
tp582
Rp583
sg427
g86
(I69
I197
I12
I12
tp584
Rp585
sg518
g86
(I72
I188
I12
I12
tp586
Rp587
sg313
g86
(I41
I202
I12
I12
tp588
Rp589
sg139
g86
(I30
I404
I12
I12
tp590
Rp591
sg537
g86
(I225
I415
I12
I12
tp592
Rp593
sg297
g86
(I231
I427
I12
I12
tp594
Rp595
sg123
g86
(I335
I332
I12
I12
tp596
Rp597
sg461
g86
(I252
I428
I12
I12
tp598
Rp599
sg499
g86
(I236
I410
I12
I12
tp600
Rp601
sg249
g86
(I242
I421
I12
I12
tp602
Rp603
sg155
g86
(I113
I37
I12
I12
tp604
Rp605
sg171
g86
(I72
I271
I12
I12
tp606
Rp607
sg265
g86
(I219
I425
I12
I12
tp608
Rp609
sg281
g86
(I243
I428
I12
I12
tp610
Rp611
sg107
g86
(I384
I371
I12
I12
tp612
Rp613
sg56
g86
(I386
I357
I12
I12
tp614
Rp615
sg233
g86
(I84
I190
I12
I12
tp616
Rp617
sg42
g86
(I118
I51
I12
I12
tp618
Rp619
sg329
g86
(I237
I431
I12
I12
tp620
Rp621
sg345
g86
(I80
I200
I12
I12
tp622
Rp623
sg361
g86
(I60
I195
I12
I12
tp624
Rp625
sg186
g86
(I64
I207
I12
I12
tp626
Rp627
sg377
g86
(I247
I417
I12
I12
tp628
Rp629
sg403
g86
(I118
I399
I12
I12
tp630
Rp631
ssg392
(lp632
sbsS'tileNames'
p633
(lp634
S'tile0.png'
p635
aS'tile1.png'
p636
asS'fill'
p637
I0
sS'mobSize'
p638
(isrc.util
Loc
p639
(dp640
g27
I12
sg24
(I12
I12
tp641
sg29
I12
sbsS'scale'
p642
F0.09375
sS'friendlies'
p643
g437
sS'filename'
p644
S'map.p'
p645
sS'width'
p646
I20
sS'enemies'
p647
g52
sS'neutrals'
p648
g196
sS'viewpoint'
p649
(F2560.0
F2560.0
tp650
sS'grid'
p651
(lp652
I1
aI1
aI1
aI1
aI1
aI1
aI1
aI1
aI1
aI1
aI1
aI1
aI1
aI1
aI1
aI1
aI1
aI1
aI1
aI1
aI1
aI0
aI0
aI0
aI0
aI0
aI0
aI0
aI0
aI0
aI0
aI0
aI0
aI0
aI0
aI0
aI0
aI0
aI0
aI1
aI1
aI0
aI0
aI0
aI0
aI0
aI0
aI0
aI0
aI0
aI0
aI0
aI0
aI0
aI0
aI0
aI0
aI0
aI0
aI1
aI1
aI0
aI0
aI0
aI0
aI0
aI0
aI0
aI0
aI0
aI0
aI0
aI0
aI0
aI0
aI0
aI0
aI0
aI0
aI1
aI1
aI0
aI0
aI0
aI0
aI0
aI0
aI0
aI0
aI0
aI0
aI0
aI0
aI0
aI0
aI0
aI0
aI0
aI0
aI1
aI1
aI0
aI0
aI0
aI0
aI0
aI0
aI0
aI0
aI0
aI0
aI0
aI0
aI0
aI0
aI0
aI0
aI0
aI0
aI1
aI1
aI0
aI0
aI0
aI0
aI0
aI0
aI0
aI0
aI0
aI0
aI0
aI0
aI0
aI0
aI0
aI0
aI0
aI0
aI1
aI1
aI0
aI0
aI0
aI0
aI0
aI0
aI0
aI0
aI0
aI0
aI0
aI0
aI0
aI0
aI0
aI0
aI0
aI0
aI1
aI1
aI0
aI0
aI0
aI0
aI0
aI0
aI0
aI0
aI0
aI0
aI0
aI0
aI0
aI0
aI0
aI0
aI0
aI0
aI1
aI1
aI0
aI0
aI0
aI0
aI0
aI0
aI0
aI0
aI0
aI0
aI0
aI0
aI0
aI0
aI0
aI0
aI0
aI0
aI1
aI1
aI0
aI0
aI0
aI0
aI0
aI0
aI0
aI0
aI0
aI0
aI0
aI0
aI0
aI0
aI0
aI0
aI0
aI0
aI1
aI1
aI0
aI0
aI0
aI0
aI0
aI0
aI0
aI0
aI0
aI0
aI0
aI0
aI0
aI0
aI0
aI0
aI0
aI0
aI1
aI1
aI0
aI0
aI0
aI0
aI0
aI0
aI0
aI0
aI0
aI0
aI0
aI0
aI0
aI0
aI0
aI0
aI0
aI0
aI1
aI1
aI0
aI0
aI0
aI0
aI0
aI0
aI0
aI0
aI0
aI0
aI0
aI0
aI0
aI0
aI0
aI0
aI0
aI0
aI1
aI1
aI0
aI0
aI0
aI0
aI0
aI0
aI0
aI0
aI0
aI0
aI0
aI0
aI0
aI0
aI0
aI0
aI0
aI0
aI1
aI1
aI0
aI0
aI0
aI0
aI0
aI0
aI0
aI0
aI0
aI0
aI0
aI0
aI0
aI0
aI0
aI0
aI0
aI0
aI1
aI1
aI0
aI0
aI0
aI0
aI0
aI0
aI0
aI0
aI0
aI0
aI0
aI0
aI0
aI0
aI0
aI0
aI0
aI0
aI1
aI1
aI0
aI0
aI0
aI0
aI0
aI0
aI0
aI0
aI0
aI0
aI0
aI0
aI0
aI0
aI0
aI0
aI0
aI0
aI1
aI1
aI0
aI0
aI0
aI0
aI0
aI0
aI0
aI0
aI0
aI0
aI0
aI0
aI0
aI0
aI0
aI0
aI0
aI0
aI1
aI1
aI1
aI1
aI1
aI1
aI1
aI1
aI1
aI1
aI1
aI1
aI1
aI1
aI1
aI1
aI1
aI1
aI1
aI1
aI1
asS'actorSize'
p653
I12
sS'tileSize'
p654
I24
sS'mobOffset'
p655
(isrc.util
Loc
p656
(dp657
g27
F-6.0
sg24
(F-6.0
F-6.0
tp658
sg29
F-6.0
sbsS'maxScale'
p659
F2.0
sS'mobs'
p660
g38
sS'minScale'
p661
F0.05
s.