(dp0
S'size'
p1
(I20
I20
tp2
sS'actorNames'
p3
(lp4
S'blip.png'
p5
aS'zombie.png'
p6
aS'soldier.png'
p7
aS'civilian.png'
p8
aS'corpse.png'
p9
asS'wall'
p10
I1
sS'height'
p11
I20
sS'visible'
p12
ccopy_reg
_reconstructor
p13
(cpygame.sprite
Group
p14
c__builtin__
object
p15
Ntp16
Rp17
(dp18
S'spritedict'
p19
(dp20
g13
(csrc.actor
Civilian
p21
g15
Ntp22
Rp23
(dp24
S'distanceMoved'
p25
F3.6000000000003527
sS'fleeing'
p26
I01
sS'image'
p27
NsS'blendmode'
p28
I4
sS'speed'
p29
F3.6
sS'maxRiled'
p30
F0.1
sS'loc'
p31
(isrc.util
Loc
p32
(dp33
S'y'
p34
F4594.046628531561
sg31
(F4127.546467127697
F4594.046628531561
tp35
sS'x'
p36
F4127.546467127697
sbsS'riled'
p37
I0
sS'lastLoc'
p38
(isrc.util
Loc
p39
(dp40
g34
F4594.651878683915
sg31
(F4123.997710690143
F4594.651878683915
tp41
sg36
F4123.997710690143
sbsS'_Sprite__g'
p42
(dp43
g13
(g14
g15
Ntp44
Rp45
(dp46
g19
(dp47
g23
cpygame
__rect_constructor
p48
(I856
I955
I27
I27
tp49
Rp50
sg13
(g21
g15
Ntp51
Rp52
(dp53
g25
F3.5999999999999077
sg26
I00
sg27
Nsg28
I4
sg29
F3.6
sg30
F0.1
sg31
(isrc.util
Loc
p54
(dp55
g34
F2807.37355199125
sg31
(F524.8741340522668
F2807.37355199125
tp56
sg36
F524.8741340522668
sbsg37
I0
sg38
(isrc.util
Loc
p57
(dp58
g34
F2810.8967835237445
sg31
(F524.134648035876
F2810.8967835237445
tp59
sg36
F524.134648035876
sbsg42
(dp60
g45
I0
sg17
I0
sg13
(g14
g15
Ntp61
Rp62
(dp63
g19
(dp64
g23
I0
sg52
I0
sg13
(csrc.actor
Soldier
p65
g15
Ntp66
Rp67
(dp68
g25
F0.030317837656163894
sg26
I01
sg27
Nsg28
I4
sg29
F0.030317837656322556
sg30
F0.1
sg31
(isrc.util
Loc
p69
(dp70
g34
F3391.995691737167
sg31
(F2760.0123887873065
F3391.995691737167
tp71
sg36
F2760.0123887873065
sbsg37
I0
sg38
(isrc.util
Loc
p72
(dp73
g34
F3391.99552707396
sg31
(F2760.0427061777973
F3391.99552707396
tp74
sg36
F2760.0427061777973
sbsg42
(dp75
g17
I0
sg62
I0
sg13
(g14
g15
Ntp76
Rp77
(dp78
g19
(dp79
g13
(g65
g15
Ntp80
Rp81
(dp82
g25
F0.09496187299726117
sg26
I01
sg27
Nsg28
I4
sg29
F0.09496187299741696
sg30
F0.1
sg31
(isrc.util
Loc
p83
(dp84
g34
F3382.2316487723797
sg31
(F2813.0207711697326
F3382.2316487723797
tp85
sg36
F2813.0207711697326
sbsg37
I0
sg38
(isrc.util
Loc
p86
(dp87
g34
F3382.219867007121
sg31
(F2813.114999336066
F3382.219867007121
tp88
sg36
F2813.114999336066
sbsg42
(dp89
g17
I0
sg62
I0
sg77
I0
ssS'targetLoc'
p90
(isrc.util
Loc
p91
(dp92
g34
F3423.0
sg31
(F2779.0
F3423.0
tp93
sg36
F2779.0
sbsS'source_rect'
p94
NsS'weapons'
p95
(lp96
g13
(csrc.actor
Rifle
p97
g15
Ntp98
Rp99
(dp100
S'owner'
p101
g81
sS'countdown'
p102
I0
sbag13
(csrc.actor
Punch
p103
g15
Ntp104
Rp105
(dp106
g101
g81
sbasS'leavesCorpse'
p107
csrc.actor
Corpse
p108
sS'direction'
p109
F-3.0172037568838608
sS'_layer'
p110
I0
sS'effects'
p111
(lp112
sS'rect'
p113
g48
(I579
I699
I27
I27
tp114
Rp115
sS'level'
p116
g13
(csrc.tilemap
Map
p117
g15
Ntp118
Rp119
g0
bsS'_visible'
p120
I1
sS'targetDistance'
p121
F1000000000000000.0
sS'dirty'
p122
I1
sS'highlight'
p123
(lp124
sbg48
(I579
I699
I27
I27
tp125
Rp126
sg67
g48
(I568
I701
I27
I27
tp127
Rp128
sg13
(g65
g15
Ntp129
Rp130
(dp131
g25
F4.000000000000028
sg26
I01
sg27
Nsg28
I4
sg29
F4.0
sg30
F0.1
sg31
(isrc.util
Loc
p132
(dp133
g34
F1095.7663873316728
sg31
(F2787.360168098517
F1095.7663873316728
tp134
sg36
F2787.360168098517
sbsg37
I0
sg38
(isrc.util
Loc
p135
(dp136
g34
F1092.3701852138831
sg31
(F2789.473414694426
F1092.3701852138831
tp137
sg36
F2789.473414694426
sbsg42
(dp138
g17
I0
sg62
I0
sg77
I0
ssg90
(isrc.util
Loc
p139
(dp140
g34
F3423.0
sg31
(F2779.0
F3423.0
tp141
sg36
F2779.0
sbsg94
Nsg95
(lp142
g13
(g97
g15
Ntp143
Rp144
(dp145
g101
g130
sg102
I16
sbag13
(g103
g15
Ntp146
Rp147
(dp148
g101
g130
sbasg107
g108
sg109
F-2.1274071425305396
sg110
I0
sg111
(lp149
sg113
g48
(I573
I217
I27
I27
tp150
Rp151
sg116
g119
sg120
I1
sg121
F1000000000000000.0
sg122
I1
sg123
(lp152
sbg48
(I573
I217
I27
I27
tp153
Rp154
ssS'lostsprites'
p155
(lp156
sbI0
ssg90
g91
sg94
Nsg95
(lp157
g13
(g97
g15
Ntp158
Rp159
(dp160
g101
g67
sg102
I0
sbag13
(g103
g15
Ntp161
Rp162
(dp163
g101
g67
sbasg107
g108
sg109
F-3.1361613950005784
sg110
I0
sg111
(lp164
sg113
g48
(I568
I701
I27
I27
tp165
Rp166
sg116
g119
sg120
I1
sg121
F1000000000000000.0
sg122
I1
sg123
(lp167
sbI0
sg13
(g21
g15
Ntp168
Rp169
(dp170
g25
F3.6000000000000387
sg26
I00
sg27
Nsg28
I4
sg29
F3.5999999999999996
sg30
F0.1
sg31
(isrc.util
Loc
p171
(dp172
g34
F2725.882698024919
sg31
(F523.6631918093289
F2725.882698024919
tp173
sg36
F523.6631918093289
sbsg37
I0
sg38
(isrc.util
Loc
p174
(dp175
g34
F2729.480397281299
sg31
(F523.5345059101575
F2729.480397281299
tp176
sg36
F523.5345059101575
sbsg42
(dp177
g45
I0
sg17
I0
sg62
I0
ssg94
Nsg95
(lp178
g13
(g103
g15
Ntp179
Rp180
(dp181
g101
g169
sbasg107
g108
sg109
F1.5350426266914814
sg110
I0
sg111
(lp182
sg113
g48
(I96
I560
I27
I27
tp183
Rp184
sg116
g119
sg120
I1
sg121
F1000000000000000.0
sg122
I1
sg123
(lp185
sbI0
sg13
(g21
g15
Ntp186
Rp187
(dp188
g25
F3.6000000000001378
sg26
I01
sg27
Nsg28
I4
sg29
F3.6
sg30
F0.1
sg31
(isrc.util
Loc
p189
(dp190
g34
F4362.243394971194
sg31
(F2857.2232036706628
F4362.243394971194
tp191
sg36
F2857.2232036706628
sbsg37
I0
sg38
(isrc.util
Loc
p192
(dp193
g34
F4363.549886618717
sg31
(F2860.577764681429
F4363.549886618717
tp194
sg36
F2860.577764681429
sbsg42
(dp195
g45
I0
sg17
I0
sg62
I0
ssg94
Nsg95
(lp196
g13
(g103
g15
Ntp197
Rp198
(dp199
g101
g187
sbasg107
g108
sg109
F2.7701990806857406
sg110
I0
sg111
(lp200
sg113
g48
(I588
I906
I27
I27
tp201
Rp202
sg116
g119
sg120
I1
sg121
F1000000000000000.0
sg122
I1
sg123
(lp203
sbI0
sg130
I0
sg13
(g21
g15
Ntp204
Rp205
(dp206
g25
F2.708251729598854
sg26
I01
sg27
Nsg28
I4
sg29
F2.708251729598891
sg30
F0.1
sg31
(isrc.util
Loc
p207
(dp208
g34
F2853.1480267490133
sg31
(F569.2207528354211
F2853.1480267490133
tp209
sg36
F569.2207528354211
sbsg37
I0
sg38
(isrc.util
Loc
p210
(dp211
g34
F2855.36636302924
sg31
(F567.6671725900827
F2855.36636302924
tp212
sg36
F567.6671725900827
sbsg42
(dp213
g45
I0
sg17
I0
sg62
I0
ssg94
Nsg95
(lp214
g13
(g103
g15
Ntp215
Rp216
(dp217
g101
g205
sbasg107
g108
sg109
F0.9598450494399396
sg110
I0
sg111
(lp218
sg113
g48
(I106
I587
I27
I27
tp219
Rp220
sg116
g119
sg120
I1
sg121
F1000000000000000.0
sg122
I1
sg123
(lp221
sbI0
sg13
(csrc.actor
Zombie
p222
g15
Ntp223
Rp224
(dp225
g25
F3.239826133326465
sg27
Nsg28
I4
sg29
F3.2398261333266407
sg30
F11.0
sg31
(isrc.util
Loc
p226
(dp227
g34
F2690.573448123648
sg31
(F2112.566608115172
F2690.573448123648
tp228
sg36
F2112.566608115172
sbsg37
F11.0
sg38
(isrc.util
Loc
p229
(dp230
g34
F2688.3423675324666
sg31
(F2110.217405533478
F2688.3423675324666
tp231
sg36
F2110.217405533478
sbsg42
(dp232
g17
I0
sg62
I0
sg13
(g14
g15
Ntp233
Rp234
(dp235
g19
(dp236
g13
(g222
g15
Ntp237
Rp238
(dp239
g25
F1.1602694415832957
sg27
Nsg28
I4
sg29
F1.1602694415831405
sg30
F11.0
sg31
(isrc.util
Loc
p240
(dp241
g34
F1536.058648316785
sg31
(F2944.9406642889735
F1536.058648316785
tp242
sg36
F2944.9406642889735
sbsg37
F11.0
sg38
(isrc.util
Loc
p243
(dp244
g34
F1536.058648316785
sg31
(F2943.78039484739
F1536.058648316785
tp245
sg36
F2943.78039484739
sbsg42
(dp246
g17
I0
sg62
I0
sg234
I0
ssg94
Nsg95
(lp247
g13
(csrc.actor
Bite
p248
g15
Ntp249
Rp250
(dp251
g101
g238
sbasg107
g108
sS'health'
p252
F11.0
sg109
F-0.509508980899809
sg110
I0
sg111
(lp253
sg113
g48
(I607
I310
I27
I27
tp254
Rp255
sS'target'
p256
g130
sg116
g119
sg120
I1
sg121
F467.2521400909267
sg122
I1
sg123
(lp257
sbg48
(I607
I310
I27
I27
tp258
Rp259
sg13
(g222
g15
Ntp260
Rp261
(dp262
g25
F4.000000000000187
sg27
Nsg28
I4
sg29
F4.0
sg30
F11.0
sg31
(isrc.util
Loc
p263
(dp264
g34
F4604.089183225058
sg31
(F4073.3497006719826
F4604.089183225058
tp265
sg36
F4073.3497006719826
sbsg37
F11.0
sg38
(isrc.util
Loc
p266
(dp267
g34
F4604.896150952471
sg31
(F4069.431945819147
F4604.896150952471
tp268
sg36
F4069.431945819147
sbsg42
(dp269
g17
I0
sg62
I0
sg234
I0
ssg94
Nsg95
(lp270
g13
(g248
g15
Ntp271
Rp272
(dp273
g101
g261
sg102
I43
sbasg107
g108
sg252
F19.0
sg109
F0.20313609619102796
sg110
I0
sg111
(lp274
sg113
g48
(I845
I957
I27
I27
tp275
Rp276
sg256
g23
sg116
g119
sg120
I1
sg121
F59.118607254262216
sg122
I1
sg123
(lp277
sbg48
(I845
I957
I27
I27
tp278
Rp279
sg13
(g222
g15
Ntp280
Rp281
(dp282
g25
F4.000000000000015
sg27
Nsg28
I4
sg29
F4.0
sg30
F11.0
sg31
(isrc.util
Loc
p283
(dp284
g34
F2740.6264344763267
sg31
(F2059.758595999205
F2740.6264344763267
tp285
sg36
F2059.758595999205
sbsg37
F11.0
sg38
(isrc.util
Loc
p286
(dp287
g34
F2736.6350220157738
sg31
(F2060.0205627332434
F2736.6350220157738
tp288
sg36
F2060.0205627332434
sbsg42
(dp289
g17
I0
sg62
I0
sg234
I0
ssg94
Nsg95
(lp290
g13
(g248
g15
Ntp291
Rp292
(dp293
g101
g281
sg102
I8
sbasg107
g108
sg252
F12.0
sg109
F-1.6363349182906428
sg110
I0
sg111
(lp294
sg113
g48
(I420
I564
I27
I27
tp295
Rp296
sg256
g13
(g21
g15
Ntp297
Rp298
(dp299
g25
F1.3765310228271659
sg26
I01
sg27
Nsg28
I4
sg29
F1.3765310228270407
sg30
F0.1
sg31
(isrc.util
Loc
p300
(dp301
g34
F2711.3032980505945
sg31
(F2114.518327542934
F2711.3032980505945
tp302
sg36
F2114.518327542934
sbsg37
I0
sg38
(isrc.util
Loc
p303
(dp304
g34
F2710.7847958518505
sg31
(F2113.243183187693
F2710.7847958518505
tp305
sg36
F2113.243183187693
sbsg42
(dp306
g45
I0
sg17
I0
sg62
I0
ssg94
Nsg95
(lp307
g13
(g103
g15
Ntp308
Rp309
(dp310
g101
g298
sg102
I8
sbasg107
g108
sg252
F5.5
sg109
F-0.386202233892471
sg110
I0
sg111
(lp311
g13
(csrc.actor
Infection
p312
g15
Ntp313
Rp314
(dp315
g101
g298
sg102
I39
sbasg113
g48
(I432
I557
I27
I27
tp316
Rp317
sg116
g119
sg120
I1
sg121
F1000000000000000.0
sg122
I1
sg123
(lp318
sbsg116
g119
sg120
I1
sg121
F60.09744261031732
sg122
I1
sg123
(lp319
sbg48
(I420
I564
I27
I27
tp320
Rp321
sg224
g48
(I431
I553
I27
I27
tp322
Rp323
sg13
(g222
g15
Ntp324
Rp325
(dp326
g25
F4.000000000000096
sg27
Nsg28
I4
sg29
F4.0
sg30
F7.599999999999989
sg31
(isrc.util
Loc
p327
(dp328
g34
F3125.781788069896
sg31
(F3830.336376155738
F3125.781788069896
tp329
sg36
F3830.336376155738
sbsg37
F7.599999999999989
sg38
(isrc.util
Loc
p330
(dp331
g34
F3129.7803871030737
sg31
(F3830.2305188372884
F3129.7803871030737
tp332
sg36
F3830.2305188372884
sbsg42
(dp333
g17
I0
sg62
I0
sg234
I0
ssg94
Nsg95
(lp334
g13
(g248
g15
Ntp335
Rp336
(dp337
g101
g325
sbasg107
g108
sg109
F1.5443289071122213
sg110
I0
sg111
(lp338
sg113
g48
(I793
I645
I27
I27
tp339
Rp340
sg256
g13
(g21
g15
Ntp341
Rp342
(dp343
g25
F3.60000000000013
sg26
I01
sg27
Nsg28
I4
sg29
F3.6
sg30
F0.1
sg31
(isrc.util
Loc
p344
(dp345
g34
F2949.081668451209
sg31
(F3832.7463033943245
F2949.081668451209
tp346
sg36
F3832.7463033943245
sbsg37
I0
sg38
(isrc.util
Loc
p347
(dp348
g34
F2952.6754680183985
sg31
(F3832.9575015734617
F2952.6754680183985
tp349
sg36
F3832.9575015734617
sbsg42
(dp350
g45
I0
sg17
I0
sg62
I0
ssg94
Nsg95
(lp351
g13
(g103
g15
Ntp352
Rp353
(dp354
g101
g342
sg102
I0
sbasg107
g108
sg109
F1.629496191960681
sg110
I0
sg111
(lp355
sg113
g48
(I794
I608
I27
I27
tp356
Rp357
sg116
g119
sg120
I1
sg121
F1000000000000000.0
sg122
I1
sg123
(lp358
sbsg116
g119
sg120
I1
sg121
F177.12591227381932
sg122
I1
sg123
(lp359
sbg48
(I793
I645
I27
I27
tp360
Rp361
sg13
(g222
g15
Ntp362
Rp363
(dp364
g25
F4.000000000000193
sg27
Nsg28
I4
sg29
F4.0
sg30
F11.0
sg31
(isrc.util
Loc
p365
(dp366
g34
F754.3605705968654
sg31
(F3484.0370148063757
F754.3605705968654
tp367
sg36
F3484.0370148063757
sbsg37
F11.0
sg38
(isrc.util
Loc
p368
(dp369
g34
F754.391160526604
sg31
(F3488.0368978366905
F754.391160526604
tp370
sg36
F3488.0368978366905
sbsg42
(dp371
g17
I0
sg62
I0
sg234
I0
ssg94
Nsg95
(lp372
g13
(g248
g15
Ntp373
Rp374
(dp375
g101
g363
sg102
I0
sbasg107
g108
sg252
F6.0
sg109
F3.1339450966106166
sg110
I0
sg111
(lp376
sg113
g48
(I720
I145
I27
I27
tp377
Rp378
sg256
g13
(g21
g15
Ntp379
Rp380
(dp381
g25
F0.24624632657567685
sg26
I01
sg27
Nsg28
I4
sg29
F0.24624632657562687
sg30
F0.1
sg31
(isrc.util
Loc
p382
(dp383
g34
F753.8785534120397
sg31
(F3272.2606942194384
F753.8785534120397
tp384
sg36
F3272.2606942194384
sbsg37
I0
sg38
(isrc.util
Loc
p385
(dp386
g34
F753.6395429512373
sg31
(F3272.3199500459796
F753.6395429512373
tp387
sg36
F3272.3199500459796
sbsg42
(dp388
g45
I0
sg17
I0
sg62
I0
ssg94
Nsg95
(lp389
g13
(g103
g15
Ntp390
Rp391
(dp392
g101
g380
sg102
I0
sbasg107
g108
sg109
F-1.8138177785940355
sg110
I0
sg111
(lp393
sg113
g48
(I676
I145
I27
I27
tp394
Rp395
sg116
g119
sg120
I1
sg121
F1000000000000000.0
sg122
I1
sg123
(lp396
sbsg116
g119
sg120
I1
sg121
F215.71825720860977
sg122
I1
sg123
(lp397
sbg48
(I720
I145
I27
I27
tp398
Rp399
ssg155
(lp400
sbI0
ssg94
Nsg95
(lp401
g13
(g248
g15
Ntp402
Rp403
(dp404
g101
g224
sg102
I51
sbasg107
g108
sg252
F7.0
sg109
F-0.7596146453346134
sg110
I0
sg111
(lp405
sg113
g48
(I431
I553
I27
I27
tp406
Rp407
sg256
g298
sg116
g119
sg120
I1
sg121
F22.645483419071244
sg122
I1
sg123
(lp408
sbI0
sg13
(g21
g15
Ntp409
Rp410
(dp411
g25
F3.600000000000142
sg26
I01
sg27
Nsg28
I4
sg29
F3.6
sg30
F0.1
sg31
(isrc.util
Loc
p412
(dp413
g34
F4594.111291014178
sg31
(F3172.097512504267
F4594.111291014178
tp414
sg36
F3172.097512504267
sbsg37
I0
sg38
(isrc.util
Loc
p415
(dp416
g34
F4594.746812673356
sg31
(F3175.6409729909547
F4594.746812673356
tp417
sg36
F3175.6409729909547
sbsg42
(dp418
g45
I0
sg17
I0
sg62
I0
ssg94
Nsg95
(lp419
g13
(g103
g15
Ntp420
Rp421
(dp422
g101
g410
sbasg107
g108
sg109
F2.96412883502292
sg110
I0
sg111
(lp423
sg113
g48
(I655
I955
I27
I27
tp424
Rp425
sg116
g119
sg120
I1
sg121
F1000000000000000.0
sg122
I1
sg123
(lp426
sbI0
sg13
(g21
g15
Ntp427
Rp428
(dp429
g25
F2.4005563571157102
sg26
I00
sg27
Nsg28
I4
sg29
F2.400556357115657
sg30
F0.1
sg31
(isrc.util
Loc
p430
(dp431
g34
F2812.8127248314804
sg31
(F471.07081986779116
F2812.8127248314804
tp432
sg36
F471.07081986779116
sbsg37
I0
sg38
(isrc.util
Loc
p433
(dp434
g34
F2810.456070458702
sg31
(F471.52782204607166
F2810.456070458702
tp435
sg36
F471.52782204607166
sbsg42
(dp436
g45
I0
sg17
I0
sg62
I0
ssg94
Nsg95
(lp437
g13
(g103
g15
Ntp438
Rp439
(dp440
g101
g428
sbasg107
g108
sg109
F-1.7623388589259616
sg110
I0
sg111
(lp441
sg113
g48
(I85
I579
I27
I27
tp442
Rp443
sg116
g119
sg120
I1
sg121
F1000000000000000.0
sg122
I1
sg123
(lp444
sbI0
sg13
(g21
g15
Ntp445
Rp446
(dp447
g25
F1.1608745648573018
sg26
I00
sg27
Nsg28
I4
sg29
F1.1608745648572611
sg30
F0.1
sg31
(isrc.util
Loc
p448
(dp449
g34
F3562.063813914647
sg31
(F646.4173401294853
F3562.063813914647
tp450
sg36
F646.4173401294853
sbsg37
I0
sg38
(isrc.util
Loc
p451
(dp452
g34
F3560.9670161839895
sg31
(F646.7976879878422
F3560.9670161839895
tp453
sg36
F646.7976879878422
sbsg42
(dp454
g45
I0
sg17
I0
sg62
I0
ssg94
Nsg95
(lp455
g13
(g103
g15
Ntp456
Rp457
(dp458
g101
g446
sbasg107
g108
sg109
F-1.9045999519907157
sg110
I0
sg111
(lp459
sg113
g48
(I122
I737
I27
I27
tp460
Rp461
sg116
g119
sg120
I1
sg121
F1000000000000000.0
sg122
I1
sg123
(lp462
sbI0
sg13
(g21
g15
Ntp463
Rp464
(dp465
g25
F3.6000000000000596
sg26
I01
sg27
Nsg28
I4
sg29
F3.6
sg30
F0.1
sg31
(isrc.util
Loc
p466
(dp467
g34
F4373.0827803633165
sg31
(F2919.4730314806643
F4373.0827803633165
tp468
sg36
F2919.4730314806643
sbsg37
I0
sg38
(isrc.util
Loc
p469
(dp470
g34
F4374.578822844149
sg31
(F2922.747456147006
F4374.578822844149
tp471
sg36
F2922.747456147006
sbsg42
(dp472
g45
I0
sg17
I0
sg62
I0
ssg94
Nsg95
(lp473
g13
(g103
g15
Ntp474
Rp475
(dp476
g101
g464
sbasg107
g108
sg109
F2.7130261715854838
sg110
I0
sg111
(lp477
sg113
g48
(I601
I908
I27
I27
tp478
Rp479
sg116
g119
sg120
I1
sg121
F1000000000000000.0
sg122
I1
sg123
(lp480
sbI0
sg13
(csrc.actor
Beacon
p481
g15
Ntp482
Rp483
(dp484
g30
F0.1
sg31
(isrc.util
Loc
p485
(dp486
g34
F3423.0
sg31
(F2779.0
F3423.0
tp487
sg36
F2779.0
sbsg109
F0.0
sg37
I0
sg38
(isrc.util
Loc
p488
(dp489
g34
F3423.0
sg31
(F2779.0
F3423.0
tp490
sg36
F2779.0
sbsg42
(dp491
g13
(g14
g15
Ntp492
Rp493
(dp494
g19
(dp495
g13
(g108
g15
Ntp496
Rp497
(dp498
g30
F0.1
sg31
(isrc.util
Loc
p499
(dp500
g34
F2539.780632588075
sg31
(F2428.485635182436
F2539.780632588075
tp501
sg36
F2428.485635182436
sbsg109
F0.0
sg37
I0
sg38
(isrc.util
Loc
p502
(dp503
g34
F2539.780632588075
sg31
(F2428.485635182436
F2539.780632588075
tp504
sg36
F2428.485635182436
sbsg42
(dp505
g493
I0
sg62
I0
sg17
I0
ssg121
F1000000000000000.0
sg27
Nsg120
I1
sg110
I0
sg111
(lp506
g13
(csrc.actor
Incubate
p507
g15
Ntp508
Rp509
(dp510
g101
g497
sg102
I112
sbasg94
Nsg95
(lp511
sg122
I1
sg25
F0.0
sg123
(lp512
sg116
g119
sg29
F0.0
sg113
g48
(I498
I521
I27
I27
tp513
Rp514
sg28
I4
sbg48
(I498
I521
I27
I27
tp515
Rp516
sg13
(g108
g15
Ntp517
Rp518
(dp519
g30
F0.1
sg31
(isrc.util
Loc
p520
(dp521
g34
F761.4098832632119
sg31
(F3985.0988420789104
F761.4098832632119
tp522
sg36
F3985.0988420789104
sbsg109
F0.0
sg37
I0
sg38
(isrc.util
Loc
p523
(dp524
g34
F761.4098832632119
sg31
(F3985.0988420789104
F761.4098832632119
tp525
sg36
F3985.0988420789104
sbsg42
(dp526
g493
I0
sg62
I0
sg17
I0
ssg121
F1000000000000000.0
sg27
Nsg120
I1
sg110
I0
sg111
(lp527
g13
(g507
g15
Ntp528
Rp529
(dp530
g101
g518
sg102
I180
sbasg94
Nsg95
(lp531
sg122
I1
sg25
F0.0
sg123
(lp532
sg116
g119
sg29
F0.0
sg113
g48
(I826
I146
I27
I27
tp533
Rp534
sg28
I4
sbg48
(I826
I146
I27
I27
tp535
Rp536
sg13
(g108
g15
Ntp537
Rp538
(dp539
g30
F0.1
sg31
(isrc.util
Loc
p540
(dp541
g34
F3279.3789812298296
sg31
(F3849.0632770724646
F3279.3789812298296
tp542
sg36
F3849.0632770724646
sbsg109
F0.0
sg37
I0
sg38
(isrc.util
Loc
p543
(dp544
g34
F3279.3789812298296
sg31
(F3849.0632770724646
F3279.3789812298296
tp545
sg36
F3849.0632770724646
sbsg42
(dp546
g493
I0
sg62
I0
sg17
I0
ssg121
F1000000000000000.0
sg27
Nsg120
I1
sg110
I0
sg111
(lp547
sg94
Nsg95
(lp548
sg122
I1
sg25
F0.0
sg123
(lp549
sg116
g119
sg29
F0.0
sg113
g48
(I797
I677
I27
I27
tp550
Rp551
sg28
I4
sbg48
(I797
I677
I27
I27
tp552
Rp553
sg483
g48
(I572
I708
I27
I27
tp554
Rp555
sg13
(g108
g15
Ntp556
Rp557
(dp558
g30
F0.1
sg31
(isrc.util
Loc
p559
(dp560
g34
F3133.658331094614
sg31
(F3874.146309316435
F3133.658331094614
tp561
sg36
F3874.146309316435
sbsg109
F0.0
sg37
I0
sg38
(isrc.util
Loc
p562
(dp563
g34
F3133.658331094614
sg31
(F3874.146309316435
F3133.658331094614
tp564
sg36
F3874.146309316435
sbsg42
(dp565
g493
I0
sg62
I0
sg17
I0
ssg121
F1000000000000000.0
sg27
Nsg120
I1
sg110
I0
sg111
(lp566
sg94
Nsg95
(lp567
sg122
I1
sg25
F0.0
sg123
(lp568
sg116
g119
sg29
F0.0
sg113
g48
(I803
I647
I27
I27
tp569
Rp570
sg28
I4
sbg48
(I803
I647
I27
I27
tp571
Rp572
ssg155
(lp573
sbI0
sg62
I0
sg17
I0
ssg121
F1000000000000000.0
sg27
Nsg120
I1
sg110
I0
sg111
(lp574
sg94
Nsg95
(lp575
sg122
I1
sg25
F0.0
sg123
(lp576
sg116
g119
sg29
F0.0
sg113
g48
(I572
I708
I27
I27
tp577
Rp578
sg28
I4
sbI0
sg13
(g21
g15
Ntp579
Rp580
(dp581
g25
F3.5999999999999663
sg26
I01
sg27
Nsg28
I4
sg29
F3.6
sg30
F0.1
sg31
(isrc.util
Loc
p582
(dp583
g34
F3053.463033513335
sg31
(F903.3315808330849
F3053.463033513335
tp584
sg36
F903.3315808330849
sbsg37
I0
sg38
(isrc.util
Loc
p585
(dp586
g34
F3053.908478544345
sg31
(F906.9039160251334
F3053.908478544345
tp587
sg36
F906.9039160251334
sbsg42
(dp588
g45
I0
sg17
I0
sg62
I0
ssg94
Nsg95
(lp589
g13
(g103
g15
Ntp590
Rp591
(dp592
g101
g580
sbasg107
g108
sg109
F3.0175399917826686
sg110
I0
sg111
(lp593
sg113
g48
(I176
I630
I27
I27
tp594
Rp595
sg116
g119
sg120
I1
sg121
F1000000000000000.0
sg122
I1
sg123
(lp596
sbI0
sg325
I0
sg538
I0
sg81
I0
sg557
I0
sg13
(g21
g15
Ntp597
Rp598
(dp599
g25
F0.16689859730214487
sg26
I01
sg27
Nsg28
I4
sg29
F0.16689859730209428
sg30
F0.1
sg31
(isrc.util
Loc
p600
(dp601
g34
F3585.6716855964473
sg31
(F1140.3385566813593
F3585.6716855964473
tp602
sg36
F1140.3385566813593
sbsg37
I0
sg38
(isrc.util
Loc
p603
(dp604
g34
F3585.5134721643685
sg31
(F1140.3916947250875
F3585.5134721643685
tp605
sg36
F1140.3916947250875
sbsg42
(dp606
g45
I0
sg17
I0
sg62
I0
ssg94
Nsg95
(lp607
g13
(g103
g15
Ntp608
Rp609
(dp610
g101
g598
sbasg107
g108
sg109
F-1.8948218836762198
sg110
I0
sg111
(lp611
sg113
g48
(I226
I742
I27
I27
tp612
Rp613
sg116
g119
sg120
I1
sg121
F1000000000000000.0
sg122
I1
sg123
(lp614
sbI0
sg13
(g21
g15
Ntp615
Rp616
(dp617
g25
F0.5202708649539767
sg26
I01
sg27
Nsg28
I4
sg29
F0.5202708649539827
sg30
F0.1
sg31
(isrc.util
Loc
p618
(dp619
g34
F2821.671661217314
sg31
(F601.9614468218687
F2821.671661217314
tp620
sg36
F601.9614468218687
sbsg37
I0
sg38
(isrc.util
Loc
p621
(dp622
g34
F2821.6942163463013
sg31
(F602.4812285443987
F2821.6942163463013
tp623
sg36
F602.4812285443987
sbsg42
(dp624
g45
I0
sg17
I0
sg62
I0
ssg94
Nsg95
(lp625
g13
(g103
g15
Ntp626
Rp627
(dp628
g101
g616
sbasg107
g108
sg109
F3.0982263963013614
sg110
I0
sg111
(lp629
sg113
g48
(I112
I581
I27
I27
tp630
Rp631
sg116
g119
sg120
I1
sg121
F1000000000000000.0
sg122
I1
sg123
(lp632
sbI0
sg13
(g21
g15
Ntp633
Rp634
(dp635
g25
F3.6000000000002723
sg26
I01
sg27
Nsg28
I4
sg29
F3.6
sg30
F0.1
sg31
(isrc.util
Loc
p636
(dp637
g34
F4341.283525039028
sg31
(F2893.59416835408
F4341.283525039028
tp638
sg36
F2893.59416835408
sbsg37
I0
sg38
(isrc.util
Loc
p639
(dp640
g34
F4342.237224217145
sg31
(F2890.1227914114734
F4342.237224217145
tp641
sg36
F2890.1227914114734
sbsg42
(dp642
g45
I0
sg17
I0
sg62
I0
ssg94
Nsg95
(lp643
g13
(g103
g15
Ntp644
Rp645
(dp646
g101
g634
sbasg107
g108
sg109
F0.2681172634896569
sg110
I0
sg111
(lp647
sg113
g48
(I596
I901
I27
I27
tp648
Rp649
sg116
g119
sg120
I1
sg121
F1000000000000000.0
sg122
I1
sg123
(lp650
sbI0
sg13
(g21
g15
Ntp651
Rp652
(dp653
g25
F0.2035476933191409
sg26
I01
sg27
Nsg28
I4
sg29
F0.2035476933190386
sg30
F0.1
sg31
(isrc.util
Loc
p654
(dp655
g34
F3604.8851151606946
sg31
(F1124.8021742944234
F3604.8851151606946
tp656
sg36
F1124.8021742944234
sbsg37
I0
sg38
(isrc.util
Loc
p657
(dp658
g34
F3605.086973602376
sg31
(F1124.8283436080842
F3605.086973602376
tp659
sg36
F1124.8283436080842
sbsg42
(dp660
g45
I0
sg17
I0
sg62
I0
ssg94
Nsg95
(lp661
g13
(g103
g15
Ntp662
Rp663
(dp664
g101
g652
sbasg107
g108
sg109
F1.6997191745760276
sg110
I0
sg111
(lp665
sg113
g48
(I223
I746
I27
I27
tp666
Rp667
sg116
g119
sg120
I1
sg121
F1000000000000000.0
sg122
I1
sg123
(lp668
sbI0
sg13
(g21
g15
Ntp669
Rp670
(dp671
g25
F3.6000000000000196
sg26
I00
sg27
Nsg28
I4
sg29
F3.6
sg30
F0.1
sg31
(isrc.util
Loc
p672
(dp673
g34
F2946.4412898855744
sg31
(F523.458549974513
F2946.4412898855744
tp674
sg36
F523.458549974513
sbsg37
I0
sg38
(isrc.util
Loc
p675
(dp676
g34
F2949.757323020643
sg31
(F522.0571491584982
F2949.757323020643
tp677
sg36
F522.0571491584982
sbsg42
(dp678
g45
I0
sg17
I0
sg62
I0
ssg94
Nsg95
(lp679
g13
(g103
g15
Ntp680
Rp681
(dp682
g101
g670
sbasg107
g108
sg109
F1.1709486873243737
sg110
I0
sg111
(lp683
sg113
g48
(I96
I607
I27
I27
tp684
Rp685
sg116
g119
sg120
I1
sg121
F1000000000000000.0
sg122
I1
sg123
(lp686
sbI0
sg13
(g21
g15
Ntp687
Rp688
(dp689
g25
F3.5999999999997927
sg26
I01
sg27
Nsg28
I4
sg29
F3.5999999999999996
sg30
F0.1
sg31
(isrc.util
Loc
p690
(dp691
g34
F4588.562118463486
sg31
(F3249.969407716967
F4588.562118463486
tp692
sg36
F3249.969407716967
sbsg37
I0
sg38
(isrc.util
Loc
p693
(dp694
g34
F4590.224602684073
sg31
(F3253.1625482112604
F4590.224602684073
tp695
sg36
F3253.1625482112604
sbsg42
(dp696
g45
I0
sg17
I0
sg62
I0
ssg94
Nsg95
(lp697
g13
(g103
g15
Ntp698
Rp699
(dp700
g101
g688
sbasg107
g108
sg109
F2.6615678541400234
sg110
I0
sg111
(lp701
sg113
g48
(I671
I953
I27
I27
tp702
Rp703
sg116
g119
sg120
I1
sg121
F1000000000000000.0
sg122
I1
sg123
(lp704
sbI0
sg261
I0
sg13
(g21
g15
Ntp705
Rp706
(dp707
g25
F3.6000000000000503
sg26
I01
sg27
Nsg28
I4
sg29
F3.6
sg30
F0.1
sg31
(isrc.util
Loc
p708
(dp709
g34
F4456.384481325371
sg31
(F3053.7917173412966
F4456.384481325371
tp710
sg36
F3053.7917173412966
sbsg37
I0
sg38
(isrc.util
Loc
p711
(dp712
g34
F4459.837481653817
sg31
(F3054.809945572957
F4459.837481653817
tp713
sg36
F3054.809945572957
sbsg42
(dp714
g45
I0
sg17
I0
sg62
I0
ssg94
Nsg95
(lp715
g13
(g103
g15
Ntp716
Rp717
(dp718
g101
g706
sbasg107
g108
sg109
F1.8575512765595987
sg110
I0
sg111
(lp719
sg113
g48
(I630
I926
I27
I27
tp720
Rp721
sg116
g119
sg120
I1
sg121
F1000000000000000.0
sg122
I1
sg123
(lp722
sbI0
sg238
I0
sg13
(g21
g15
Ntp723
Rp724
(dp725
g25
F3.6000000000000276
sg26
I01
sg27
Nsg28
I4
sg29
F3.6
sg30
F0.1
sg31
(isrc.util
Loc
p726
(dp727
g34
F3078.8605513417306
sg31
(F874.6147634486327
F3078.8605513417306
tp728
sg36
F874.6147634486327
sbsg37
I0
sg38
(isrc.util
Loc
p729
(dp730
g34
F3078.0091427037023
sg31
(F871.1168921915549
F3078.0091427037023
tp731
sg36
F871.1168921915549
sbsg42
(dp732
g45
I0
sg17
I0
sg62
I0
ssg94
Nsg95
(lp733
g13
(g103
g15
Ntp734
Rp735
(dp736
g101
g724
sbasg107
g108
sg109
F-0.23876454344194598
sg110
I0
sg111
(lp737
sg113
g48
(I170
I635
I27
I27
tp738
Rp739
sg116
g119
sg120
I1
sg121
F1000000000000000.0
sg122
I1
sg123
(lp740
sbI0
sg13
(g21
g15
Ntp741
Rp742
(dp743
g25
F1.7869844063458264
sg26
I01
sg27
Nsg28
I4
sg29
F1.7869844063456544
sg30
F0.1
sg31
(isrc.util
Loc
p744
(dp745
g34
F3072.5394000951273
sg31
(F962.0124236265327
F3072.5394000951273
tp746
sg36
F962.0124236265327
sbsg37
I0
sg38
(isrc.util
Loc
p747
(dp748
g34
F3074.202328154624
sg31
(F961.3582191191637
F3074.202328154624
tp749
sg36
F961.3582191191637
sbsg42
(dp750
g45
I0
sg17
I0
sg62
I0
ssg94
Nsg95
(lp751
g13
(g103
g15
Ntp752
Rp753
(dp754
g101
g742
sbasg107
g108
sg109
F1.1959880383982582
sg110
I0
sg111
(lp755
sg113
g48
(I188
I634
I27
I27
tp756
Rp757
sg116
g119
sg120
I1
sg121
F1000000000000000.0
sg122
I1
sg123
(lp758
sbI0
sg497
I0
sg342
I0
sg518
I0
sg13
(g21
g15
Ntp759
Rp760
(dp761
g25
F0.5785456016860209
sg26
I01
sg27
Nsg28
I4
sg29
F0.5785456016859409
sg30
F0.1
sg31
(isrc.util
Loc
p762
(dp763
g34
F3633.3346597965024
sg31
(F1154.0520564483452
F3633.3346597965024
tp764
sg36
F1154.0520564483452
sbsg37
I0
sg38
(isrc.util
Loc
p765
(dp766
g34
F3632.7850706684294
sg31
(F1154.2327960498005
F3632.7850706684294
tp767
sg36
F1154.2327960498005
sbsg42
(dp768
g45
I0
sg17
I0
sg62
I0
ssg94
Nsg95
(lp769
g13
(g103
g15
Ntp770
Rp771
(dp772
g101
g760
sbasg107
g108
sg109
F-1.888518318363913
sg110
I0
sg111
(lp773
sg113
g48
(I229
I752
I27
I27
tp774
Rp775
sg116
g119
sg120
I1
sg121
F1000000000000000.0
sg122
I1
sg123
(lp776
sbI0
sg13
(g21
g15
Ntp777
Rp778
(dp779
g25
F0.001691028174200585
sg26
I01
sg27
Nsg28
I4
sg29
F0.0016910281743620903
sg30
F0.1
sg31
(isrc.util
Loc
p780
(dp781
g34
F2290.6171587452877
sg31
(F1635.9773411158822
F2290.6171587452877
tp782
sg36
F1635.9773411158822
sbsg37
I0
sg38
(isrc.util
Loc
p783
(dp784
g34
F2290.616019704164
sg31
(F1635.9760912512477
F2290.616019704164
tp785
sg36
F1635.9760912512477
sbsg42
(dp786
g45
I0
sg17
I0
sg62
I0
ssg94
Nsg95
(lp787
g13
(g103
g15
Ntp788
Rp789
(dp790
g101
g778
sbasg107
g108
sg109
F-0.7390404906454903
sg110
I0
sg111
(lp791
sg113
g48
(I331
I469
I27
I27
tp792
Rp793
sg116
g119
sg120
I1
sg121
F1000000000000000.0
sg122
I1
sg123
(lp794
sbI0
sg13
(g21
g15
Ntp795
Rp796
(dp797
g25
F0.1641145252451323
sg26
I01
sg27
Nsg28
I4
sg29
F0.16411452524500306
sg30
F0.1
sg31
(isrc.util
Loc
p798
(dp799
g34
F3124.075578761798
sg31
(F999.4449249575085
F3124.075578761798
tp800
sg36
F999.4449249575085
sbsg37
I0
sg38
(isrc.util
Loc
p801
(dp802
g34
F3124.1472007628868
sg31
(F999.5925862806656
F3124.1472007628868
tp803
sg36
F999.5925862806656
sbsg42
(dp804
g45
I0
sg17
I0
sg62
I0
ssg94
Nsg95
(lp805
g13
(g103
g15
Ntp806
Rp807
(dp808
g101
g796
sbasg107
g108
sg109
F2.689982575725332
sg110
I0
sg111
(lp809
sg113
g48
(I196
I644
I27
I27
tp810
Rp811
sg116
g119
sg120
I1
sg121
F1000000000000000.0
sg122
I1
sg123
(lp812
sbI0
sg13
(g21
g15
Ntp813
Rp814
(dp815
g25
F0.6182820155355867
sg26
I01
sg27
Nsg28
I4
sg29
F0.6182820155356762
sg30
F0.1
sg31
(isrc.util
Loc
p816
(dp817
g34
F3107.6086579362754
sg31
(F976.4046615595807
F3107.6086579362754
tp818
sg36
F976.4046615595807
sbsg37
I0
sg38
(isrc.util
Loc
p819
(dp820
g34
F3108.186145466665
sg31
(F976.6255253252357
F3108.186145466665
tp821
sg36
F976.6255253252357
sbsg42
(dp822
g45
I0
sg17
I0
sg62
I0
ssg94
Nsg95
(lp823
g13
(g103
g15
Ntp824
Rp825
(dp826
g101
g814
sbasg107
g108
sg109
F1.9360879816301488
sg110
I0
sg111
(lp827
sg113
g48
(I191
I641
I27
I27
tp828
Rp829
sg116
g119
sg120
I1
sg121
F1000000000000000.0
sg122
I1
sg123
(lp830
sbI0
sg13
(g21
g15
Ntp831
Rp832
(dp833
g25
F3.600000000000112
sg26
I00
sg27
Nsg28
I4
sg29
F3.6
sg30
F0.1
sg31
(isrc.util
Loc
p834
(dp835
g34
F2914.3381467787854
sg31
(F493.6735111093499
F2914.3381467787854
tp836
sg36
F493.6735111093499
sbsg37
I0
sg38
(isrc.util
Loc
p837
(dp838
g34
F2910.8288863915086
sg31
(F492.87033520440065
F2910.8288863915086
tp839
sg36
F492.87033520440065
sbsg42
(dp840
g45
I0
sg17
I0
sg62
I0
ssg94
Nsg95
(lp841
g13
(g103
g15
Ntp842
Rp843
(dp844
g101
g832
sbasg107
g108
sg109
F-1.3457983211543636
sg110
I0
sg111
(lp845
sg113
g48
(I90
I600
I27
I27
tp846
Rp847
sg116
g119
sg120
I1
sg121
F1000000000000000.0
sg122
I1
sg123
(lp848
sbI0
sg13
(g21
g15
Ntp849
Rp850
(dp851
g25
F0.30109027720047116
sg26
I01
sg27
Nsg28
I4
sg29
F0.3010902772005077
sg30
F0.1
sg31
(isrc.util
Loc
p852
(dp853
g34
F3622.3796610805603
sg31
(F1129.518205639505
F3622.3796610805603
tp854
sg36
F1129.518205639505
sbsg37
I0
sg38
(isrc.util
Loc
p855
(dp856
g34
F3622.662796599697
sg31
(F1129.6206245480519
F3622.662796599697
tp857
sg36
F1129.6206245480519
sbsg42
(dp858
g45
I0
sg17
I0
sg62
I0
ssg94
Nsg95
(lp859
g13
(g103
g15
Ntp860
Rp861
(dp862
g101
g850
sbasg107
g108
sg109
F1.9178835060805774
sg110
I0
sg111
(lp863
sg113
g48
(I224
I750
I27
I27
tp864
Rp865
sg116
g119
sg120
I1
sg121
F1000000000000000.0
sg122
I1
sg123
(lp866
sbI0
sg13
(g21
g15
Ntp867
Rp868
(dp869
g25
F0.13796372772902274
sg26
I01
sg27
Nsg28
I4
sg29
F0.1379637277289908
sg30
F0.1
sg31
(isrc.util
Loc
p870
(dp871
g34
F3588.4242565153895
sg31
(F1123.2461591057365
F3588.4242565153895
tp872
sg36
F1123.2461591057365
sbsg37
I0
sg38
(isrc.util
Loc
p873
(dp874
g34
F3588.5621842100977
sg31
(F1123.2493120728107
F3588.5621842100977
tp875
sg36
F1123.2493120728107
sbsg42
(dp876
g45
I0
sg17
I0
sg62
I0
ssg94
Nsg95
(lp877
g13
(g103
g15
Ntp878
Rp879
(dp880
g101
g868
sbasg107
g108
sg109
F1.5936519110084815
sg110
I0
sg111
(lp881
sg113
g48
(I222
I742
I27
I27
tp882
Rp883
sg116
g119
sg120
I1
sg121
F1000000000000000.0
sg122
I1
sg123
(lp884
sbI0
sg13
(g21
g15
Ntp885
Rp886
(dp887
g25
F3.59999999999962
sg26
I01
sg27
Nsg28
I4
sg29
F3.6
sg30
F0.1
sg31
(isrc.util
Loc
p888
(dp889
g34
F3596.007535148583
sg31
(F4350.632567882694
F3596.007535148583
tp890
sg36
F4350.632567882694
sbsg37
I0
sg38
(isrc.util
Loc
p891
(dp892
g34
F3596.4016265332284
sg31
(F4347.054203454559
F3596.4016265332284
tp893
sg36
F4347.054203454559
sbsg42
(dp894
g45
I0
sg17
I0
sg62
I0
ssg94
Nsg95
(lp895
g13
(g103
g15
Ntp896
Rp897
(dp898
g101
g886
sbasg107
g108
sg109
F0.10968965783493222
sg110
I0
sg111
(lp899
sg113
g48
(I903
I744
I27
I27
tp900
Rp901
sg116
g119
sg120
I1
sg121
F1000000000000000.0
sg122
I1
sg123
(lp902
sbI0
sg13
(g21
g15
Ntp903
Rp904
(dp905
g25
F1.9153700872409338
sg26
I01
sg27
Nsg28
I4
sg29
F1.9153700872407222
sg30
F0.1
sg31
(isrc.util
Loc
p906
(dp907
g34
F4329.031466312329
sg31
(F3040.8049137349954
F4329.031466312329
tp908
sg36
F3040.8049137349954
sbsg37
I0
sg38
(isrc.util
Loc
p909
(dp910
g34
F4327.779135304558
sg31
(F3039.35566923593
F4327.779135304558
tp911
sg36
F3039.35566923593
sbsg42
(dp912
g45
I0
sg17
I0
sg62
I0
ssg94
Nsg95
(lp913
g13
(g103
g15
Ntp914
Rp915
(dp916
g101
g904
sbasg107
g108
sg109
F-0.7126384411834347
sg110
I0
sg111
(lp917
sg113
g48
(I627
I899
I27
I27
tp918
Rp919
sg116
g119
sg120
I1
sg121
F1000000000000000.0
sg122
I1
sg123
(lp920
sbI0
sg363
I0
sg13
(g21
g15
Ntp921
Rp922
(dp923
g25
F2.1597216023824886
sg26
I01
sg27
Nsg28
I4
sg29
F2.1597216023824872
sg30
F0.1
sg31
(isrc.util
Loc
p924
(dp925
g34
F4381.8940542814635
sg31
(F3037.03984468191
F4381.8940542814635
tp926
sg36
F3037.03984468191
sbsg37
I0
sg38
(isrc.util
Loc
p927
(dp928
g34
F4380.450489594363
sg31
(F3038.646243883215
F4380.450489594363
tp929
sg36
F3038.646243883215
sbsg42
(dp930
g45
I0
sg17
I0
sg62
I0
ssg94
Nsg95
(lp931
g13
(g103
g15
Ntp932
Rp933
(dp934
g101
g922
sbasg107
g108
sg109
F-2.4095328478014193
sg110
I0
sg111
(lp935
sg113
g48
(I626
I910
I27
I27
tp936
Rp937
sg116
g119
sg120
I1
sg121
F1000000000000000.0
sg122
I1
sg123
(lp938
sbI0
sg13
(g21
g15
Ntp939
Rp940
(dp941
g25
F0.057390807505272506
sg26
I01
sg27
Nsg28
I4
sg29
F0.05739080750531759
sg30
F0.1
sg31
(isrc.util
Loc
p942
(dp943
g34
F2266.172142583731
sg31
(F1642.442943663579
F2266.172142583731
tp944
sg36
F1642.442943663579
sbsg37
I0
sg38
(isrc.util
Loc
p945
(dp946
g34
F2266.2234730886203
sg31
(F1642.4172749266816
F2266.2234730886203
tp947
sg36
F1642.4172749266816
sbsg42
(dp948
g45
I0
sg17
I0
sg62
I0
ssg94
Nsg95
(lp949
g13
(g103
g15
Ntp950
Rp951
(dp952
g101
g940
sbasg107
g108
sg109
F1.1070944131186269
sg110
I0
sg111
(lp953
sg113
g48
(I332
I464
I27
I27
tp954
Rp955
sg116
g119
sg120
I1
sg121
F1000000000000000.0
sg122
I1
sg123
(lp956
sbI0
sg13
(g21
g15
Ntp957
Rp958
(dp959
g25
F3.5925748558867063
sg26
I01
sg27
Nsg28
I4
sg29
F3.59257485588673
sg30
F0.1
sg31
(isrc.util
Loc
p960
(dp961
g34
F4479.034774221904
sg31
(F2728.1518675931743
F4479.034774221904
tp962
sg36
F2728.1518675931743
sbsg37
I0
sg38
(isrc.util
Loc
p963
(dp964
g34
F4479.292494093616
sg31
(F2731.735186524399
F4479.292494093616
tp965
sg36
F2731.735186524399
sbsg42
(dp966
g45
I0
sg17
I0
sg62
I0
ssg94
Nsg95
(lp967
g13
(g103
g15
Ntp968
Rp969
(dp970
g101
g958
sbasg107
g108
sg109
F3.0697941690527504
sg110
I0
sg111
(lp971
sg113
g48
(I561
I930
I27
I27
tp972
Rp973
sg116
g119
sg120
I1
sg121
F1000000000000000.0
sg122
I1
sg123
(lp974
sbI0
sg13
(g21
g15
Ntp975
Rp976
(dp977
g25
F0.44372109198881343
sg26
I01
sg27
Nsg28
I4
sg29
F0.44372109198886645
sg30
F0.1
sg31
(isrc.util
Loc
p978
(dp979
g34
F3637.172361485
sg31
(F1139.6725922280493
F3637.172361485
tp980
sg36
F1139.6725922280493
sbsg37
I0
sg38
(isrc.util
Loc
p981
(dp982
g34
F3637.4282270374183
sg31
(F1140.0351128847867
F3637.4282270374183
tp983
sg36
F1140.0351128847867
sbsg42
(dp984
g45
I0
sg17
I0
sg62
I0
ssg94
Nsg95
(lp985
g13
(g103
g15
Ntp986
Rp987
(dp988
g101
g976
sbasg107
g108
sg109
F2.52698748093653
sg110
I0
sg111
(lp989
sg113
g48
(I226
I753
I27
I27
tp990
Rp991
sg116
g119
sg120
I1
sg121
F1000000000000000.0
sg122
I1
sg123
(lp992
sbI0
sg298
I0
sg13
(g21
g15
Ntp993
Rp994
(dp995
g25
F3.2683513676027216
sg26
I01
sg27
Nsg28
I4
sg29
F3.268351367602606
sg30
F0.1
sg31
(isrc.util
Loc
p996
(dp997
g34
F4387.93541298636
sg31
(F2961.0789835516466
F4387.93541298636
tp998
sg36
F2961.0789835516466
sbsg37
I0
sg38
(isrc.util
Loc
p999
(dp1000
g34
F4388.580385956939
sg31
(F2964.2830638454802
F4388.580385956939
tp1001
sg36
F2964.2830638454802
sbsg42
(dp1002
g45
I0
sg17
I0
sg62
I0
ssg94
Nsg95
(lp1003
g13
(g103
g15
Ntp1004
Rp1005
(dp1006
g101
g994
sbasg107
g108
sg109
F2.942949924145136
sg110
I0
sg111
(lp1007
sg113
g48
(I610
I911
I27
I27
tp1008
Rp1009
sg116
g119
sg120
I1
sg121
F1000000000000000.0
sg122
I1
sg123
(lp1010
sbI0
sg281
I0
sg380
I0
sg13
(g21
g15
Ntp1011
Rp1012
(dp1013
g25
F1.0720037011185282
sg26
I01
sg27
Nsg28
I4
sg29
F1.0720037011182668
sg30
F0.1
sg31
(isrc.util
Loc
p1014
(dp1015
g34
F4325.403316682144
sg31
(F3007.8407617446746
F4325.403316682144
tp1016
sg36
F3007.8407617446746
sbsg37
I0
sg38
(isrc.util
Loc
p1017
(dp1018
g34
F4325.686139062713
sg31
(F3006.8067388066984
F4325.686139062713
tp1019
sg36
F3006.8067388066984
sbsg42
(dp1020
g45
I0
sg17
I0
sg62
I0
ssg94
Nsg95
(lp1021
g13
(g103
g15
Ntp1022
Rp1023
(dp1024
g101
g1012
sbasg107
g108
sg109
F0.2669865314193993
sg110
I0
sg111
(lp1025
sg113
g48
(I620
I898
I27
I27
tp1026
Rp1027
sg116
g119
sg120
I1
sg121
F1000000000000000.0
sg122
I1
sg123
(lp1028
sbI0
sg13
(g21
g15
Ntp1029
Rp1030
(dp1031
g25
F3.5999999999999908
sg26
I01
sg27
Nsg28
I4
sg29
F3.6
sg30
F0.1
sg31
(isrc.util
Loc
p1032
(dp1033
g34
F4422.3318296544285
sg31
(F2798.186009916475
F4422.3318296544285
tp1034
sg36
F2798.186009916475
sbsg37
I0
sg38
(isrc.util
Loc
p1035
(dp1036
g34
F4418.860523419785
sg31
(F2799.1399664277083
F4418.860523419785
tp1037
sg36
F2799.1399664277083
sbsg42
(dp1038
g45
I0
sg17
I0
sg62
I0
ssg94
Nsg95
(lp1039
g13
(g103
g15
Ntp1040
Rp1041
(dp1042
g101
g1030
sbasg107
g108
sg109
F-1.8389877210233558
sg110
I0
sg111
(lp1043
sg113
g48
(I576
I918
I27
I27
tp1044
Rp1045
sg116
g119
sg120
I1
sg121
F1000000000000000.0
sg122
I1
sg123
(lp1046
sbI0
sg13
(g21
g15
Ntp1047
Rp1048
(dp1049
g25
F3.6000000000000374
sg26
I01
sg27
Nsg28
I4
sg29
F3.6
sg30
F0.1
sg31
(isrc.util
Loc
p1050
(dp1051
g34
F3324.81953301698
sg31
(F4696.581202270134
F3324.81953301698
tp1052
sg36
F4696.581202270134
sbsg37
I0
sg38
(isrc.util
Loc
p1053
(dp1054
g34
F3324.996485758425
sg31
(F4692.985553826905
F3324.996485758425
tp1055
sg36
F4692.985553826905
sbsg42
(dp1056
g45
I0
sg17
I0
sg62
I0
ssg94
Nsg95
(lp1057
g13
(g103
g15
Ntp1058
Rp1059
(dp1060
g101
g1048
sg102
I0
sbasg107
g108
sg109
F0.049173353909627765
sg110
I0
sg111
(lp1061
sg113
g48
(I976
I687
I27
I27
tp1062
Rp1063
sg116
g119
sg120
I1
sg121
F1000000000000000.0
sg122
I1
sg123
(lp1064
sbI0
ssg155
(lp1065
sbI0
ssg94
Nsg95
(lp1066
g13
(g103
g15
Ntp1067
Rp1068
(dp1069
g101
g52
sbasg107
g108
sg109
F1.3639108616530284
sg110
I0
sg111
(lp1070
sg113
g48
(I96
I578
I27
I27
tp1071
Rp1072
sg116
g119
sg120
I1
sg121
F1000000000000000.0
sg122
I1
sg123
(lp1073
sbg48
(I96
I578
I27
I27
tp1074
Rp1075
sg169
g48
(I96
I560
I27
I27
tp1076
Rp1077
sg187
g48
(I588
I906
I27
I27
tp1078
Rp1079
sg205
g48
(I106
I587
I27
I27
tp1080
Rp1081
sg410
g48
(I655
I955
I27
I27
tp1082
Rp1083
sg428
g48
(I85
I579
I27
I27
tp1084
Rp1085
sg446
g48
(I122
I737
I27
I27
tp1086
Rp1087
sg464
g48
(I601
I908
I27
I27
tp1088
Rp1089
sg580
g48
(I176
I630
I27
I27
tp1090
Rp1091
sg598
g48
(I226
I742
I27
I27
tp1092
Rp1093
sg634
g48
(I596
I901
I27
I27
tp1094
Rp1095
sg652
g48
(I223
I746
I27
I27
tp1096
Rp1097
sg670
g48
(I96
I607
I27
I27
tp1098
Rp1099
sg688
g48
(I671
I953
I27
I27
tp1100
Rp1101
sg706
g48
(I630
I926
I27
I27
tp1102
Rp1103
sg724
g48
(I170
I635
I27
I27
tp1104
Rp1105
sg742
g48
(I188
I634
I27
I27
tp1106
Rp1107
sg342
g48
(I794
I608
I27
I27
tp1108
Rp1109
sg760
g48
(I229
I752
I27
I27
tp1110
Rp1111
sg778
g48
(I331
I469
I27
I27
tp1112
Rp1113
sg796
g48
(I196
I644
I27
I27
tp1114
Rp1115
sg814
g48
(I191
I641
I27
I27
tp1116
Rp1117
sg832
g48
(I90
I600
I27
I27
tp1118
Rp1119
sg850
g48
(I224
I750
I27
I27
tp1120
Rp1121
sg868
g48
(I222
I742
I27
I27
tp1122
Rp1123
sg886
g48
(I903
I744
I27
I27
tp1124
Rp1125
sg904
g48
(I627
I899
I27
I27
tp1126
Rp1127
sg922
g48
(I626
I910
I27
I27
tp1128
Rp1129
sg940
g48
(I332
I464
I27
I27
tp1130
Rp1131
sg958
g48
(I561
I930
I27
I27
tp1132
Rp1133
sg976
g48
(I226
I753
I27
I27
tp1134
Rp1135
sg298
g48
(I432
I557
I27
I27
tp1136
Rp1137
sg994
g48
(I610
I911
I27
I27
tp1138
Rp1139
sg616
g48
(I112
I581
I27
I27
tp1140
Rp1141
sg380
g48
(I676
I145
I27
I27
tp1142
Rp1143
sg1012
g48
(I620
I898
I27
I27
tp1144
Rp1145
sg1030
g48
(I576
I918
I27
I27
tp1146
Rp1147
sg1048
g48
(I976
I687
I27
I27
tp1148
Rp1149
ssg155
(lp1150
sbI0
sg17
I0
sg62
I0
ssg94
Nsg95
(lp1151
g13
(g103
g15
Ntp1152
Rp1153
(dp1154
g101
g23
sg102
I43
sbasg107
g108
sg252
F7.5
sg109
F0.1689273275605029
sg110
I0
sg111
(lp1155
g13
(g312
g15
Ntp1156
Rp1157
(dp1158
g101
g23
sg102
I24
sbasg113
g48
(I856
I955
I27
I27
tp1159
Rp1160
sg116
g119
sg120
I1
sg121
F1000000000000000.0
sg122
I1
sg123
(lp1161
sbI0
sg67
I0
sg169
I0
sg187
I0
sg742
I0
sg205
I0
sg224
I0
sg464
I0
sg428
I0
sg342
I0
sg958
I0
sg850
I0
sg483
I0
sg580
I0
sg538
I0
sg81
I0
sg557
I0
sg598
I0
sg363
I0
sg652
I0
sg670
I0
sg688
I0
sg261
I0
sg706
I0
sg238
I0
sg724
I0
sg130
I0
sg497
I0
sg446
I0
sg518
I0
sg52
I0
sg760
I0
sg778
I0
sg796
I0
sg281
I0
sg832
I0
sg325
I0
sg868
I0
sg886
I0
sg904
I0
sg922
I0
sg814
I0
sg634
I0
sg940
I0
sg410
I0
sg298
I0
sg994
I0
sg616
I0
sg976
I0
sg380
I0
sg1012
I0
sg1030
I0
sg1048
I0
ssg155
(lp1162
sbsS'tileNames'
p1163
(lp1164
S'tile0.png'
p1165
aS'tile1.png'
p1166
asS'fill'
p1167
I0
sS'mobSize'
p1168
(isrc.util
Loc
p1169
(dp1170
g34
I27
sg31
(I27
I27
tp1171
sg36
I27
sbsS'scale'
p1172
F0.2109375
sS'friendlies'
p1173
g77
sS'filename'
p1174
S'map.p'
p1175
sS'width'
p1176
I20
sS'other'
p1177
g493
sS'enemies'
p1178
g234
sS'neutrals'
p1179
g45
sS'viewpoint'
p1180
(F2560.0
F2560.0
tp1181
sS'grid'
p1182
(lp1183
I1
aI1
aI1
aI1
aI1
aI1
aI1
aI1
aI1
aI1
aI1
aI1
aI1
aI1
aI1
aI1
aI1
aI1
aI1
aI1
aI1
aI0
aI0
aI0
aI0
aI0
aI0
aI0
aI0
aI0
aI1
aI1
aI1
aI1
aI0
aI0
aI0
aI0
aI0
aI1
aI1
aI0
aI0
aI1
aI1
aI0
aI1
aI1
aI0
aI0
aI1
aI1
aI0
aI0
aI0
aI0
aI0
aI0
aI0
aI1
aI1
aI0
aI1
aI1
aI0
aI0
aI0
aI0
aI1
aI0
aI1
aI0
aI0
aI0
aI0
aI0
aI0
aI1
aI1
aI1
aI1
aI0
aI0
aI0
aI0
aI0
aI0
aI0
aI0
aI0
aI0
aI0
aI1
aI1
aI0
aI1
aI0
aI0
aI0
aI1
aI1
aI0
aI0
aI0
aI0
aI0
aI0
aI0
aI0
aI1
aI1
aI1
aI0
aI0
aI0
aI0
aI0
aI0
aI0
aI1
aI1
aI0
aI0
aI0
aI0
aI0
aI0
aI1
aI0
aI1
aI1
aI0
aI1
aI1
aI1
aI1
aI0
aI0
aI1
aI1
aI1
aI0
aI0
aI0
aI0
aI1
aI1
aI1
aI1
aI1
aI1
aI1
aI0
aI0
aI0
aI0
aI0
aI0
aI0
aI1
aI1
aI0
aI0
aI0
aI1
aI1
aI0
aI1
aI1
aI0
aI1
aI0
aI0
aI0
aI0
aI0
aI0
aI0
aI0
aI1
aI1
aI1
aI0
aI0
aI1
aI1
aI0
aI0
aI1
aI0
aI1
aI0
aI0
aI0
aI0
aI0
aI0
aI0
aI0
aI1
aI1
aI0
aI0
aI0
aI1
aI1
aI1
aI0
aI0
aI0
aI0
aI0
aI0
aI0
aI0
aI0
aI0
aI0
aI0
aI1
aI1
aI0
aI0
aI0
aI0
aI1
aI0
aI1
aI1
aI1
aI1
aI1
aI0
aI0
aI0
aI0
aI0
aI0
aI0
aI1
aI1
aI0
aI1
aI0
aI0
aI1
aI0
aI0
aI1
aI1
aI0
aI0
aI1
aI1
aI0
aI0
aI1
aI1
aI0
aI1
aI1
aI1
aI0
aI1
aI0
aI0
aI0
aI0
aI1
aI0
aI0
aI0
aI1
aI1
aI0
aI0
aI0
aI0
aI0
aI1
aI1
aI0
aI0
aI1
aI0
aI1
aI1
aI0
aI0
aI0
aI1
aI1
aI1
aI1
aI1
aI1
aI0
aI0
aI0
aI1
aI1
aI1
aI0
aI0
aI1
aI0
aI0
aI0
aI1
aI0
aI1
aI1
aI1
aI1
aI1
aI1
aI1
aI0
aI0
aI1
aI1
aI0
aI0
aI0
aI0
aI0
aI0
aI0
aI0
aI0
aI1
aI0
aI0
aI0
aI0
aI0
aI0
aI0
aI0
aI1
aI1
aI0
aI0
aI0
aI1
aI0
aI0
aI0
aI1
aI0
aI0
aI0
aI0
aI0
aI0
aI0
aI0
aI0
aI0
aI1
aI1
aI1
aI1
aI0
aI0
aI0
aI0
aI0
aI0
aI0
aI1
aI1
aI0
aI0
aI0
aI0
aI0
aI0
aI0
aI1
aI1
aI1
aI1
aI1
aI1
aI1
aI1
aI1
aI1
aI1
aI1
aI1
aI1
aI1
aI1
aI1
aI1
aI1
aI1
aI1
asS'actorSize'
p1184
I27
sS'tileSize'
p1185
I54
sS'mobOffset'
p1186
(isrc.util
Loc
p1187
(dp1188
g34
F-13.5
sg31
(F-13.5
F-13.5
tp1189
sg36
F-13.5
sbsS'maxScale'
p1190
F2.0
sS'mobs'
p1191
g62
sS'minScale'
p1192
F0.05
s.