(dp0
S'size'
p1
(I20
I20
tp2
sS'actorNames'
p3
(lp4
S'blip.png'
p5
aS'zombie.png'
p6
aS'soldier.png'
p7
aS'civilian.png'
p8
aS'corpse.png'
p9
asS'wall'
p10
I1
sS'height'
p11
I20
sS'visible'
p12
ccopy_reg
_reconstructor
p13
(cpygame.sprite
Group
p14
c__builtin__
object
p15
Ntp16
Rp17
(dp18
S'spritedict'
p19
(dp20
g13
(csrc.actor
Civilian
p21
g15
Ntp22
Rp23
(dp24
S'distanceMoved'
p25
F3.59999999999992
sS'fleeing'
p26
I01
sS'image'
p27
NsS'blendmode'
p28
I4
sS'speed'
p29
F3.6
sS'maxRiled'
p30
F0.1
sS'loc'
p31
(isrc.util
Loc
p32
(dp33
S'y'
p34
F968.4384385990363
sg31
(F1775.642110680004
F968.4384385990363
tp35
sS'x'
p36
F1775.642110680004
sbsS'riled'
p37
I0
sS'lastLoc'
p38
(isrc.util
Loc
p39
(dp40
g34
F970.8868591139312
sg31
(F1773.0029371384874
F970.8868591139312
tp41
sg36
F1773.0029371384874
sbsS'_Sprite__g'
p42
(dp43
g13
(g14
g15
Ntp44
Rp45
(dp46
g19
(dp47
g23
I0
sg13
(csrc.actor
Soldier
p48
g15
Ntp49
Rp50
(dp51
g25
F4.0000000000000355
sg26
I00
sg27
Nsg28
I4
sg29
F3.9999999999999996
sg30
F0.1
sg31
(isrc.util
Loc
p52
(dp53
g34
F4352.964227236039
sg31
(F2950.8223485898784
F4352.964227236039
tp54
sg36
F2950.8223485898784
sbsg37
I0
sg38
(isrc.util
Loc
p55
(dp56
g34
F4355.655199386312
sg31
(F2947.8628437518264
F4355.655199386312
tp57
sg36
F2947.8628437518264
sbsg42
(dp58
g45
I0
sg17
I0
sg13
(g14
g15
Ntp59
Rp60
(dp61
g19
(dp62
g50
cpygame
__rect_constructor
p63
(I608
I904
I27
I27
tp64
Rp65
ssS'lostsprites'
p66
(lp67
sbI0
ssS'source_rect'
p68
NsS'weapons'
p69
(lp70
g13
(csrc.actor
Rifle
p71
g15
Ntp72
Rp73
(dp74
S'owner'
p75
g50
sbag13
(csrc.actor
Punch
p76
g15
Ntp77
Rp78
(dp79
g75
g50
sbasS'leavesCorpse'
p80
csrc.actor
Corpse
p81
sS'direction'
p82
F0.7379099956509907
sS'_layer'
p83
I0
sS'effects'
p84
(lp85
sS'rect'
p86
g63
(I608
I904
I27
I27
tp87
Rp88
sS'level'
p89
g13
(csrc.tilemap
Map
p90
g15
Ntp91
Rp92
g0
bsS'_visible'
p93
I1
sS'targetDistance'
p94
F1000000000000000.0
sS'dirty'
p95
I1
sS'highlight'
p96
(lp97
sbI0
sg13
(csrc.actor
Zombie
p98
g15
Ntp99
Rp100
(dp101
g25
F3.9999999999998517
sg27
Nsg28
I4
sg29
F4.0
sg30
F9.099999999999984
sg31
(isrc.util
Loc
p102
(dp103
g34
F2448.869290927603
sg31
(F2179.1825482139657
F2448.869290927603
tp104
sg36
F2179.1825482139657
sbsg37
F9.099999999999984
sg38
(isrc.util
Loc
p105
(dp106
g34
F2451.00264143666
sg31
(F2175.798938365667
F2451.00264143666
tp107
sg36
F2175.798938365667
sbsg42
(dp108
g45
I0
sg17
I0
sg13
(g14
g15
Ntp109
Rp110
(dp111
g19
(dp112
g100
g63
(I445
I502
I27
I27
tp113
Rp114
ssg66
(lp115
sbI0
ssg68
Nsg69
(lp116
g13
(csrc.actor
Bite
p117
g15
Ntp118
Rp119
(dp120
g75
g100
sbasg80
g81
sg82
F0.5625413206894894
sg83
I0
sg84
(lp121
sg86
g63
(I445
I502
I27
I27
tp122
Rp123
sS'target'
p124
g13
(g21
g15
Ntp125
Rp126
(dp127
g25
F3.6000000000002066
sg26
I01
sg27
Nsg28
I4
sg29
F3.6
sg30
F0.1
sg31
(isrc.util
Loc
p128
(dp129
g34
F2228.178455587295
sg31
(F2524.22587052652
F2228.178455587295
tp130
sg36
F2524.22587052652
sbsg37
I0
sg38
(isrc.util
Loc
p131
(dp132
g34
F2230.5129729089167
sg31
(F2521.4854273369883
F2230.5129729089167
tp133
sg36
F2521.4854273369883
sbsg42
(dp134
g45
I0
sg17
I0
sg13
(g14
g15
Ntp135
Rp136
(dp137
g19
(dp138
g23
I0
sg13
(g21
g15
Ntp139
Rp140
(dp141
g25
F3.5999999999999814
sg26
I01
sg27
Nsg28
I4
sg29
F3.6
sg30
F0.1
sg31
(isrc.util
Loc
p142
(dp143
g34
F1506.2324730525024
sg31
(F1924.5070085271561
F1506.2324730525024
tp144
sg36
F1924.5070085271561
sbsg37
I0
sg38
(isrc.util
Loc
p145
(dp146
g34
F1509.7948793953285
sg31
(F1925.0259122259215
F1509.7948793953285
tp147
sg36
F1925.0259122259215
sbsg42
(dp148
g45
I0
sg17
I0
sg136
I0
sg13
(g14
g15
Ntp149
Rp150
(dp151
g19
(dp152
g23
g63
(I360
I190
I27
I27
tp153
Rp154
sg140
g63
(I391
I303
I27
I27
tp155
Rp156
sg13
(g21
g15
Ntp157
Rp158
(dp159
g25
F3.599999999999893
sg26
I00
sg27
Nsg28
I4
sg29
F3.6
sg30
F0.1
sg31
(isrc.util
Loc
p160
(dp161
g34
F863.0132865301382
sg31
(F1028.5794082578927
F863.0132865301382
tp162
sg36
F1028.5794082578927
sbsg37
I0
sg38
(isrc.util
Loc
p163
(dp164
g34
F861.8404991583428
sg31
(F1025.1757969727198
F861.8404991583428
tp165
sg36
F1025.1757969727198
sbsg42
(dp166
g45
I0
sg17
I0
sg136
I0
sg150
I0
ssg68
Nsg69
(lp167
g13
(g76
g15
Ntp168
Rp169
(dp170
g75
g158
sbasg80
g81
sg82
F-0.3318305580632912
sg83
I0
sg84
(lp171
sg86
g63
(I202
I168
I27
I27
tp172
Rp173
sg89
g92
sg93
I1
sg94
F1000000000000000.0
sg95
I1
sg96
(lp174
sbg63
(I202
I168
I27
I27
tp175
Rp176
sg13
(g21
g15
Ntp177
Rp178
(dp179
g25
F3.6000000000003363
sg26
I00
sg27
Nsg28
I4
sg29
F3.6
sg30
F0.1
sg31
(isrc.util
Loc
p180
(dp181
g34
F2369.4633847964647
sg31
(F4126.7784950995765
F2369.4633847964647
tp182
sg36
F4126.7784950995765
sbsg37
I0
sg38
(isrc.util
Loc
p183
(dp184
g34
F2366.147927864498
sg31
(F4128.181258562273
F2366.147927864498
tp185
sg36
F4128.181258562273
sbsg42
(dp186
g45
I0
sg17
I0
sg136
I0
sg150
I0
ssg68
Nsg69
(lp187
g13
(g76
g15
Ntp188
Rp189
(dp190
g75
g178
sbasg80
g81
sg82
F-1.9710549287031955
sg83
I0
sg84
(lp191
sg86
g63
(I856
I485
I27
I27
tp192
Rp193
sg89
g92
sg93
I1
sg94
F1000000000000000.0
sg95
I1
sg96
(lp194
sbg63
(I856
I485
I27
I27
tp195
Rp196
sg13
(g21
g15
Ntp197
Rp198
(dp199
g25
F3.5999999999998895
sg26
I00
sg27
Nsg28
I4
sg29
F3.6
sg30
F0.1
sg31
(isrc.util
Loc
p200
(dp201
g34
F4218.893088877145
sg31
(F4409.017433084717
F4218.893088877145
tp202
sg36
F4409.017433084717
sbsg37
I0
sg38
(isrc.util
Loc
p203
(dp204
g34
F4220.355983391784
sg31
(F4412.306800750247
F4220.355983391784
tp205
sg36
F4412.306800750247
sbsg42
(dp206
g45
I0
sg17
I0
sg136
I0
sg150
I0
ssg68
Nsg69
(lp207
g13
(g76
g15
Ntp208
Rp209
(dp210
g75
g198
sbasg80
g81
sg82
F2.7231263340285636
sg83
I0
sg84
(lp211
sg86
g63
(I916
I875
I27
I27
tp212
Rp213
sg89
g92
sg93
I1
sg94
F1000000000000000.0
sg95
I1
sg96
(lp214
sbg63
(I916
I875
I27
I27
tp215
Rp216
sg13
(g21
g15
Ntp217
Rp218
(dp219
g25
F3.6000000000000583
sg26
I01
sg27
Nsg28
I4
sg29
F3.6
sg30
F0.1
sg31
(isrc.util
Loc
p220
(dp221
g34
F1522.202436049808
sg31
(F2297.8647087506706
F1522.202436049808
tp222
sg36
F2297.8647087506706
sbsg37
I0
sg38
(isrc.util
Loc
p223
(dp224
g34
F1525.7862424062068
sg31
(F2297.52363397905
F1525.7862424062068
tp225
sg36
F2297.52363397905
sbsg42
(dp226
g45
I0
sg17
I0
sg136
I0
sg150
I0
ssg68
Nsg69
(lp227
g13
(g76
g15
Ntp228
Rp229
(dp230
g75
g218
sbasg80
g81
sg82
F1.4759110198522738
sg83
I0
sg84
(lp231
sg86
g63
(I470
I307
I27
I27
tp232
Rp233
sg89
g92
sg93
I1
sg94
F1000000000000000.0
sg95
I1
sg96
(lp234
sbg63
(I470
I307
I27
I27
tp235
Rp236
sg13
(g21
g15
Ntp237
Rp238
(dp239
g25
F3.5999999999998606
sg26
I00
sg27
Nsg28
I4
sg29
F3.6
sg30
F0.1
sg31
(isrc.util
Loc
p240
(dp241
g34
F3538.202806735907
sg31
(F3914.5906641800134
F3538.202806735907
tp242
sg36
F3914.5906641800134
sbsg37
I0
sg38
(isrc.util
Loc
p243
(dp244
g34
F3536.2556658847825
sg31
(F3917.618640815637
F3536.2556658847825
tp245
sg36
F3917.618640815637
sbsg42
(dp246
g45
I0
sg17
I0
sg136
I0
sg150
I0
ssg68
Nsg69
(lp247
g13
(g76
g15
Ntp248
Rp249
(dp250
g75
g238
sbasg80
g81
sg82
F-2.5701186125171342
sg83
I0
sg84
(lp251
sg86
g63
(I811
I732
I27
I27
tp252
Rp253
sg89
g92
sg93
I1
sg94
F1000000000000000.0
sg95
I1
sg96
(lp254
sbg63
(I811
I732
I27
I27
tp255
Rp256
sg13
(g21
g15
Ntp257
Rp258
(dp259
g25
F3.599999999999949
sg26
I01
sg27
Nsg28
I4
sg29
F3.6
sg30
F0.1
sg31
(isrc.util
Loc
p260
(dp261
g34
F1160.630063070732
sg31
(F2525.8026900780924
F1160.630063070732
tp262
sg36
F2525.8026900780924
sbsg37
I0
sg38
(isrc.util
Loc
p263
(dp264
g34
F1164.2188355163876
sg31
(F2525.5185909170546
F1164.2188355163876
tp265
sg36
F2525.5185909170546
sbsg42
(dp266
g45
I0
sg17
I0
sg136
I0
sg150
I0
ssg68
Nsg69
(lp267
g13
(g76
g15
Ntp268
Rp269
(dp270
g75
g258
sbasg80
g81
sg82
F1.4917977500838604
sg83
I0
sg84
(lp271
sg86
g63
(I518
I230
I27
I27
tp272
Rp273
sg89
g92
sg93
I1
sg94
F1000000000000000.0
sg95
I1
sg96
(lp274
sbg63
(I518
I230
I27
I27
tp275
Rp276
sg13
(g21
g15
Ntp277
Rp278
(dp279
g25
F3.6000000000001338
sg26
I00
sg27
Nsg28
I4
sg29
F3.6
sg30
F0.1
sg31
(isrc.util
Loc
p280
(dp281
g34
F3838.167440892534
sg31
(F3674.889068028552
F3838.167440892534
tp282
sg36
F3674.889068028552
sbsg37
I0
sg38
(isrc.util
Loc
p283
(dp284
g34
F3837.7377307683787
sg31
(F3678.4633300795495
F3837.7377307683787
tp285
sg36
F3678.4633300795495
sbsg42
(dp286
g45
I0
sg17
I0
sg136
I0
sg150
I0
ssg68
Nsg69
(lp287
g13
(g76
g15
Ntp288
Rp289
(dp290
g75
g278
sbasg80
g81
sg82
F-3.0219434528687343
sg83
I0
sg84
(lp291
sg86
g63
(I761
I795
I27
I27
tp292
Rp293
sg89
g92
sg93
I1
sg94
F1000000000000000.0
sg95
I1
sg96
(lp294
sbg63
(I761
I795
I27
I27
tp295
Rp296
sg13
(g21
g15
Ntp297
Rp298
(dp299
g25
F3.5999999999997256
sg26
I01
sg27
Nsg28
I4
sg29
F3.6
sg30
F0.1
sg31
(isrc.util
Loc
p300
(dp301
g34
F3678.013500018611
sg31
(F3070.5622224280405
F3678.013500018611
tp302
sg36
F3070.5622224280405
sbsg37
I0
sg38
(isrc.util
Loc
p303
(dp304
g34
F3675.533865403006
sg31
(F3067.952354198974
F3675.533865403006
tp305
sg36
F3067.952354198974
sbsg42
(dp306
g45
I0
sg17
I0
sg136
I0
sg150
I0
ssg68
Nsg69
(lp307
g13
(g76
g15
Ntp308
Rp309
(dp310
g75
g298
sbasg80
g81
sg82
F-0.7598150752637688
sg83
I0
sg84
(lp311
sg86
g63
(I633
I761
I27
I27
tp312
Rp313
sg89
g92
sg93
I1
sg94
F1000000000000000.0
sg95
I1
sg96
(lp314
sbg63
(I633
I761
I27
I27
tp315
Rp316
sg13
(g21
g15
Ntp317
Rp318
(dp319
g25
F3.5999999999998353
sg26
I00
sg27
Nsg28
I4
sg29
F3.6
sg30
F0.1
sg31
(isrc.util
Loc
p320
(dp321
g34
F3371.8920289764114
sg31
(F4371.702682188299
F3371.8920289764114
tp322
sg36
F4371.702682188299
sbsg37
I0
sg38
(isrc.util
Loc
p323
(dp324
g34
F3370.752916645832
sg31
(F4375.1177111923225
F3370.752916645832
tp325
sg36
F4375.1177111923225
sbsg42
(dp326
g45
I0
sg17
I0
sg136
I0
sg150
I0
ssg68
Nsg69
(lp327
g13
(g76
g15
Ntp328
Rp329
(dp330
g75
g318
sbasg80
g81
sg82
F-2.8196393631364884
sg83
I0
sg84
(lp331
sg86
g63
(I908
I697
I27
I27
tp332
Rp333
sg89
g92
sg93
I1
sg94
F1000000000000000.0
sg95
I1
sg96
(lp334
sbg63
(I908
I697
I27
I27
tp335
Rp336
sg13
(g21
g15
Ntp337
Rp338
(dp339
g25
F3.600000000000025
sg26
I00
sg27
Nsg28
I4
sg29
F3.5999999999999996
sg30
F0.1
sg31
(isrc.util
Loc
p340
(dp341
g34
F3447.652563712557
sg31
(F3760.5166098060367
F3447.652563712557
tp342
sg36
F3760.5166098060367
sbsg37
I0
sg38
(isrc.util
Loc
p343
(dp344
g34
F3445.1158550048713
sg31
(F3763.0710390832633
F3445.1158550048713
tp345
sg36
F3763.0710390832633
sbsg42
(dp346
g45
I0
sg17
I0
sg136
I0
sg150
I0
ssg68
Nsg69
(lp347
g13
(g76
g15
Ntp348
Rp349
(dp350
g75
g338
sbasg80
g81
sg82
F-2.359675145800596
sg83
I0
sg84
(lp351
sg86
g63
(I779
I713
I27
I27
tp352
Rp353
sg89
g92
sg93
I1
sg94
F1000000000000000.0
sg95
I1
sg96
(lp354
sbg63
(I779
I713
I27
I27
tp355
Rp356
sg13
(g21
g15
Ntp357
Rp358
(dp359
g25
F3.600000000000058
sg26
I00
sg27
Nsg28
I4
sg29
F3.6
sg30
F0.1
sg31
(isrc.util
Loc
p360
(dp361
g34
F3599.8150951350817
sg31
(F3349.056581481287
F3599.8150951350817
tp362
sg36
F3349.056581481287
sbsg37
I0
sg38
(isrc.util
Loc
p363
(dp364
g34
F3599.153728550421
sg31
(F3345.5178537098
F3599.153728550421
tp365
sg36
F3345.5178537098
sbsg42
(dp366
g45
I0
sg17
I0
sg136
I0
sg150
I0
ssg68
Nsg69
(lp367
g13
(g76
g15
Ntp368
Rp369
(dp370
g75
g358
sbasg80
g81
sg82
F-0.1847623567627769
sg83
I0
sg84
(lp371
sg86
g63
(I692
I745
I27
I27
tp372
Rp373
sg89
g92
sg93
I1
sg94
F1000000000000000.0
sg95
I1
sg96
(lp374
sbg63
(I692
I745
I27
I27
tp375
Rp376
sg13
(g21
g15
Ntp377
Rp378
(dp379
g25
F3.5999999999999313
sg26
I00
sg27
Nsg28
I4
sg29
F3.6
sg30
F0.1
sg31
(isrc.util
Loc
p380
(dp381
g34
F2908.5640086041535
sg31
(F672.243230002127
F2908.5640086041535
tp382
sg36
F672.243230002127
sbsg37
I0
sg38
(isrc.util
Loc
p383
(dp384
g34
F2910.8906378417637
sg31
(F669.4960866875733
F2910.8906378417637
tp385
sg36
F669.4960866875733
sbsg42
(dp386
g45
I0
sg17
I0
sg136
I0
sg150
I0
ssg68
Nsg69
(lp387
g13
(g76
g15
Ntp388
Rp389
(dp390
g75
g378
sbasg80
g81
sg82
F0.7027071928850357
sg83
I0
sg84
(lp391
sg86
g63
(I127
I599
I27
I27
tp392
Rp393
sg89
g92
sg93
I1
sg94
F1000000000000000.0
sg95
I1
sg96
(lp394
sbg63
(I127
I599
I27
I27
tp395
Rp396
sg13
(g21
g15
Ntp397
Rp398
(dp399
g25
F3.5999999999998966
sg26
I00
sg27
Nsg28
I4
sg29
F3.5999999999999996
sg30
F0.1
sg31
(isrc.util
Loc
p400
(dp401
g34
F3568.5622862311334
sg31
(F3649.382768314399
F3568.5622862311334
tp402
sg36
F3649.382768314399
sbsg37
I0
sg38
(isrc.util
Loc
p403
(dp404
g34
F3566.2012907168587
sg31
(F3652.1004327862524
F3566.2012907168587
tp405
sg36
F3652.1004327862524
sbsg42
(dp406
g45
I0
sg17
I0
sg136
I0
sg150
I0
ssg68
Nsg69
(lp407
g13
(g76
g15
Ntp408
Rp409
(dp410
g75
g398
sbasg80
g81
sg82
F-2.4263083216766246
sg83
I0
sg84
(lp411
sg86
g63
(I755
I738
I27
I27
tp412
Rp413
sg89
g92
sg93
I1
sg94
F1000000000000000.0
sg95
I1
sg96
(lp414
sbg63
(I755
I738
I27
I27
tp415
Rp416
sg126
g63
(I518
I456
I27
I27
tp417
Rp418
sg13
(g21
g15
Ntp419
Rp420
(dp421
g25
F3.6000000000001013
sg26
I01
sg27
Nsg28
I4
sg29
F3.6
sg30
F0.1
sg31
(isrc.util
Loc
p422
(dp423
g34
F1056.1022652313202
sg31
(F2605.8991542166386
F1056.1022652313202
tp424
sg36
F2605.8991542166386
sbsg37
I0
sg38
(isrc.util
Loc
p425
(dp426
g34
F1059.6444273857066
sg31
(F2605.2564355596564
F1059.6444273857066
tp427
sg36
F2605.2564355596564
sbsg42
(dp428
g45
I0
sg17
I0
sg136
I0
sg150
I0
ssg68
Nsg69
(lp429
g13
(g76
g15
Ntp430
Rp431
(dp432
g75
g420
sbasg80
g81
sg82
F1.3913010719818288
sg83
I0
sg84
(lp433
sg86
g63
(I535
I208
I27
I27
tp434
Rp435
sg89
g92
sg93
I1
sg94
F1000000000000000.0
sg95
I1
sg96
(lp436
sbg63
(I535
I208
I27
I27
tp437
Rp438
sg13
(g21
g15
Ntp439
Rp440
(dp441
g25
F3.599999999999969
sg26
I01
sg27
Nsg28
I4
sg29
F3.6
sg30
F0.1
sg31
(isrc.util
Loc
p442
(dp443
g34
F2649.717606232139
sg31
(F672.5527153411916
F2649.717606232139
tp444
sg36
F672.5527153411916
sbsg37
I0
sg38
(isrc.util
Loc
p445
(dp446
g34
F2648.793085454828
sg31
(F676.031976948533
F2648.793085454828
tp447
sg36
F676.031976948533
sbsg42
(dp448
g45
I0
sg17
I0
sg136
I0
sg150
I0
ssg68
Nsg69
(lp449
g13
(g76
g15
Ntp450
Rp451
(dp452
g75
g440
sbasg80
g81
sg82
F-2.881871231488404
sg83
I0
sg84
(lp453
sg86
g63
(I127
I544
I27
I27
tp454
Rp455
sg89
g92
sg93
I1
sg94
F1000000000000000.0
sg95
I1
sg96
(lp456
sbg63
(I127
I544
I27
I27
tp457
Rp458
sg13
(g21
g15
Ntp459
Rp460
(dp461
g25
F3.6000000000001067
sg26
I00
sg27
Nsg28
I4
sg29
F3.6
sg30
F0.1
sg31
(isrc.util
Loc
p462
(dp463
g34
F3993.911276230674
sg31
(F3732.8546944321924
F3993.911276230674
tp464
sg36
F3732.8546944321924
sbsg37
I0
sg38
(isrc.util
Loc
p465
(dp466
g34
F3995.893681675626
sg31
(F3735.8597016953827
F3995.893681675626
tp467
sg36
F3735.8597016953827
sbsg42
(dp468
g45
I0
sg17
I0
sg136
I0
sg150
I0
ssg68
Nsg69
(lp469
g13
(g76
g15
Ntp470
Rp471
(dp472
g75
g460
sbasg80
g81
sg82
F2.5584281479667674
sg83
I0
sg84
(lp473
sg86
g63
(I773
I828
I27
I27
tp474
Rp475
sg89
g92
sg93
I1
sg94
F1000000000000000.0
sg95
I1
sg96
(lp476
sbg63
(I773
I828
I27
I27
tp477
Rp478
sg13
(g21
g15
Ntp479
Rp480
(dp481
g25
F3.176776203981978
sg26
I00
sg27
Nsg28
I4
sg29
F3.176776203982116
sg30
F0.1
sg31
(isrc.util
Loc
p482
(dp483
g34
F910.5079995255837
sg31
(F2150.5784188276957
F910.5079995255837
tp484
sg36
F2150.5784188276957
sbsg37
I0
sg38
(isrc.util
Loc
p485
(dp486
g34
F912.4730183814519
sg31
(F2153.0745374038593
F912.4730183814519
tp487
sg36
F2153.0745374038593
sbsg42
(dp488
g45
I0
sg17
I0
sg136
I0
sg150
I0
ssg68
Nsg69
(lp489
g13
(g76
g15
Ntp490
Rp491
(dp492
g75
g480
sbasg80
g81
sg82
F2.4746870863551527
sg83
I0
sg84
(lp493
sg86
g63
(I439
I178
I27
I27
tp494
Rp495
sg89
g92
sg93
I1
sg94
F1000000000000000.0
sg95
I1
sg96
(lp496
sbg63
(I439
I178
I27
I27
tp497
Rp498
sg13
(g21
g15
Ntp499
Rp500
(dp501
g25
F3.599999999999937
sg26
I01
sg27
Nsg28
I4
sg29
F3.6
sg30
F0.1
sg31
(isrc.util
Loc
p502
(dp503
g34
F2930.4169904021696
sg31
(F873.9148547148087
F2930.4169904021696
tp504
sg36
F873.9148547148087
sbsg37
I0
sg38
(isrc.util
Loc
p505
(dp506
g34
F2929.442259429099
sg31
(F877.380384909474
F2929.442259429099
tp507
sg36
F877.380384909474
sbsg42
(dp508
g45
I0
sg17
I0
sg136
I0
sg150
I0
ssg68
Nsg69
(lp509
g13
(g76
g15
Ntp510
Rp511
(dp512
g75
g500
sbasg80
g81
sg82
F-2.8674116703197665
sg83
I0
sg84
(lp513
sg86
g63
(I170
I604
I27
I27
tp514
Rp515
sg89
g92
sg93
I1
sg94
F1000000000000000.0
sg95
I1
sg96
(lp516
sbg63
(I170
I604
I27
I27
tp517
Rp518
sg13
(g21
g15
Ntp519
Rp520
(dp521
g25
F3.5999999999998415
sg26
I00
sg27
Nsg28
I4
sg29
F3.5999999999999996
sg30
F0.1
sg31
(isrc.util
Loc
p522
(dp523
g34
F4167.411023015463
sg31
(F2881.1140949693986
F4167.411023015463
tp524
sg36
F2881.1140949693986
sbsg37
I0
sg38
(isrc.util
Loc
p525
(dp526
g34
F4169.133491540189
sg31
(F2877.952908138266
F4169.133491540189
tp527
sg36
F2877.952908138266
sbsg42
(dp528
g45
I0
sg17
I0
sg136
I0
sg150
I0
ssg68
Nsg69
(lp529
g13
(g76
g15
Ntp530
Rp531
(dp532
g75
g520
sbasg80
g81
sg82
F0.4989040668808754
sg83
I0
sg84
(lp533
sg86
g63
(I593
I865
I27
I27
tp534
Rp535
sg89
g92
sg93
I1
sg94
F1000000000000000.0
sg95
I1
sg96
(lp536
sbg63
(I593
I865
I27
I27
tp537
Rp538
sg13
(g21
g15
Ntp539
Rp540
(dp541
g25
F3.600000000000152
sg26
I01
sg27
Nsg28
I4
sg29
F3.6
sg30
F0.1
sg31
(isrc.util
Loc
p542
(dp543
g34
F2077.403033903408
sg31
(F3431.8307563569733
F2077.403033903408
tp544
sg36
F3431.8307563569733
sbsg37
I0
sg38
(isrc.util
Loc
p545
(dp546
g34
F2077.705128376384
sg31
(F3428.2434538983844
F2077.705128376384
tp547
sg36
F3428.2434538983844
sbsg42
(dp548
g45
I0
sg17
I0
sg136
I0
sg150
I0
ssg68
Nsg69
(lp549
g13
(g76
g15
Ntp550
Rp551
(dp552
g75
g540
sbasg80
g81
sg82
F0.08401392966015017
sg83
I0
sg84
(lp553
sg86
g63
(I709
I424
I27
I27
tp554
Rp555
sg89
g92
sg93
I1
sg94
F1000000000000000.0
sg95
I1
sg96
(lp556
sbg63
(I709
I424
I27
I27
tp557
Rp558
ssg66
(lp559
sbI0
ssg68
Nsg69
(lp560
g13
(g76
g15
Ntp561
Rp562
(dp563
g75
g140
sbasg80
g81
sg82
F1.7154400841252049
sg83
I0
sg84
(lp564
sg86
g63
(I391
I303
I27
I27
tp565
Rp566
sg89
g92
sg93
I1
sg94
F1000000000000000.0
sg95
I1
sg96
(lp567
sbI0
sg158
I0
sg178
I0
sg198
I0
sg218
I0
sg238
I0
sg258
I0
sg278
I0
sg298
I0
sg318
I0
sg338
I0
sg358
I0
sg378
I0
sg398
I0
sg126
I0
sg420
I0
sg440
I0
sg460
I0
sg480
I0
sg500
I0
sg520
I0
sg540
I0
ssg66
(lp568
sbI0
sg150
I0
ssg68
Nsg69
(lp569
g13
(g76
g15
Ntp570
Rp571
(dp572
g75
g126
sbasg80
g81
sg82
F0.7055820736991749
sg83
I0
sg84
(lp573
sg86
g63
(I518
I456
I27
I27
tp574
Rp575
sg89
g92
sg93
I1
sg94
F1000000000000000.0
sg95
I1
sg96
(lp576
sbsg89
g92
sg93
I1
sg94
F410.01810031362476
sg95
I1
sg96
(lp577
sbI0
sg140
I0
sg158
I0
sg178
I0
sg198
I0
sg218
I0
sg238
I0
sg258
I0
sg278
I0
sg298
I0
sg318
I0
sg338
I0
sg358
I0
sg378
I0
sg398
I0
sg126
I0
sg420
I0
sg440
I0
sg460
I0
sg480
I0
sg500
I0
sg520
I0
sg540
I0
ssg66
(lp578
sbI0
sg17
I0
sg136
I0
sg150
I0
ssg68
Nsg69
(lp579
g13
(g76
g15
Ntp580
Rp581
(dp582
g75
g23
sbasg80
g81
sg82
F0.7479219587113803
sg83
I0
sg84
(lp583
sg86
g63
(I360
I190
I27
I27
tp584
Rp585
sg89
g92
sg93
I1
sg94
F1000000000000000.0
sg95
I1
sg96
(lp586
sbI0
sg50
I0
sg100
I0
sg140
I0
sg158
I0
sg178
I0
sg198
I0
sg218
I0
sg238
I0
sg258
I0
sg278
I0
sg298
I0
sg318
I0
sg338
I0
sg358
I0
sg378
I0
sg398
I0
sg126
I0
sg420
I0
sg440
I0
sg460
I0
sg480
I0
sg500
I0
sg520
I0
sg540
I0
ssg66
(lp587
sbsS'tileNames'
p588
(lp589
S'tile0.png'
p590
aS'tile1.png'
p591
asS'fill'
p592
I0
sS'mobSize'
p593
(isrc.util
Loc
p594
(dp595
g34
I27
sg31
(I27
I27
tp596
sg36
I27
sbsS'scale'
p597
F0.2109375
sS'friendlies'
p598
g60
sS'filename'
p599
S'map.p'
p600
sS'width'
p601
I20
sS'other'
p602
g13
(g14
g15
Ntp603
Rp604
(dp605
g19
(dp606
sg66
(lp607
sbsS'enemies'
p608
g110
sS'neutrals'
p609
g150
sS'viewpoint'
p610
(F2560.0
F2560.0
tp611
sS'grid'
p612
(lp613
I1
aI1
aI1
aI1
aI1
aI1
aI1
aI1
aI1
aI1
aI1
aI1
aI1
aI1
aI1
aI1
aI1
aI1
aI1
aI1
aI1
aI0
aI0
aI0
aI0
aI0
aI0
aI0
aI0
aI0
aI0
aI0
aI0
aI0
aI0
aI0
aI0
aI0
aI0
aI1
aI1
aI0
aI0
aI0
aI0
aI0
aI0
aI0
aI0
aI0
aI0
aI0
aI0
aI0
aI0
aI0
aI0
aI0
aI0
aI1
aI1
aI0
aI0
aI0
aI0
aI0
aI0
aI0
aI0
aI0
aI0
aI0
aI0
aI0
aI0
aI0
aI0
aI0
aI0
aI1
aI1
aI0
aI0
aI0
aI0
aI0
aI0
aI0
aI0
aI0
aI0
aI0
aI0
aI0
aI0
aI0
aI0
aI0
aI0
aI1
aI1
aI0
aI0
aI0
aI0
aI0
aI0
aI0
aI0
aI0
aI0
aI0
aI0
aI0
aI0
aI0
aI0
aI0
aI0
aI1
aI1
aI0
aI0
aI0
aI0
aI0
aI0
aI0
aI0
aI0
aI0
aI0
aI0
aI0
aI0
aI0
aI0
aI0
aI0
aI1
aI1
aI0
aI0
aI0
aI0
aI0
aI0
aI0
aI0
aI0
aI0
aI0
aI0
aI0
aI0
aI0
aI0
aI0
aI0
aI1
aI1
aI0
aI0
aI0
aI0
aI0
aI0
aI0
aI0
aI0
aI0
aI0
aI0
aI0
aI0
aI0
aI0
aI0
aI0
aI1
aI1
aI0
aI0
aI0
aI0
aI0
aI0
aI0
aI0
aI0
aI0
aI0
aI0
aI0
aI0
aI0
aI0
aI0
aI0
aI1
aI1
aI0
aI0
aI0
aI0
aI0
aI0
aI0
aI0
aI0
aI0
aI0
aI0
aI0
aI0
aI0
aI0
aI0
aI0
aI1
aI1
aI0
aI0
aI0
aI0
aI0
aI0
aI0
aI0
aI0
aI0
aI0
aI0
aI0
aI0
aI0
aI0
aI0
aI0
aI1
aI1
aI0
aI0
aI0
aI0
aI0
aI0
aI0
aI0
aI0
aI0
aI0
aI0
aI0
aI0
aI0
aI0
aI0
aI0
aI1
aI1
aI0
aI0
aI0
aI0
aI0
aI0
aI0
aI0
aI0
aI0
aI0
aI0
aI0
aI0
aI0
aI0
aI0
aI0
aI1
aI1
aI0
aI0
aI0
aI0
aI0
aI0
aI0
aI0
aI0
aI0
aI0
aI0
aI0
aI0
aI0
aI0
aI0
aI0
aI1
aI1
aI0
aI0
aI0
aI0
aI0
aI0
aI0
aI0
aI0
aI0
aI0
aI0
aI0
aI0
aI0
aI0
aI0
aI0
aI1
aI1
aI0
aI0
aI0
aI0
aI0
aI0
aI0
aI0
aI0
aI0
aI0
aI0
aI0
aI0
aI0
aI0
aI0
aI0
aI1
aI1
aI0
aI0
aI0
aI0
aI0
aI0
aI0
aI0
aI0
aI0
aI0
aI0
aI0
aI0
aI0
aI0
aI0
aI0
aI1
aI1
aI0
aI0
aI0
aI0
aI0
aI0
aI0
aI0
aI0
aI0
aI0
aI0
aI0
aI0
aI0
aI0
aI0
aI0
aI1
aI1
aI1
aI1
aI1
aI1
aI1
aI1
aI1
aI1
aI1
aI1
aI1
aI1
aI1
aI1
aI1
aI1
aI1
aI1
aI1
asS'actorSize'
p614
I27
sS'tileSize'
p615
I54
sS'mobOffset'
p616
(isrc.util
Loc
p617
(dp618
g34
F-13.5
sg31
(F-13.5
F-13.5
tp619
sg36
F-13.5
sbsS'maxScale'
p620
F2.0
sS'mobs'
p621
g45
sS'minScale'
p622
F0.05
s.