(dp0
S'size'
p1
(I20
I20
tp2
sS'actorNames'
p3
(lp4
S'blip.png'
p5
aS'zombie.png'
p6
aS'soldier.png'
p7
aS'civilian.png'
p8
asS'wall'
p9
I1
sS'height'
p10
I20
sS'visible'
p11
ccopy_reg
_reconstructor
p12
(cpygame.sprite
Group
p13
c__builtin__
object
p14
Ntp15
Rp16
(dp17
S'spritedict'
p18
(dp19
g12
(csrc.actor
Zombie
p20
g14
Ntp21
Rp22
(dp23
S'loc'
p24
(isrc.util
Loc
p25
(dp26
S'y'
p27
F4023.6605990849325
sg24
(F4513.126976731701
F4023.6605990849325
tp28
sS'x'
p29
F4513.126976731701
sbsS'direction'
p30
F2.0803401087382163
sS'lastLoc'
p31
(isrc.util
Loc
p32
(dp33
g27
F4024.0164910053995
sg24
(F4513.3258348683885
F4024.0164910053995
tp34
sg29
F4513.3258348683885
sbsS'_Sprite__g'
p35
(dp36
g12
(g13
g14
Ntp37
Rp38
(dp39
g18
(dp40
g22
I0
sg12
(g20
g14
Ntp41
Rp42
(dp43
g24
(isrc.util
Loc
p44
(dp45
g27
F933.2123905480721
sg24
(F2907.9766183862907
F933.2123905480721
tp46
sg29
F2907.9766183862907
sbsg30
F3.3724702810507674
sg31
(isrc.util
Loc
p47
(dp48
g27
F933.1645087686672
sg24
(F2908.180310576239
F933.1645087686672
tp49
sg29
F2908.180310576239
sbsg35
(dp50
g38
I0
sg16
I0
ssS'image'
p51
NsS'_visible'
p52
I1
sS'_layer'
p53
I0
sS'effects'
p54
(lp55
sS'source_rect'
p56
NsS'weapons'
p57
(lp58
g12
(csrc.actor
Bite
p59
g14
Ntp60
Rp61
(dp62
S'owner'
p63
g42
sbasS'dirty'
p64
I1
sS'target'
p65
NsS'level'
p66
g12
(csrc.tilemap
Map
p67
g14
Ntp68
Rp69
g0
bsS'speed'
p70
F0.20924429035214565
sS'rect'
p71
cpygame
__rect_constructor
p72
(I266
I81
I12
I12
tp73
Rp74
sS'blendmode'
p75
I4
sbI0
sg12
(csrc.actor
Soldier
p76
g14
Ntp77
Rp78
(dp79
g24
(isrc.util
Loc
p80
(dp81
g27
F2306.584571848153
sg24
(F4223.429680490665
F2306.584571848153
tp82
sg29
F4223.429680490665
sbsg30
F2.1708661776196663
sg31
(isrc.util
Loc
p83
(dp84
g27
F2307.9777591464854
sg24
(F4224.382954072232
F2307.9777591464854
tp85
sg29
F4224.382954072232
sbsg35
(dp86
g38
I0
sg16
I0
sg12
(g13
g14
Ntp87
Rp88
(dp89
g18
(dp90
g78
I0
sg12
(g76
g14
Ntp91
Rp92
(dp93
g24
(isrc.util
Loc
p94
(dp95
g27
F2081.2120369720774
sg24
(F4353.838602936228
F2081.2120369720774
tp96
sg29
F4353.838602936228
sbsg30
F1.7788633118741177
sg31
(isrc.util
Loc
p97
(dp98
g27
F2082.300065595243
sg24
(F4354.068310197108
F2082.300065595243
tp99
sg29
F4354.068310197108
sbsg35
(dp100
g38
I0
sg16
I0
sg88
I0
ssg51
Nsg52
I1
sg53
I0
sg54
(lp101
sg56
Nsg57
(lp102
g12
(csrc.actor
Rifle
p103
g14
Ntp104
Rp105
(dp106
g63
g92
sS'countdown'
p107
I0
sbag12
(csrc.actor
Punch
p108
g14
Ntp109
Rp110
(dp111
g63
g92
sg107
I0
sbasg64
I1
sg66
g69
sg70
F1.1120124597001433
sg71
g72
(I402
I189
I12
I12
tp112
Rp113
sg75
I4
sbI0
sg12
(g76
g14
Ntp114
Rp115
(dp116
g24
(isrc.util
Loc
p117
(dp118
g27
F2295.1345642664114
sg24
(F4479.482279157229
F2295.1345642664114
tp119
sg29
F4479.482279157229
sbsg30
F2.390282558200309
sg31
(isrc.util
Loc
p120
(dp121
g27
F2295.69711795345
sg24
(F4480.084555020047
F2295.69711795345
tp122
sg29
F4480.084555020047
sbsg35
(dp123
g38
I0
sg16
I0
sg88
I0
ssg51
Nsg52
I1
sg53
I0
sg54
(lp124
sg56
Nsg57
(lp125
g12
(g103
g14
Ntp126
Rp127
(dp128
g63
g115
sg107
I0
sbag12
(g108
g14
Ntp129
Rp130
(dp131
g63
g115
sbasg64
I1
sg66
g69
sg70
F0.8241376497492486
sg71
g72
(I413
I209
I12
I12
tp132
Rp133
sg75
I4
sbI0
sg12
(g76
g14
Ntp134
Rp135
(dp136
g24
(isrc.util
Loc
p137
(dp138
g27
F2670.430783871004
sg24
(F1365.4447870690406
F2670.430783871004
tp139
sg29
F1365.4447870690406
sbsg30
F-2.8342292203383215
sg31
(isrc.util
Loc
p140
(dp141
g27
F2670.122336549681
sg24
(F1366.4165108243724
F2670.122336549681
tp142
sg29
F1366.4165108243724
sbsg35
(dp143
g38
I0
sg16
I0
sg88
I0
ssg51
Nsg52
I1
sg53
I0
sg54
(lp144
sg56
Nsg57
(lp145
g12
(g103
g14
Ntp146
Rp147
(dp148
g63
g135
sg107
I0
sbag12
(g108
g14
Ntp149
Rp150
(dp151
g63
g135
sbasg64
I1
sg66
g69
sg70
F1.0195032156435408
sg71
g72
(I122
I244
I12
I12
tp152
Rp153
sg75
I4
sbI0
sg12
(g76
g14
Ntp154
Rp155
(dp156
g24
(isrc.util
Loc
p157
(dp158
g27
F2678.937492586176
sg24
(F1621.3623324346333
F2678.937492586176
tp159
sg29
F1621.3623324346333
sbsg30
F-2.6520121120555524
sg31
(isrc.util
Loc
p160
(dp161
g27
F2678.601434022881
sg24
(F1621.9930144213242
F2678.601434022881
tp162
sg29
F1621.9930144213242
sbsg35
(dp163
g38
I0
sg16
I0
sg88
I0
ssg51
Nsg52
I1
sg53
I0
sg54
(lp164
sg56
Nsg57
(lp165
g12
(g103
g14
Ntp166
Rp167
(dp168
g63
g155
sg107
I0
sbag12
(g108
g14
Ntp169
Rp170
(dp171
g63
g155
sbasg64
I1
sg66
g69
sg70
F0.714629362887126
sg71
g72
(I146
I245
I12
I12
tp172
Rp173
sg75
I4
sbI0
ssS'lostsprites'
p174
(lp175
sbI0
ssg51
Nsg52
I1
sg53
I0
sg54
(lp176
sg56
Nsg57
(lp177
g12
(g103
g14
Ntp178
Rp179
(dp180
g63
g78
sg107
I0
sbag12
(g108
g14
Ntp181
Rp182
(dp183
g63
g78
sbasg64
I1
sg66
g69
sg70
F1.688105852589848
sg71
g72
(I389
I210
I12
I12
tp184
Rp185
sg75
I4
sbI0
sg12
(g20
g14
Ntp186
Rp187
(dp188
g24
(isrc.util
Loc
p189
(dp190
g27
F4863.918415909378
sg24
(F4541.035684570727
F4863.918415909378
tp191
sg29
F4541.035684570727
sbsg30
F3.6437061133064557
sg31
(isrc.util
Loc
p192
(dp193
g27
F4863.918415909378
sg24
(F4542.095935671737
F4863.918415909378
tp194
sg29
F4542.095935671737
sbsg35
(dp195
g38
I0
sg16
I0
ssg51
Nsg52
I1
sg53
I0
sg54
(lp196
sg56
Nsg57
(lp197
g12
(g59
g14
Ntp198
Rp199
(dp200
g63
g187
sg107
I0
sbasg64
I1
sg65
Nsg66
g69
sg70
F1.0602511010089657
sg71
g72
(I419
I449
I12
I12
tp201
Rp202
sg75
I4
sbI0
sg12
(g20
g14
Ntp203
Rp204
(dp205
g24
(isrc.util
Loc
p206
(dp207
g27
F577.4355926764977
sg24
(F2162.2491320442778
F577.4355926764977
tp208
sg29
F2162.2491320442778
sbsg30
F2.060232361767334
sg31
(isrc.util
Loc
p209
(dp210
g27
F577.8940984671906
sg24
(F2162.493361549702
F577.8940984671906
tp211
sg29
F2162.493361549702
sbsg35
(dp212
g38
I0
sg16
I0
ssg51
Nsg52
I1
sg53
I0
sg54
(lp213
sg56
Nsg57
(lp214
g12
(g59
g14
Ntp215
Rp216
(dp217
g63
g204
sg107
I0
sbasS'health'
p218
F3.0
sg64
I1
sg65
Nsg66
g69
sg70
F0.5194955355138335
sg71
g72
(I196
I48
I12
I12
tp219
Rp220
sg75
I4
sbI0
sg12
(g20
g14
Ntp221
Rp222
(dp223
g24
(isrc.util
Loc
p224
(dp225
g27
F4577.408411952265
sg24
(F4832.44477727318
F4577.408411952265
tp226
sg29
F4832.44477727318
sbsg30
F3.084226614279778
sg31
(isrc.util
Loc
p227
(dp228
g27
F4577.4319040367445
sg24
(F4832.853840010767
F4577.4319040367445
tp229
sg29
F4832.853840010767
sbsg35
(dp230
g38
I0
sg16
I0
ssg51
Nsg52
I1
sg53
I0
sg54
(lp231
sg56
Nsg57
(lp232
g12
(g59
g14
Ntp233
Rp234
(dp235
g63
g222
sg107
I0
sbasg218
F19.0
sg64
I1
sg65
Nsg66
g69
sg70
F0.40973674635710355
sg71
g72
(I447
I423
I12
I12
tp236
Rp237
sg75
I4
sbI0
sg12
(csrc.actor
Civilian
p238
g14
Ntp239
Rp240
(dp241
g24
(isrc.util
Loc
p242
(dp243
g27
F2083.405956695298
sg24
(F4225.4341329739
F2083.405956695298
tp244
sg29
F4225.4341329739
sbsg30
F2.9421522108271674
sg31
(isrc.util
Loc
p245
(dp246
g27
F2083.6197489563915
sg24
(F4226.491842621616
F2083.6197489563915
tp247
sg29
F4226.491842621616
sbsg35
(dp248
g38
I0
sg16
I0
sg12
(g13
g14
Ntp249
Rp250
(dp251
g18
(dp252
g240
I0
sg12
(g238
g14
Ntp253
Rp254
(dp255
g24
(isrc.util
Loc
p256
(dp257
g27
F2194.5035108426077
sg24
(F4162.752234189761
F2194.5035108426077
tp258
sg29
F4162.752234189761
sbsg30
F1.2212998343212844
sg31
(isrc.util
Loc
p259
(dp260
g27
F2195.3302677720585
sg24
(F4162.450916011242
F2195.3302677720585
tp261
sg29
F4162.450916011242
sbsg35
(dp262
g38
I0
sg16
I0
sg250
I0
ssg51
Nsg52
I1
sg53
I0
sg54
(lp263
sg56
Nsg57
(lp264
g12
(g108
g14
Ntp265
Rp266
(dp267
g63
g254
sbasg64
I1
sg66
g69
sg70
F0.8799543539873043
sg71
g72
(I384
I199
I12
I12
tp268
Rp269
sg75
I4
sbI0
sg12
(g238
g14
Ntp270
Rp271
(dp272
g24
(isrc.util
Loc
p273
(dp274
g27
F2566.2602383432127
sg24
(F1562.0160848994049
F2566.2602383432127
tp275
sg29
F1562.0160848994049
sbsg30
F-2.896377801646049
sg31
(isrc.util
Loc
p276
(dp277
g27
F2566.079005227786
sg24
(F1562.74029035894
F2566.079005227786
tp278
sg29
F1562.74029035894
sbsg35
(dp279
g38
I0
sg16
I0
sg250
I0
ssg51
Nsg52
I1
sg53
I0
sg54
(lp280
sg56
Nsg57
(lp281
g12
(g108
g14
Ntp282
Rp283
(dp284
g63
g271
sg107
I0
sbasg64
I1
sg66
g69
sg70
F0.7465380028824554
sg71
g72
(I140
I234
I12
I12
tp285
Rp286
sg75
I4
sbI0
sg12
(g238
g14
Ntp287
Rp288
(dp289
g24
(isrc.util
Loc
p290
(dp291
g27
F2301.7718685841874
sg24
(F4351.8524602554635
F2301.7718685841874
tp292
sg29
F4351.8524602554635
sbsg30
F1.660951634766804
sg31
(isrc.util
Loc
p293
(dp294
g27
F2302.341025517677
sg24
(F4351.903912249934
F2302.341025517677
tp295
sg29
F4351.903912249934
sbsg35
(dp296
g38
I0
sg16
I0
sg250
I0
ssg51
Nsg52
I1
sg53
I0
sg54
(lp297
sg56
Nsg57
(lp298
g12
(g108
g14
Ntp299
Rp300
(dp301
g63
g288
sbasg64
I1
sg66
g69
sg70
F0.5714778409299828
sg71
g72
(I401
I209
I12
I12
tp302
Rp303
sg75
I4
sbI0
sg12
(g238
g14
Ntp304
Rp305
(dp306
g24
(isrc.util
Loc
p307
(dp308
g27
F2675.6633847118037
sg24
(F1493.8130061287081
F2675.6633847118037
tp309
sg29
F1493.8130061287081
sbsg30
F-2.775462849917379
sg31
(isrc.util
Loc
p310
(dp311
g27
F2675.349472708229
sg24
(F1494.6317274739147
F2675.349472708229
tp312
sg29
F1494.6317274739147
sbsg35
(dp313
g38
I0
sg16
I0
sg250
I0
ssg51
Nsg52
I1
sg53
I0
sg54
(lp314
sg56
Nsg57
(lp315
g12
(g108
g14
Ntp316
Rp317
(dp318
g63
g305
sbasg64
I1
sg66
g69
sg70
F0.8768382901569838
sg71
g72
(I134
I244
I12
I12
tp319
Rp320
sg75
I4
sbI0
sg12
(g238
g14
Ntp321
Rp322
(dp323
g24
(isrc.util
Loc
p324
(dp325
g27
F2783.5427753051495
sg24
(F1424.6777897910174
F2783.5427753051495
tp326
sg29
F1424.6777897910174
sbsg30
F-1.4014083303608151
sg31
(isrc.util
Loc
p327
(dp328
g27
F2783.03489145071
sg24
(F1424.5909280145308
F2783.03489145071
tp329
sg29
F1424.5909280145308
sbsg35
(dp330
g38
I0
sg16
I0
sg250
I0
ssg51
Nsg52
I1
sg53
I0
sg54
(lp331
sg56
Nsg57
(lp332
g12
(g108
g14
Ntp333
Rp334
(dp335
g63
g322
sbasg64
I1
sg66
g69
sg70
F0.5152581661795024
sg71
g72
(I127
I254
I12
I12
tp336
Rp337
sg75
I4
sbI0
sg12
(g238
g14
Ntp338
Rp339
(dp340
g24
(isrc.util
Loc
p341
(dp342
g27
F2561.8759383932957
sg24
(F1434.193884042281
F2561.8759383932957
tp343
sg29
F1434.193884042281
sbsg30
F2.054294061089436
sg31
(isrc.util
Loc
p344
(dp345
g27
F2562.5467728692784
sg24
(F1434.546115557009
F2562.5467728692784
tp346
sg29
F1434.546115557009
sbsg35
(dp347
g38
I0
sg16
I0
sg250
I0
ssg51
Nsg52
I1
sg53
I0
sg54
(lp348
sg56
Nsg57
(lp349
g12
(g108
g14
Ntp350
Rp351
(dp352
g63
g339
sbasg64
I1
sg66
g69
sg70
F0.7576845874996658
sg71
g72
(I128
I234
I12
I12
tp353
Rp354
sg75
I4
sbI0
sg12
(g238
g14
Ntp355
Rp356
(dp357
g24
(isrc.util
Loc
p358
(dp359
g27
F2899.2831419279223
sg24
(F1612.4468640779323
F2899.2831419279223
tp360
sg29
F1612.4468640779323
sbsg30
F-1.0864371123042522
sg31
(isrc.util
Loc
p361
(dp362
g27
F2898.6139582147907
sg24
(F1612.094763565206
F2898.6139582147907
tp363
sg29
F1612.094763565206
sbsg35
(dp364
g38
I0
sg16
I0
sg250
I0
ssg51
Nsg52
I1
sg53
I0
sg54
(lp365
sg56
Nsg57
(lp366
g12
(g108
g14
Ntp367
Rp368
(dp369
g63
g356
sbasg64
I1
sg66
g69
sg70
F0.7561624250005753
sg71
g72
(I145
I265
I12
I12
tp370
Rp371
sg75
I4
sbI0
sg12
(g238
g14
Ntp372
Rp373
(dp374
g24
(isrc.util
Loc
p375
(dp376
g27
F2894.818504311914
sg24
(F1485.0886753343148
F2894.818504311914
tp377
sg29
F1485.0886753343148
sbsg30
F0.23637770999042346
sg31
(isrc.util
Loc
p378
(dp379
g27
F2894.9948451293058
sg24
(F1484.3566088283244
F2894.9948451293058
tp380
sg29
F1484.3566088283244
sbsg35
(dp381
g38
I0
sg16
I0
sg250
I0
ssg51
Nsg52
I1
sg53
I0
sg54
(lp382
sg56
Nsg57
(lp383
g12
(g108
g14
Ntp384
Rp385
(dp386
g63
g373
sbasg64
I1
sg66
g69
sg70
F0.7530056129082325
sg71
g72
(I133
I265
I12
I12
tp387
Rp388
sg75
I4
sbI0
sg12
(g238
g14
Ntp389
Rp390
(dp391
g24
(isrc.util
Loc
p392
(dp393
g27
F2791.816694355756
sg24
(F1680.7444882332304
F2791.816694355756
tp394
sg29
F1680.7444882332304
sbsg30
F-2.4171447442236005
sg31
(isrc.util
Loc
p395
(dp396
g27
F2791.3214194808124
sg24
(F1681.304140952585
F2791.3214194808124
tp397
sg29
F1681.304140952585
sbsg35
(dp398
g38
I0
sg16
I0
sg250
I0
ssg51
Nsg52
I1
sg53
I0
sg54
(lp399
sg56
Nsg57
(lp400
g12
(g108
g14
Ntp401
Rp402
(dp403
g63
g390
sbasg64
I1
sg66
g69
sg70
F0.7473341742698135
sg71
g72
(I151
I255
I12
I12
tp404
Rp405
sg75
I4
sbI0
sg12
(g238
g14
Ntp406
Rp407
(dp408
g24
(isrc.util
Loc
p409
(dp410
g27
F2192.324543685478
sg24
(F4419.120758087752
F2192.324543685478
tp411
sg29
F4419.120758087752
sbsg30
F-0.02686862381052164
sg31
(isrc.util
Loc
p412
(dp413
g27
F2192.31325023046
sg24
(F4418.700537934366
F2192.31325023046
tp414
sg29
F4418.700537934366
sbsg35
(dp415
g38
I0
sg16
I0
sg250
I0
ssg51
Nsg52
I1
sg53
I0
sg54
(lp416
sg56
Nsg57
(lp417
g12
(g108
g14
Ntp418
Rp419
(dp420
g63
g407
sbasg64
I1
sg66
g69
sg70
F0.4203718823107459
sg71
g72
(I408
I199
I12
I12
tp421
Rp422
sg75
I4
sbI0
sg12
(g238
g14
Ntp423
Rp424
(dp425
g24
(isrc.util
Loc
p426
(dp427
g27
F2192.8909217904566
sg24
(F4289.8107230113965
F2192.8909217904566
tp428
sg29
F4289.8107230113965
sbsg30
F2.6058610458136524
sg31
(isrc.util
Loc
p429
(dp430
g27
F2193.716414865183
sg24
(F4291.201279364485
F2193.716414865183
tp431
sg29
F4291.201279364485
sbsg35
(dp432
g38
I0
sg16
I0
sg250
I0
ssg51
Nsg52
I1
sg53
I0
sg54
(lp433
sg56
Nsg57
(lp434
g12
(g108
g14
Ntp435
Rp436
(dp437
g63
g424
sbasg64
I1
sg66
g69
sg70
F1.61712268784313
sg71
g72
(I396
I199
I12
I12
tp438
Rp439
sg75
I4
sbI0
sg12
(g238
g14
Ntp440
Rp441
(dp442
g24
(isrc.util
Loc
p443
(dp444
g27
F2786.103084094812
sg24
(F1552.5030483187704
F2786.103084094812
tp445
sg29
F1552.5030483187704
sbsg30
F2.070241094666653
sg31
(isrc.util
Loc
p446
(dp447
g27
F2786.45449064329
sg24
(F1552.6947693252039
F2786.45449064329
tp448
sg29
F1552.6947693252039
sbsg35
(dp449
g38
I0
sg16
I0
sg250
I0
ssg51
Nsg52
I1
sg53
I0
sg54
(lp450
sg56
Nsg57
(lp451
g12
(g108
g14
Ntp452
Rp453
(dp454
g63
g441
sbasg64
I1
sg66
g69
sg70
F0.4003042675529202
sg71
g72
(I139
I255
I12
I12
tp455
Rp456
sg75
I4
sbI0
ssg174
(lp457
sbI0
ssg51
Nsg52
I1
sg53
I0
sg54
(lp458
sg56
Nsg57
(lp459
g12
(g108
g14
Ntp460
Rp461
(dp462
g63
g240
sbasg64
I1
sg66
g69
sg70
F1.0791000091630651
sg71
g72
(I390
I189
I12
I12
tp463
Rp464
sg75
I4
sbI0
sg12
(g20
g14
Ntp465
Rp466
(dp467
g24
(isrc.util
Loc
p468
(dp469
g27
F3951.212771306373
sg24
(F4745.07812255933
F3951.212771306373
tp470
sg29
F4745.07812255933
sbsg30
F1.4568466359043826
sg31
(isrc.util
Loc
p471
(dp472
g27
F3952.6699450181873
sg24
(F4744.911355642917
F3952.6699450181873
tp473
sg29
F4744.911355642917
sbsg35
(dp474
g38
I0
sg16
I0
sg12
(g13
g14
Ntp475
Rp476
(dp477
g18
(dp478
g22
I0
sg12
(g20
g14
Ntp479
Rp480
(dp481
g24
(isrc.util
Loc
p482
(dp483
g27
F3702.0915670111563
sg24
(F4863.336603119122
F3702.0915670111563
tp484
sg29
F4863.336603119122
sbsg30
F0.24293876769660058
sg31
(isrc.util
Loc
p485
(dp486
g27
F3703.8057159234904
sg24
(F4863.336603119122
F3703.8057159234904
tp487
sg29
F4863.336603119122
sbsg35
(dp488
g38
I0
sg16
I0
sg476
I0
ssg51
Nsg52
I1
sg53
I0
sg54
(lp489
sg56
Nsg57
(lp490
g12
(g59
g14
Ntp491
Rp492
(dp493
g63
g480
sg107
I0
sbasg64
I1
sg65
Nsg66
g69
sg70
F1.7141489123342424
sg71
g72
(I449
I341
I12
I12
tp494
Rp495
sg75
I4
sbI0
sg12
(g20
g14
Ntp496
Rp497
(dp498
g24
(isrc.util
Loc
p499
(dp500
g27
F3907.829299397091
sg24
(F4834.406899396455
F3907.829299397091
tp501
sg29
F4834.406899396455
sbsg30
F2.448158237091978
sg31
(isrc.util
Loc
p502
(dp503
g27
F3908.645338854652
sg24
(F4835.388746977753
F3908.645338854652
tp504
sg29
F4835.388746977753
sbsg35
(dp505
g38
I0
sg16
I0
sg476
I0
ssg51
Nsg52
I1
sg53
I0
sg54
(lp506
sg56
Nsg57
(lp507
g12
(g59
g14
Ntp508
Rp509
(dp510
g63
g497
sg107
I0
sbasg218
F11.0
sg64
I1
sg65
Nsg66
g69
sg70
F1.2766930207366403
sg71
g72
(I447
I360
I12
I12
tp511
Rp512
sg75
I4
sbI0
sg466
I0
sg12
(g20
g14
Ntp513
Rp514
(dp515
g24
(isrc.util
Loc
p516
(dp517
g27
F821.4017588297212
sg24
(F2836.106602907677
F821.4017588297212
tp518
sg29
F2836.106602907677
sbsg30
F2.664077374971975
sg31
(isrc.util
Loc
p519
(dp520
g27
F821.5921683161879
sg24
(F2836.474574698739
F821.5921683161879
tp521
sg29
F2836.474574698739
sbsg35
(dp522
g38
I0
sg16
I0
sg476
I0
ssg51
Nsg52
I1
sg53
I0
sg54
(lp523
sg56
Nsg57
(lp524
g12
(g59
g14
Ntp525
Rp526
(dp527
g63
g514
sg107
I0
sbasg64
I1
sg65
Nsg66
g69
sg70
F0.4143175250383828
sg71
g72
(I259
I71
I12
I12
tp528
Rp529
sg75
I4
sbI0
sg12
(g20
g14
Ntp530
Rp531
(dp532
g24
(isrc.util
Loc
p533
(dp534
g27
F332.2927213565092
sg24
(F3055.075094192614
F332.2927213565092
tp535
sg29
F3055.075094192614
sbsg30
F3.8511467542737523
sg31
(isrc.util
Loc
p536
(dp537
g27
F332.1720760427944
sg24
(F3055.2155830458732
F332.1720760427944
tp538
sg29
F3055.2155830458732
sbsg35
(dp539
g38
I0
sg16
I0
sg476
I0
ssg51
Nsg52
I1
sg53
I0
sg54
(lp540
sg56
Nsg57
(lp541
g12
(g59
g14
Ntp542
Rp543
(dp544
g63
g531
sg107
I0
sbasg218
F4.0
sg64
I1
sg65
Nsg66
g69
sg70
F0.18518209851790068
sg71
g72
(I280
I25
I12
I12
tp545
Rp546
sg75
I4
sbI0
ssg174
(lp547
sbI0
ssg51
Nsg52
I1
sg53
I0
sg54
(lp548
sg56
Nsg57
(lp549
g12
(g59
g14
Ntp550
Rp551
(dp552
g63
g466
sg107
I0
sbasg218
F11.0
sg64
I1
sg65
Nsg66
g69
sg70
F1.4666855255346336
sg71
g72
(I438
I364
I12
I12
tp553
Rp554
sg75
I4
sbI0
sg514
I0
sg254
I0
sg12
(g20
g14
Ntp555
Rp556
(dp557
g24
(isrc.util
Loc
p558
(dp559
g27
F4652.630611911869
sg24
(F4430.660613784048
F4652.630611911869
tp560
sg29
F4430.660613784048
sbsg30
F4.574569923738899
sg31
(isrc.util
Loc
p561
(dp562
g27
F4650.920511782204
sg24
(F4430.897801799419
F4650.920511782204
tp563
sg29
F4430.897801799419
sbsg35
(dp564
g38
I0
sg16
I0
ssg51
Nsg52
I1
sg53
I0
sg54
(lp565
sg56
Nsg57
(lp566
g12
(g59
g14
Ntp567
Rp568
(dp569
g63
g556
sbasg64
I1
sg65
Nsg66
g69
sg70
F1.7264705639301368
sg71
g72
(I409
I430
I12
I12
tp570
Rp571
sg75
I4
sbI0
sg271
I0
sg288
I0
sg497
I0
sg305
I0
sg322
I0
sg339
I0
sg356
I0
sg373
I0
sg390
I0
sg12
(g20
g14
Ntp572
Rp573
(dp574
g24
(isrc.util
Loc
p575
(dp576
g27
F4556.145597134906
sg24
(F4553.52037023351
F4556.145597134906
tp577
sg29
F4553.52037023351
sbsg30
F1.427943880733217
sg31
(isrc.util
Loc
p578
(dp579
g27
F4557.547244742836
sg24
(F4553.318768222834
F4557.547244742836
tp580
sg29
F4553.318768222834
sbsg35
(dp581
g38
I0
sg16
I0
ssg51
Nsg52
I1
sg53
I0
sg54
(lp582
sg56
Nsg57
(lp583
g12
(g59
g14
Ntp584
Rp585
(dp586
g63
g573
sg107
I0
sbasg64
I1
sg65
Nsg66
g69
sg70
F1.4160718158070968
sg71
g72
(I420
I421
I12
I12
tp587
Rp588
sg75
I4
sbI0
sg407
I0
sg115
I0
sg155
I0
sg531
I0
sg12
(g20
g14
Ntp589
Rp590
(dp591
g24
(isrc.util
Loc
p592
(dp593
g27
F4347.676899088465
sg24
(F4678.481358423431
F4347.676899088465
tp594
sg29
F4678.481358423431
sbsg30
F3.324871515535574
sg31
(isrc.util
Loc
p595
(dp596
g27
F4347.345825154389
sg24
(F4680.267481230625
F4347.345825154389
tp597
sg29
F4680.267481230625
sbsg35
(dp598
g38
I0
sg16
I0
ssg51
Nsg52
I1
sg53
I0
sg54
(lp599
sg56
Nsg57
(lp600
g12
(g59
g14
Ntp601
Rp602
(dp603
g63
g590
sg107
I0
sbasg64
I1
sg65
Nsg66
g69
sg70
F1.8165474483769746
sg71
g72
(I432
I401
I12
I12
tp604
Rp605
sg75
I4
sbI0
sg135
I0
sg92
I0
sg424
I0
sg12
(g20
g14
Ntp606
Rp607
(dp608
g24
(isrc.util
Loc
p609
(dp610
g27
F799.7118799614162
sg24
(F2626.9111904361976
F799.7118799614162
tp611
sg29
F2626.9111904361976
sbsg30
F2.646756315862549
sg31
(isrc.util
Loc
p612
(dp613
g27
F799.9006893106047
sg24
(F2627.2610858358557
F799.9006893106047
tp614
sg29
F2627.2610858358557
sbsg35
(dp615
g38
I0
sg16
I0
ssg51
Nsg52
I1
sg53
I0
sg54
(lp616
sg56
Nsg57
(lp617
g12
(g59
g14
Ntp618
Rp619
(dp620
g63
g607
sbasg64
I1
sg65
Nsg66
g69
sg70
F0.3975874256601146
sg71
g72
(I240
I68
I12
I12
tp621
Rp622
sg75
I4
sbI0
sg441
I0
sg480
I0
sg12
(g20
g14
Ntp623
Rp624
(dp625
g24
(isrc.util
Loc
p626
(dp627
g27
F3817.508088631522
sg24
(F3853.6433294794465
F3817.508088631522
tp628
sg29
F3853.6433294794465
sbsg30
F2.9141758376235356
sg31
(isrc.util
Loc
p629
(dp630
g27
F3817.5574924867733
sg24
(F3853.8568106492394
F3817.5574924867733
tp631
sg29
F3853.8568106492394
sbsg35
(dp632
g38
I0
sg16
I0
ssg51
Nsg52
I1
sg53
I0
sg54
(lp633
sg56
Nsg57
(lp634
g12
(g59
g14
Ntp635
Rp636
(dp637
g63
g624
sbasg64
I1
sg65
Nsg66
g69
sg70
F0.2191231406535723
sg71
g72
(I355
I351
I12
I12
tp638
Rp639
sg75
I4
sbI0
ssg174
(lp640
sbI0
sg16
I0
sg476
I0
ssg51
Nsg52
I1
sg53
I0
sg54
(lp641
sg56
Nsg57
(lp642
g12
(g59
g14
Ntp643
Rp644
(dp645
g63
g22
sg107
I0
sbasg218
F12.0
sg64
I1
sg65
Nsg66
g69
sg70
F0.4076807790177779
sg71
g72
(I417
I371
I12
I12
tp646
Rp647
sg75
I4
sbg72
(I417
I371
I12
I12
tp648
Rp649
sg92
g72
(I402
I189
I12
I12
tp650
Rp651
sg531
g72
(I280
I25
I12
I12
tp652
Rp653
sg187
g72
(I419
I449
I12
I12
tp654
Rp655
sg240
g72
(I390
I189
I12
I12
tp656
Rp657
sg222
g72
(I447
I423
I12
I12
tp658
Rp659
sg204
g72
(I196
I48
I12
I12
tp660
Rp661
sg466
g72
(I438
I364
I12
I12
tp662
Rp663
sg514
g72
(I259
I71
I12
I12
tp664
Rp665
sg254
g72
(I384
I199
I12
I12
tp666
Rp667
sg556
g72
(I409
I430
I12
I12
tp668
Rp669
sg271
g72
(I140
I234
I12
I12
tp670
Rp671
sg288
g72
(I401
I209
I12
I12
tp672
Rp673
sg497
g72
(I447
I360
I12
I12
tp674
Rp675
sg305
g72
(I134
I244
I12
I12
tp676
Rp677
sg322
g72
(I127
I254
I12
I12
tp678
Rp679
sg590
g72
(I432
I401
I12
I12
tp680
Rp681
sg339
g72
(I128
I234
I12
I12
tp682
Rp683
sg356
g72
(I145
I265
I12
I12
tp684
Rp685
sg373
g72
(I133
I265
I12
I12
tp686
Rp687
sg390
g72
(I151
I255
I12
I12
tp688
Rp689
sg573
g72
(I420
I421
I12
I12
tp690
Rp691
sg407
g72
(I408
I199
I12
I12
tp692
Rp693
sg115
g72
(I413
I209
I12
I12
tp694
Rp695
sg155
g72
(I146
I245
I12
I12
tp696
Rp697
sg424
g72
(I396
I199
I12
I12
tp698
Rp699
sg135
g72
(I122
I244
I12
I12
tp700
Rp701
sg42
g72
(I266
I81
I12
I12
tp702
Rp703
sg78
g72
(I389
I210
I12
I12
tp704
Rp705
sg607
g72
(I240
I68
I12
I12
tp706
Rp707
sg441
g72
(I139
I255
I12
I12
tp708
Rp709
sg480
g72
(I449
I341
I12
I12
tp710
Rp711
sg624
g72
(I355
I351
I12
I12
tp712
Rp713
ssg174
(lp714
sbsS'tileNames'
p715
(lp716
S'tile0.png'
p717
aS'tile1.png'
p718
asS'fill'
p719
I0
sS'mobSize'
p720
(isrc.util
Loc
p721
(dp722
g27
I12
sg24
(I12
I12
tp723
sg29
I12
sbsS'scale'
p724
F0.09375
sS'friendlies'
p725
g88
sS'filename'
p726
S'map.p'
p727
sS'width'
p728
I20
sS'enemies'
p729
g476
sS'neutrals'
p730
g250
sS'viewpoint'
p731
(F2560.0
F2560.0
tp732
sS'grid'
p733
(lp734
I1
aI1
aI1
aI1
aI1
aI1
aI1
aI1
aI1
aI1
aI1
aI1
aI1
aI1
aI1
aI1
aI1
aI1
aI1
aI1
aI1
aI0
aI0
aI0
aI0
aI0
aI0
aI0
aI0
aI0
aI0
aI0
aI0
aI0
aI0
aI0
aI0
aI0
aI0
aI1
aI1
aI0
aI0
aI0
aI0
aI0
aI0
aI0
aI0
aI0
aI0
aI0
aI0
aI0
aI0
aI0
aI0
aI0
aI0
aI1
aI1
aI0
aI0
aI0
aI0
aI0
aI0
aI0
aI0
aI0
aI0
aI0
aI0
aI0
aI0
aI0
aI0
aI0
aI0
aI1
aI1
aI0
aI0
aI0
aI0
aI0
aI0
aI0
aI0
aI0
aI0
aI0
aI0
aI0
aI0
aI0
aI0
aI0
aI0
aI1
aI1
aI0
aI0
aI0
aI0
aI0
aI0
aI0
aI0
aI0
aI0
aI0
aI0
aI0
aI0
aI0
aI0
aI0
aI0
aI1
aI1
aI0
aI0
aI0
aI0
aI0
aI0
aI0
aI0
aI0
aI0
aI0
aI0
aI0
aI0
aI0
aI0
aI0
aI0
aI1
aI1
aI0
aI0
aI0
aI0
aI0
aI0
aI0
aI0
aI0
aI0
aI0
aI0
aI0
aI0
aI0
aI0
aI0
aI0
aI1
aI1
aI0
aI0
aI0
aI0
aI0
aI0
aI0
aI0
aI0
aI0
aI0
aI0
aI0
aI0
aI0
aI0
aI0
aI0
aI1
aI1
aI0
aI0
aI0
aI0
aI0
aI0
aI0
aI0
aI0
aI0
aI0
aI0
aI0
aI0
aI0
aI0
aI0
aI0
aI1
aI1
aI0
aI0
aI0
aI0
aI0
aI0
aI0
aI0
aI0
aI0
aI0
aI0
aI0
aI0
aI0
aI0
aI0
aI0
aI1
aI1
aI0
aI0
aI0
aI0
aI0
aI0
aI0
aI0
aI0
aI0
aI0
aI0
aI0
aI0
aI0
aI0
aI0
aI0
aI1
aI1
aI0
aI0
aI0
aI0
aI0
aI0
aI0
aI0
aI0
aI0
aI0
aI0
aI0
aI0
aI0
aI0
aI0
aI0
aI1
aI1
aI0
aI0
aI0
aI0
aI0
aI0
aI0
aI0
aI0
aI0
aI0
aI0
aI0
aI0
aI0
aI0
aI0
aI0
aI1
aI1
aI0
aI0
aI0
aI0
aI0
aI0
aI0
aI0
aI0
aI0
aI0
aI0
aI0
aI0
aI0
aI0
aI0
aI0
aI1
aI1
aI0
aI0
aI0
aI0
aI0
aI0
aI0
aI0
aI0
aI0
aI0
aI0
aI0
aI0
aI0
aI0
aI0
aI0
aI1
aI1
aI0
aI0
aI0
aI0
aI0
aI0
aI0
aI0
aI0
aI0
aI0
aI0
aI0
aI0
aI0
aI0
aI0
aI0
aI1
aI1
aI0
aI0
aI0
aI0
aI0
aI0
aI0
aI0
aI0
aI0
aI0
aI0
aI0
aI0
aI0
aI0
aI0
aI0
aI1
aI1
aI0
aI0
aI0
aI0
aI0
aI0
aI0
aI0
aI0
aI0
aI0
aI0
aI0
aI0
aI0
aI0
aI0
aI0
aI1
aI1
aI1
aI1
aI1
aI1
aI1
aI1
aI1
aI1
aI1
aI1
aI1
aI1
aI1
aI1
aI1
aI1
aI1
aI1
aI1
asS'actorSize'
p735
I12
sS'tileSize'
p736
I24
sS'mobOffset'
p737
(isrc.util
Loc
p738
(dp739
g27
F-6.0
sg24
(F-6.0
F-6.0
tp740
sg29
F-6.0
sbsS'maxScale'
p741
F2.0
sS'mobs'
p742
g38
sS'minScale'
p743
F0.05
s.