(dp0
S'size'
p1
(I20
I20
tp2
sS'actorNames'
p3
(lp4
S'blip.png'
p5
aS'zombie.png'
p6
aS'soldier.png'
p7
aS'civilian.png'
p8
asS'wall'
p9
I1
sS'height'
p10
I20
sS'visible'
p11
ccopy_reg
_reconstructor
p12
(cpygame.sprite
Group
p13
c__builtin__
object
p14
Ntp15
Rp16
(dp17
S'spritedict'
p18
(dp19
g12
(csrc.actor
Soldier
p20
g14
Ntp21
Rp22
(dp23
S'loc'
p24
(isrc.util
Loc
p25
(dp26
S'y'
p27
F256.39478992829464
sg24
(F1173.4550805371985
F256.39478992829464
tp28
sS'x'
p29
F1173.4550805371985
sbsS'direction'
p30
F5.249534832915742
sS'lastLoc'
p31
(isrc.util
Loc
p32
(dp33
g27
F256.39478992829464
sg24
(F1169.4550805371985
F256.39478992829464
tp34
sg29
F1169.4550805371985
sbsS'_Sprite__g'
p35
(dp36
g12
(g13
g14
Ntp37
Rp38
(dp39
g18
(dp40
g12
(csrc.actor
Civilian
p41
g14
Ntp42
Rp43
(dp44
g24
(isrc.util
Loc
p45
(dp46
g27
F3652.8799700313575
sg24
(F4141.190536136105
F3652.8799700313575
tp47
sg29
F4141.190536136105
sbsg30
F5.531679985765136
sg31
(isrc.util
Loc
p48
(dp49
g27
F3653.089028636305
sg24
(F4140.966803382757
F3653.089028636305
tp50
sg29
F4140.966803382757
sbsg35
(dp51
g38
I0
sg12
(g13
g14
Ntp52
Rp53
(dp54
g18
(dp55
g12
(g41
g14
Ntp56
Rp57
(dp58
g24
(isrc.util
Loc
p59
(dp60
g27
F256.18879216066955
sg24
(F4188.023239667786
F256.18879216066955
tp61
sg29
F4188.023239667786
sbsg30
F3.672183275426491
sg31
(isrc.util
Loc
p62
(dp63
g27
F256.18879216066955
sg24
(F4191.623239667786
F256.18879216066955
tp64
sg29
F4191.623239667786
sbsg35
(dp65
g38
I0
sg53
I0
ssS'image'
p66
NsS'_visible'
p67
I1
sS'_layer'
p68
I0
sS'source_rect'
p69
NsS'dirty'
p70
I1
sS'fear'
p71
g12
(csrc.actor
Zombie
p72
g14
Ntp73
Rp74
(dp75
g24
(isrc.util
Loc
p76
(dp77
g27
F337.3742857068399
sg24
(F4516.3385058976855
F337.3742857068399
tp78
sg29
F4516.3385058976855
sbsg30
F3.386590669654147
sg31
(isrc.util
Loc
p79
(dp80
g27
F338.0534380271145
sg24
(F4519.054891755009
F338.0534380271145
tp81
sg29
F4519.054891755009
sbsg35
(dp82
g38
I0
sg12
(g13
g14
Ntp83
Rp84
(dp85
g18
(dp86
g74
I0
sg12
(g72
g14
Ntp87
Rp88
(dp89
g24
(isrc.util
Loc
p90
(dp91
g27
F2753.498454439038
sg24
(F2593.0959562090115
F2753.498454439038
tp92
sg29
F2593.0959562090115
sbsg30
F5.4407825669757655
sg31
(isrc.util
Loc
p93
(dp94
g27
F2753.708428913223
sg24
(F2592.9086529462807
F2753.708428913223
tp95
sg29
F2592.9086529462807
sbsg35
(dp96
g38
I0
sg84
I0
ssg66
Nsg67
I1
sg68
I0
sg69
NsS'blendmode'
p97
I4
sS'target'
p98
NsS'level'
p99
g12
(csrc.tilemap
Map
p100
g14
Ntp101
Rp102
g0
bsS'speed'
p103
F0.2813748248136319
sS'rect'
p104
cpygame
__rect_constructor
p105
(I196
I299
I8
I8
tp106
Rp107
sg70
I1
sbI0
sg12
(g72
g14
Ntp108
Rp109
(dp110
g24
(isrc.util
Loc
p111
(dp112
g27
F1453.5875765327378
sg24
(F445.55226529147643
F1453.5875765327378
tp113
sg29
F445.55226529147643
sbsg30
F5.365120298229581
sg31
(isrc.util
Loc
p114
(dp115
g27
F1454.554282615373
sg24
(F444.8131961092619
F1454.554282615373
tp116
sg29
F444.8131961092619
sbsg35
(dp117
g38
I0
sg84
I0
sg16
I0
ssg66
Nsg67
I1
sg68
I0
sg69
Nsg97
I4
sg98
Nsg99
g102
sg103
F1.2168582112568185
sg104
g105
(I62
I218
I8
I8
tp118
Rp119
sg70
I1
sbI0
sg12
(g72
g14
Ntp120
Rp121
(dp122
g24
(isrc.util
Loc
p123
(dp124
g27
F1485.917701111386
sg24
(F508.7083651070252
F1485.917701111386
tp125
sg29
F508.7083651070252
sbsg30
F6.130590772153294
sg31
(isrc.util
Loc
p126
(dp127
g27
F1486.0779674354092
sg24
(F507.6662540643055
F1486.0779674354092
tp128
sg29
F507.6662540643055
sbsg35
(dp129
g38
I0
sg84
I0
sg16
I0
ssg66
Nsg67
I1
sg68
I0
sg69
Nsg97
I4
sg98
Nsg99
g102
sg103
F1.0543627079777558
sg104
g105
(I66
I220
I8
I8
tp130
Rp131
sg70
I1
sbI0
sg12
(g72
g14
Ntp132
Rp133
(dp134
g24
(isrc.util
Loc
p135
(dp136
g27
F4854.283545714258
sg24
(F2601.8572640975026
F4854.283545714258
tp137
sg29
F2601.8572640975026
sbsg30
F2.2396970691686757
sg31
(isrc.util
Loc
p138
(dp139
g27
F4853.779654106166
sg24
(F2602.2555735362866
F4853.779654106166
tp140
sg29
F2602.2555735362866
sbsg35
(dp141
g38
I0
sg84
I0
ssg66
Nsg67
I1
sg68
I0
sg69
Nsg97
I4
sg98
Nsg99
g102
sg103
F0.6423061277385188
sg104
g105
(I197
I430
I8
I8
tp142
Rp143
sg70
I1
sbI0
sg12
(g72
g14
Ntp144
Rp145
(dp146
g24
(isrc.util
Loc
p147
(dp148
g27
F4834.256800292373
sg24
(F2654.5361200001967
F4834.256800292373
tp149
sg29
F2654.5361200001967
sbsg30
F2.0324634571643876
sg31
(isrc.util
Loc
p150
(dp151
g27
F4833.732621123768
sg24
(F2654.7969132094727
F4833.732621123768
tp152
sg29
F2654.7969132094727
sbsg35
(dp153
g38
I0
sg84
I0
ssg66
Nsg67
I1
sg68
I0
sg69
Nsg97
I4
sg98
Nsg99
g102
sg103
F0.5854715183542625
sg104
g105
(I200
I429
I8
I8
tp154
Rp155
sg70
I1
sbI0
sg12
(g72
g14
Ntp156
Rp157
(dp158
g24
(isrc.util
Loc
p159
(dp160
g27
F335.17730211465516
sg24
(F4512.223202932842
F335.17730211465516
tp161
sg29
F4512.223202932842
sbsg30
F3.3758318680118093
sg31
(isrc.util
Loc
p162
(dp163
g27
F335.82719063593544
sg24
(F4514.946738302523
F335.82719063593544
tp164
sg29
F4514.946738302523
sbsg35
(dp165
g38
I0
sg84
I0
ssg66
Nsg67
I1
sg68
I0
sg69
Nsg97
I4
sg98
g12
(g41
g14
Ntp166
Rp167
(dp168
g24
(isrc.util
Loc
p169
(dp170
g27
F257.6380105388579
sg24
(F4183.673621224987
F257.6380105388579
tp171
sg29
F4183.673621224987
sbsg30
F3.945102859069311
sg31
(isrc.util
Loc
p172
(dp173
g27
F257.6380105388579
sg24
(F4187.273621224987
F257.6380105388579
tp174
sg29
F4187.273621224987
sbsg35
(dp175
g38
I0
sg53
I0
ssg66
Nsg67
I1
sg68
I0
sg69
Nsg70
I1
sg71
g74
sg99
g102
sg103
F3.6
sg104
g105
(I296
I143
I8
I8
tp176
Rp177
sg97
I4
sbsg99
g102
sg103
F2.8
sg104
g105
(I316
I148
I8
I8
tp178
Rp179
sg70
I1
sbI0
sg12
(g72
g14
Ntp180
Rp181
(dp182
g24
(isrc.util
Loc
p183
(dp184
g27
F337.3279926983198
sg24
(F4516.301743018259
F337.3279926983198
tp185
sg29
F4516.301743018259
sbsg30
F3.386483118060216
sg31
(isrc.util
Loc
p186
(dp187
g27
F338.0068528630383
sg24
(F4519.018201903786
F338.0068528630383
tp188
sg29
F4519.018201903786
sbsg35
(dp189
g38
I0
sg84
I0
ssg66
Nsg67
I1
sg68
I0
sg69
Nsg97
I4
sg98
g57
sg99
g102
sg103
F2.8
sg104
g105
(I316
I148
I8
I8
tp190
Rp191
sg70
I1
sbI0
sg12
(g72
g14
Ntp192
Rp193
(dp194
g24
(isrc.util
Loc
p195
(dp196
g27
F336.7111028747521
sg24
(F4513.627543550762
F336.7111028747521
tp197
sg29
F4513.627543550762
sbsg30
F3.3840295906394138
sg31
(isrc.util
Loc
p198
(dp199
g27
F337.38329609649526
sg24
(F4516.345659860386
F337.38329609649526
tp200
sg29
F4516.345659860386
sbsg35
(dp201
g38
I0
sg84
I0
ssg66
Nsg67
I1
sg68
I0
sg69
Nsg97
I4
sg98
g57
sg99
g102
sg103
F2.8
sg104
g105
(I316
I148
I8
I8
tp202
Rp203
sg70
I1
sbI0
sg12
(g72
g14
Ntp204
Rp205
(dp206
g24
(isrc.util
Loc
p207
(dp208
g27
F557.1572264324874
sg24
(F3669.3415571714654
F557.1572264324874
tp209
sg29
F3669.3415571714654
sbsg30
F3.345355782412764
sg31
(isrc.util
Loc
p210
(dp211
g27
F557.7238233226127
sg24
(F3672.0836308327844
F557.7238233226127
tp212
sg29
F3672.0836308327844
sbsg35
(dp213
g38
I0
sg84
I0
sg16
I0
ssg66
Nsg67
I1
sg68
I0
sg69
Nsg97
I4
sg98
g12
(g20
g14
Ntp214
Rp215
(dp216
g24
(isrc.util
Loc
p217
(dp218
g27
F256.20559347336297
sg24
(F2212.8712509442876
F256.20559347336297
tp219
sg29
F2212.8712509442876
sbsg30
F3.616787156435311
sg31
(isrc.util
Loc
p220
(dp221
g27
F256.20559347336297
sg24
(F2216.8712509442876
F256.20559347336297
tp222
sg29
F2216.8712509442876
sbsg35
(dp223
g38
I0
sg12
(g13
g14
Ntp224
Rp225
(dp226
g18
(dp227
g22
I0
sg12
(g20
g14
Ntp228
Rp229
(dp230
g24
(isrc.util
Loc
p231
(dp232
g27
F398.72614875777816
sg24
(F2144.5574991226313
F398.72614875777816
tp233
sg29
F2144.5574991226313
sbsg30
F2.562076707094449
sg31
(isrc.util
Loc
p234
(dp235
g27
F396.5356728380688
sg24
(F2147.9044104219
F396.5356728380688
tp236
sg29
F2147.9044104219
sbsg35
(dp237
g38
I0
sg225
I0
sg16
I0
ssg66
Nsg67
I1
sg68
I0
sg69
Nsg70
I1
sg71
g205
sg99
g102
sg103
F4.0
sg104
g105
(I168
I152
I8
I8
tp238
Rp239
sg97
I4
sbI0
sg12
(g20
g14
Ntp240
Rp241
(dp242
g24
(isrc.util
Loc
p243
(dp244
g27
F335.7572079332895
sg24
(F2150.475149795255
F335.7572079332895
tp245
sg29
F2150.475149795255
sbsg30
F2.785675298261645
sg31
(isrc.util
Loc
p246
(dp247
g27
F334.3634064378421
sg24
(F2154.2244587170817
F334.3634064378421
tp248
sg29
F2154.2244587170817
sbsg35
(dp249
g38
I0
sg225
I0
sg16
I0
ssg66
Nsg67
I1
sg68
I0
sg69
Nsg70
I1
sg71
g205
sg99
g102
sg103
F4.0
sg104
g105
(I169
I148
I8
I8
tp250
Rp251
sg97
I4
sbI0
sg12
(g20
g14
Ntp252
Rp253
(dp254
g24
(isrc.util
Loc
p255
(dp256
g27
F1871.949577355763
sg24
(F3859.2170569450846
F1871.949577355763
tp257
sg29
F3859.2170569450846
sbsg30
F7.082327951710328
sg31
(isrc.util
Loc
p258
(dp259
g27
F1869.0825433477003
sg24
(F3856.4277710155657
F1869.0825433477003
tp260
sg29
F3856.4277710155657
sbsg35
(dp261
g38
I0
sg225
I0
sg16
I0
ssg66
Nsg67
I1
sg68
I0
sg69
Nsg70
I1
sg71
g205
sg99
g102
sg103
F4.0
sg104
g105
(I275
I244
I8
I8
tp262
Rp263
sg97
I4
sbI0
sg215
I0
ssS'lostsprites'
p264
(lp265
sbI0
sg16
I0
ssg66
Nsg67
I1
sg68
I0
sg69
Nsg70
I1
sg71
g205
sg99
g102
sg103
F4.0
sg104
g105
(I172
I143
I8
I8
tp266
Rp267
sg97
I4
sbsg99
g102
sg103
F2.8
sg104
g105
(I263
I162
I8
I8
tp268
Rp269
sg70
I1
sbI0
ssg264
(lp270
sbI0
ssg66
Nsg67
I1
sg68
I0
sg69
Nsg97
I4
sg98
g57
sg99
g102
sg103
F2.8
sg104
g105
(I316
I148
I8
I8
tp271
Rp272
sg70
I1
sbsg99
g102
sg103
F3.6
sg104
g105
(I296
I143
I8
I8
tp273
Rp274
sg97
I4
sbI0
sg43
I0
sg167
I0
sg12
(g41
g14
Ntp275
Rp276
(dp277
g24
(isrc.util
Loc
p278
(dp279
g27
F4261.497136318897
sg24
(F4230.361527550646
F4261.497136318897
tp280
sg29
F4230.361527550646
sbsg30
F0.4998185861722249
sg31
(isrc.util
Loc
p281
(dp282
g27
F4261.0716271967085
sg24
(F4229.582302371949
F4261.0716271967085
tp283
sg29
F4229.582302371949
sbsg35
(dp284
g38
I0
sg53
I0
ssg66
Nsg67
I1
sg68
I0
sg69
Nsg70
I1
sg71
Nsg99
g102
sg103
F0.8878343833070763
sg104
g105
(I299
I393
I8
I8
tp285
Rp286
sg97
I4
sbI0
sg12
(g41
g14
Ntp287
Rp288
(dp289
g24
(isrc.util
Loc
p290
(dp291
g27
F4827.417522417834
sg24
(F4211.484464273514
F4827.417522417834
tp292
sg29
F4211.484464273514
sbsg30
F5.092355525670406
sg31
(isrc.util
Loc
p293
(dp294
g27
F4828.25653461216
sg24
(F4211.149384675973
F4828.25653461216
tp295
sg29
F4211.149384675973
sbsg35
(dp296
g38
I0
sg53
I0
ssg66
Nsg67
I1
sg68
I0
sg69
Nsg70
I1
sg71
Nsg99
g102
sg103
F0.903448835804269
sg104
g105
(I297
I429
I8
I8
tp297
Rp298
sg97
I4
sbI0
ssg264
(lp299
sbI0
ssg66
Nsg67
I1
sg68
I0
sg69
Nsg70
I1
sg71
Nsg99
g102
sg103
F0.30620556040637614
sg104
g105
(I293
I355
I8
I8
tp300
Rp301
sg97
I4
sbI0
sg88
I0
sg253
I0
sg109
I0
sg229
I0
sg22
I0
sg121
I0
sg74
I0
sg181
I0
sg145
I0
sg133
I0
sg288
I0
sg241
I0
sg157
I0
sg167
I0
sg57
I0
sg193
I0
sg215
I0
sg205
I0
sg276
I0
ssg264
(lp302
sbI0
sg225
I0
sg16
I0
ssg66
Nsg67
I1
sg68
I0
sg69
Nsg70
I1
sg71
g109
sg99
g102
sg103
F4.0
sg104
g105
(I107
I143
I8
I8
tp303
Rp304
sg97
I4
sbg105
(I107
I143
I8
I8
tp305
Rp306
sg241
g105
(I169
I148
I8
I8
tp307
Rp308
sg229
g105
(I168
I152
I8
I8
tp309
Rp310
sg205
g105
(I263
I162
I8
I8
tp311
Rp312
sg215
g105
(I172
I143
I8
I8
tp313
Rp314
sg109
g105
(I62
I218
I8
I8
tp315
Rp316
sg253
g105
(I275
I244
I8
I8
tp317
Rp318
sg121
g105
(I66
I220
I8
I8
tp319
Rp320
ssg264
(lp321
sbsS'tileNames'
p322
(lp323
S'tile0.png'
p324
aS'tile1.png'
p325
asS'fill'
p326
I0
sS'mobSize'
p327
(isrc.util
Loc
p328
(dp329
g27
I8
sg24
(I8
I8
tp330
sg29
I8
sbsS'scale'
p331
F0.06510416666666667
sS'friendlies'
p332
g225
sS'filename'
p333
S'map.p'
p334
sS'width'
p335
I20
sS'enemies'
p336
g84
sS'neutrals'
p337
g53
sS'viewpoint'
p338
(F3222.294238683149
F1735.5307818929912
tp339
sS'grid'
p340
(lp341
I1
aI1
aI1
aI1
aI1
aI1
aI1
aI1
aI1
aI1
aI1
aI1
aI1
aI1
aI1
aI1
aI1
aI1
aI1
aI1
aI1
aI0
aI0
aI0
aI0
aI0
aI0
aI0
aI0
aI0
aI0
aI0
aI0
aI0
aI0
aI0
aI0
aI0
aI0
aI1
aI1
aI0
aI0
aI0
aI0
aI0
aI0
aI0
aI0
aI0
aI0
aI0
aI0
aI0
aI0
aI0
aI0
aI0
aI0
aI1
aI1
aI0
aI0
aI0
aI0
aI0
aI0
aI0
aI0
aI0
aI0
aI0
aI0
aI0
aI0
aI0
aI1
aI0
aI0
aI1
aI1
aI0
aI0
aI0
aI0
aI0
aI1
aI1
aI1
aI1
aI1
aI1
aI0
aI1
aI0
aI0
aI1
aI0
aI0
aI1
aI1
aI0
aI0
aI0
aI0
aI0
aI0
aI0
aI0
aI0
aI0
aI0
aI0
aI1
aI0
aI0
aI1
aI0
aI0
aI1
aI1
aI1
aI0
aI0
aI0
aI0
aI0
aI0
aI0
aI0
aI0
aI0
aI0
aI0
aI1
aI0
aI1
aI0
aI0
aI1
aI1
aI1
aI0
aI0
aI0
aI1
aI0
aI0
aI0
aI0
aI0
aI0
aI0
aI0
aI0
aI0
aI1
aI0
aI0
aI1
aI1
aI1
aI0
aI0
aI0
aI0
aI1
aI1
aI1
aI1
aI1
aI1
aI1
aI1
aI0
aI0
aI1
aI0
aI0
aI1
aI1
aI1
aI0
aI0
aI0
aI0
aI0
aI0
aI0
aI0
aI0
aI0
aI0
aI0
aI0
aI0
aI1
aI0
aI0
aI1
aI1
aI1
aI0
aI0
aI1
aI1
aI1
aI0
aI0
aI0
aI0
aI0
aI1
aI1
aI1
aI0
aI1
aI0
aI0
aI1
aI1
aI1
aI0
aI0
aI0
aI0
aI1
aI1
aI1
aI1
aI1
aI1
aI1
aI0
aI0
aI0
aI0
aI0
aI0
aI1
aI1
aI1
aI1
aI0
aI0
aI0
aI0
aI0
aI0
aI0
aI0
aI0
aI0
aI0
aI0
aI0
aI0
aI0
aI0
aI1
aI1
aI0
aI1
aI0
aI0
aI0
aI0
aI0
aI0
aI0
aI0
aI0
aI0
aI0
aI0
aI0
aI0
aI0
aI0
aI1
aI1
aI0
aI1
aI0
aI0
aI0
aI0
aI0
aI0
aI0
aI0
aI0
aI0
aI0
aI0
aI0
aI0
aI0
aI0
aI1
aI1
aI0
aI1
aI0
aI0
aI0
aI0
aI0
aI0
aI0
aI0
aI0
aI0
aI0
aI0
aI0
aI0
aI0
aI0
aI1
aI1
aI0
aI0
aI0
aI0
aI0
aI0
aI0
aI0
aI1
aI1
aI1
aI1
aI1
aI0
aI0
aI0
aI0
aI0
aI1
aI1
aI0
aI0
aI0
aI0
aI0
aI0
aI0
aI0
aI0
aI0
aI0
aI0
aI0
aI0
aI0
aI0
aI0
aI0
aI1
aI1
aI0
aI0
aI0
aI0
aI0
aI0
aI0
aI0
aI0
aI0
aI0
aI0
aI0
aI0
aI0
aI0
aI0
aI0
aI1
aI1
aI1
aI1
aI1
aI1
aI1
aI1
aI1
aI1
aI1
aI1
aI1
aI1
aI1
aI1
aI1
aI1
aI1
aI1
aI1
asS'actorSize'
p342
I8
sS'tileSize'
p343
I16
sS'mobOffset'
p344
(isrc.util
Loc
p345
(dp346
g27
F-4.0
sg24
(F-4.0
F-4.0
tp347
sg29
F-4.0
sbsS'maxScale'
p348
F2.0
sS'mobs'
p349
g38
sS'minScale'
p350
F0.05
s.