(dp0
S'size'
p1
(I20
I20
tp2
sS'actorNames'
p3
(lp4
S'blip.png'
p5
aS'zombie.png'
p6
aS'soldier.png'
p7
aS'civilian.png'
p8
aS'corpse.png'
p9
asS'wall'
p10
I1
sS'height'
p11
I20
sS'visible'
p12
ccopy_reg
_reconstructor
p13
(cpygame.sprite
Group
p14
c__builtin__
object
p15
Ntp16
Rp17
(dp18
S'spritedict'
p19
(dp20
g13
(csrc.actor
Zombie
p21
g15
Ntp22
Rp23
(dp24
S'distanceMoved'
p25
F0.7875648655400609
sS'image'
p26
NsS'blendmode'
p27
I4
sS'speed'
p28
F0.7875648655399722
sS'maxRiled'
p29
F0.1
sS'loc'
p30
(isrc.util
Loc
p31
(dp32
S'y'
p33
F3360.971974395918
sg30
(F1408.6192242962204
F3360.971974395918
tp34
sS'x'
p35
F1408.6192242962204
sbsS'riled'
p36
I0
sS'lastLoc'
p37
(isrc.util
Loc
p38
(dp39
g33
F3360.8578628975242
sg30
(F1407.8399701763292
F3360.8578628975242
tp40
sg35
F1407.8399701763292
sbsS'_Sprite__g'
p41
(dp42
g13
(g14
g15
Ntp43
Rp44
(dp45
g19
(dp46
g13
(g21
g15
Ntp47
Rp48
(dp49
g29
F1.1499999999998525
sg30
(isrc.util
Loc
p50
(dp51
g33
F798.6163052165186
sg30
(F3520.851960712884
F798.6163052165186
tp52
sg35
F3520.851960712884
sbsS'direction'
p53
F2.7473333999528267
sg36
F1.0499999999998524
sg37
(isrc.util
Loc
p54
(dp55
g33
F800.1528027243166
sg30
(F3524.545086138392
F800.1528027243166
tp56
sg35
F3524.545086138392
sbsg41
(dp57
g44
I0
sg17
I0
sg13
(g14
g15
Ntp58
Rp59
(dp60
g19
(dp61
g23
I0
sg13
(g21
g15
Ntp62
Rp63
(dp64
g29
F1.499999999999979
sg30
(isrc.util
Loc
p65
(dp66
g33
F646.8002131103195
sg30
(F3477.735312844606
F646.8002131103195
tp67
sg35
F3477.735312844606
sbsg53
F-2.70867266647971
sg36
F1.3999999999999788
sg37
(isrc.util
Loc
p68
(dp69
g33
F645.1221203513459
sg30
(F3481.366291320483
F645.1221203513459
tp70
sg35
F3481.366291320483
sbsg41
(dp71
g44
I0
sg17
I0
sg59
I0
ssS'targetDistance'
p72
F1000000000000000.0
sg26
NsS'_visible'
p73
I1
sS'_layer'
p74
I0
sS'effects'
p75
(lp76
sS'source_rect'
p77
NsS'weapons'
p78
(lp79
g13
(csrc.actor
Bite
p80
g15
Ntp81
Rp82
(dp83
S'owner'
p84
g63
sS'countdown'
p85
I0
sbasS'dirty'
p86
I1
sS'target'
p87
NsS'highlight'
p88
(lp89
sS'level'
p90
g13
(csrc.tilemap
Map
p91
g15
Ntp92
Rp93
g0
bsg28
F4.0
sg25
F4.000000000000122
sS'rect'
p94
cpygame
__rect_constructor
p95
(I719
I122
I27
I27
tp96
Rp97
sg27
I4
sbI0
sg13
(g21
g15
Ntp98
Rp99
(dp100
g25
F3.9999999999999964
sg26
Nsg27
I4
sg28
F4.0
sg29
F1.499999999999979
sg30
(isrc.util
Loc
p101
(dp102
g33
F570.3638482764655
sg30
(F3445.833159747561
F570.3638482764655
tp103
sg35
F3445.833159747561
sbsg36
F1.3999999999999788
sg37
(isrc.util
Loc
p104
(dp105
g33
F569.6749309352272
sg30
(F3449.773387265984
F569.6749309352272
tp106
sg35
F3449.773387265984
sbsg41
(dp107
g44
I0
sg17
I0
sg59
I0
ssg77
Nsg78
(lp108
g13
(g80
g15
Ntp109
Rp110
(dp111
g84
g99
sg85
I0
sbasS'health'
p112
F11.0
sg53
F-2.9685002762213926
sg74
I0
sg75
(lp113
sg94
g95
(I712
I106
I27
I27
tp114
Rp115
sg87
Nsg90
g93
sg73
I1
sg72
F1000000000000000.0
sg86
I1
sg88
(lp116
sbI0
sg13
(g21
g15
Ntp117
Rp118
(dp119
g29
F0.1
sg30
(isrc.util
Loc
p120
(dp121
g33
F3293.866027880651
sg30
(F2086.944912436753
F3293.866027880651
tp122
sg35
F2086.944912436753
sbsg53
F2.1731509757374443
sg36
I0
sg37
(isrc.util
Loc
p123
(dp124
g33
F3294.2583999219737
sg30
(F2087.214707106485
F3294.2583999219737
tp125
sg35
F2087.214707106485
sbsg41
(dp126
g44
I0
sg17
I0
sg59
I0
ssg72
F1000000000000000.0
sg26
Nsg73
I1
sg74
I0
sg75
(lp127
sg77
Nsg78
(lp128
g13
(g80
g15
Ntp129
Rp130
(dp131
g84
g118
sbasg86
I1
sg87
Nsg88
(lp132
sg90
g93
sg28
F0.47617746967644325
sg25
F0.47617746967661145
sg94
g95
(I426
I680
I27
I27
tp133
Rp134
sg27
I4
sbI0
sg13
(g21
g15
Ntp135
Rp136
(dp137
g25
F3.9999999999998996
sg26
Nsg27
I4
sg28
F4.0
sg29
F1.499999999999979
sg30
(isrc.util
Loc
p138
(dp139
g33
F567.936245198112
sg30
(F3471.775133303348
F567.936245198112
tp140
sg35
F3471.775133303348
sbsg36
F1.3999999999999788
sg37
(isrc.util
Loc
p141
(dp142
g33
F567.5927045180406
sg30
(F3475.760353473067
F567.5927045180406
tp143
sg35
F3475.760353473067
sbsg41
(dp144
g44
I0
sg17
I0
sg59
I0
ssg77
Nsg78
(lp145
g13
(g80
g15
Ntp146
Rp147
(dp148
g84
g136
sg85
I0
sbasg112
F18.0
sg53
F-3.0556015462955015
sg74
I0
sg75
(lp149
sg94
g95
(I718
I105
I27
I27
tp150
Rp151
sg87
Nsg90
g93
sg73
I1
sg72
F1000000000000000.0
sg86
I1
sg88
(lp152
sbI0
sg13
(g21
g15
Ntp153
Rp154
(dp155
g29
F1.4499999999999789
sg30
(isrc.util
Loc
p156
(dp157
g33
F618.940690905098
sg30
(F3463.7343989031133
F618.940690905098
tp158
sg35
F3463.7343989031133
sbsg53
F-2.604094366866747
sg36
F1.3499999999999788
sg37
(isrc.util
Loc
p159
(dp160
g33
F616.8927363298245
sg30
(F3467.170367770495
F616.8927363298245
tp161
sg35
F3467.170367770495
sbsg41
(dp162
g44
I0
sg17
I0
sg59
I0
ssg72
F1000000000000000.0
sg26
Nsg73
I1
sg74
I0
sg75
(lp163
sg77
Nsg78
(lp164
g13
(g80
g15
Ntp165
Rp166
(dp167
g84
g154
sbasg86
I1
sg87
Nsg88
(lp168
sg90
g93
sg28
F4.0
sg25
F3.9999999999999734
sg94
g95
(I716
I116
I27
I27
tp169
Rp170
sg27
I4
sbI0
sg13
(g21
g15
Ntp171
Rp172
(dp173
g25
F3.999999999999864
sg26
Nsg27
I4
sg28
F4.0
sg29
F1.4499999999999789
sg30
(isrc.util
Loc
p174
(dp175
g33
F590.4915756908229
sg30
(F3491.992905800429
F590.4915756908229
tp176
sg35
F3491.992905800429
sbsg36
F1.3499999999999788
sg37
(isrc.util
Loc
p177
(dp178
g33
F589.3944262762316
sg30
(F3495.839496909718
F589.3944262762316
tp179
sg35
F3495.839496909718
sbsg41
(dp180
g44
I0
sg17
I0
sg59
I0
ssg77
Nsg78
(lp181
g13
(g80
g15
Ntp182
Rp183
(dp184
g84
g172
sg85
I0
sbasg112
F12.0
sg53
F-2.8637440975585564
sg74
I0
sg75
(lp185
sg94
g95
(I722
I110
I27
I27
tp186
Rp187
sg87
Nsg90
g93
sg73
I1
sg72
F1000000000000000.0
sg86
I1
sg88
(lp188
sbI0
sg13
(g21
g15
Ntp189
Rp190
(dp191
g29
F1.499999999999979
sg30
(isrc.util
Loc
p192
(dp193
g33
F596.6562225441885
sg30
(F3460.852275593452
F596.6562225441885
tp194
sg35
F3460.852275593452
sbsg53
F-2.7090579054283523
sg36
F1.3999999999999788
sg37
(isrc.util
Loc
p195
(dp196
g33
F594.979528704033
sg30
(F3464.4839002665676
F594.979528704033
tp197
sg35
F3464.4839002665676
sbsg41
(dp198
g44
I0
sg17
I0
sg59
I0
ssg72
F1000000000000000.0
sg26
Nsg73
I1
sg74
I0
sg75
(lp199
sg77
Nsg78
(lp200
g13
(g80
g15
Ntp201
Rp202
(dp203
g84
g190
sg85
I0
sbasg86
I1
sg87
Nsg88
(lp204
sg90
g93
sg28
F4.0
sg25
F3.9999999999998272
sg94
g95
(I716
I111
I27
I27
tp205
Rp206
sg27
I4
sbI0
sg13
(g21
g15
Ntp207
Rp208
(dp209
g29
F0.1
sg30
(isrc.util
Loc
p210
(dp211
g33
F3517.20825123045
sg30
(F2610.350425895264
F3517.20825123045
tp212
sg35
F2610.350425895264
sbsg53
F-0.43568657457762705
sg36
I0
sg37
(isrc.util
Loc
p213
(dp214
g33
F3516.8733325092508
sg30
(F2609.630977824927
F3516.8733325092508
tp215
sg35
F2609.630977824927
sbsg41
(dp216
g44
I0
sg17
I0
sg59
I0
ssg72
F1000000000000000.0
sg26
Nsg73
I1
sg74
I0
sg75
(lp217
sg77
Nsg78
(lp218
g13
(g80
g15
Ntp219
Rp220
(dp221
g84
g208
sbasg86
I1
sg87
Nsg88
(lp222
sg90
g93
sg28
F0.7935843217464109
sg25
F0.7935843217461896
sg94
g95
(I536
I727
I27
I27
tp223
Rp224
sg27
I4
sbI0
sg13
(g21
g15
Ntp225
Rp226
(dp227
g25
F4.000000000000115
sg26
Nsg27
I4
sg28
F4.0
sg29
F1.4499999999999789
sg30
(isrc.util
Loc
p228
(dp229
g33
F618.7310156399454
sg30
(F3516.4357729384005
F618.7310156399454
tp230
sg35
F3516.4357729384005
sbsg36
F1.3499999999999788
sg37
(isrc.util
Loc
p231
(dp232
g33
F617.1892282724801
sg30
(F3520.126693110055
F617.1892282724801
tp233
sg35
F3520.126693110055
sbsg41
(dp234
g44
I0
sg17
I0
sg59
I0
ssg77
Nsg78
(lp235
g13
(g80
g15
Ntp236
Rp237
(dp238
g84
g226
sg85
I0
sbasg112
F10.0
sg53
F-2.7459006193198565
sg74
I0
sg75
(lp239
sg94
g95
(I727
I116
I27
I27
tp240
Rp241
sg87
Nsg90
g93
sg73
I1
sg72
F1000000000000000.0
sg86
I1
sg88
(lp242
sbI0
sg13
(g21
g15
Ntp243
Rp244
(dp245
g29
F1.4499999999999789
sg30
(isrc.util
Loc
p246
(dp247
g33
F632.7178685204044
sg30
(F3525.585189367773
F632.7178685204044
tp248
sg35
F3525.585189367773
sbsg53
F-2.616059054376817
sg36
F1.3499999999999788
sg37
(isrc.util
Loc
p249
(dp250
g33
F630.7111698425189
sg30
(F3529.045414854092
F630.7111698425189
tp251
sg35
F3529.045414854092
sbsg41
(dp252
g44
I0
sg17
I0
sg59
I0
ssg72
F1000000000000000.0
sg26
Nsg73
I1
sg74
I0
sg75
(lp253
sg77
Nsg78
(lp254
g13
(g80
g15
Ntp255
Rp256
(dp257
g84
g244
sbasg86
I1
sg87
Nsg88
(lp258
sg90
g93
sg28
F4.0
sg25
F3.9999999999998086
sg94
g95
(I729
I119
I27
I27
tp259
Rp260
sg27
I4
sbI0
sg13
(g21
g15
Ntp261
Rp262
(dp263
g25
F3.9999999999999365
sg26
Nsg27
I4
sg28
F4.0
sg29
F1.499999999999979
sg30
(isrc.util
Loc
p264
(dp265
g33
F600.3204451352577
sg30
(F3541.407383639952
F600.3204451352577
tp266
sg35
F3541.407383639952
sbsg36
F1.3999999999999788
sg37
(isrc.util
Loc
p267
(dp268
g33
F599.3935398938056
sg30
(F3545.2985077286144
F599.3935398938056
tp269
sg35
F3545.2985077286144
sbsg41
(dp270
g44
I0
sg17
I0
sg59
I0
ssg77
Nsg78
(lp271
g13
(g80
g15
Ntp272
Rp273
(dp274
g84
g262
sg85
I0
sbasg112
F17.0
sg53
F-2.9077407312007266
sg74
I0
sg75
(lp275
sg94
g95
(I733
I112
I27
I27
tp276
Rp277
sg87
Nsg90
g93
sg73
I1
sg72
F1000000000000000.0
sg86
I1
sg88
(lp278
sbI0
sg13
(g21
g15
Ntp279
Rp280
(dp281
g25
F3.999999999999936
sg26
Nsg27
I4
sg28
F4.0
sg29
F1.499999999999979
sg30
(isrc.util
Loc
p282
(dp283
g33
F589.2104441308702
sg30
(F3503.4053548782404
F589.2104441308702
tp284
sg35
F3503.4053548782404
sbsg36
F1.3999999999999788
sg37
(isrc.util
Loc
p285
(dp286
g33
F588.3533352218273
sg30
(F3507.3124464203006
F588.3533352218273
tp287
sg35
F3507.3124464203006
sbsg41
(dp288
g44
I0
sg17
I0
sg59
I0
ssg77
Nsg78
(lp289
g13
(g80
g15
Ntp290
Rp291
(dp292
g84
g280
sg85
I0
sbasg112
F11.0
sg53
F-2.925640843754806
sg74
I0
sg75
(lp293
sg94
g95
(I724
I110
I27
I27
tp294
Rp295
sg87
Nsg90
g93
sg73
I1
sg72
F1000000000000000.0
sg86
I1
sg88
(lp296
sbI0
sg13
(g21
g15
Ntp297
Rp298
(dp299
g29
F1.499999999999979
sg30
(isrc.util
Loc
p300
(dp301
g33
F568.2218476152453
sg30
(F3493.911895796168
F568.2218476152453
tp302
sg35
F3493.911895796168
sbsg53
F-3.087880480117765
sg36
F1.3999999999999788
sg37
(isrc.util
Loc
p303
(dp304
g33
F568.0071022127833
sg30
(F3497.9061271880787
F568.0071022127833
tp305
sg35
F3497.9061271880787
sbsg41
(dp306
g44
I0
sg17
I0
sg59
I0
ssg72
F1000000000000000.0
sg26
Nsg73
I1
sg74
I0
sg75
(lp307
sg77
Nsg78
(lp308
g13
(g80
g15
Ntp309
Rp310
(dp311
g84
g298
sg85
I0
sbasg86
I1
sg87
Nsg88
(lp312
sg90
g93
sg28
F4.0
sg25
F4.000000000000226
sg94
g95
(I722
I105
I27
I27
tp313
Rp314
sg27
I4
sbI0
sg13
(g21
g15
Ntp315
Rp316
(dp317
g25
F3.999999999999805
sg26
Nsg27
I4
sg28
F4.0
sg29
F1.499999999999979
sg30
(isrc.util
Loc
p318
(dp319
g33
F581.9014343423279
sg30
(F3483.1737439486265
F581.9014343423279
tp320
sg35
F3483.1737439486265
sbsg36
F1.3999999999999788
sg37
(isrc.util
Loc
p321
(dp322
g33
F581.1873034603708
sg30
(F3487.109479849755
F581.1873034603708
tp323
sg35
F3487.109479849755
sbsg41
(dp324
g44
I0
sg17
I0
sg59
I0
ssg77
Nsg78
(lp325
g13
(g80
g15
Ntp326
Rp327
(dp328
g84
g316
sg85
I0
sbasg112
F11.0
sg53
F-2.962097642475538
sg74
I0
sg75
(lp329
sg94
g95
(I720
I108
I27
I27
tp330
Rp331
sg87
Nsg90
g93
sg73
I1
sg72
F1000000000000000.0
sg86
I1
sg88
(lp332
sbI0
sg13
(g21
g15
Ntp333
Rp334
(dp335
g25
F0.7929184382074386
sg26
Nsg27
I4
sg28
F0.7929184382074694
sg29
F0.1
sg30
(isrc.util
Loc
p336
(dp337
g33
F3683.2552068364953
sg30
(F1439.8136222220307
F3683.2552068364953
tp338
sg35
F1439.8136222220307
sbsg36
I0
sg37
(isrc.util
Loc
p339
(dp340
g33
F3683.3793779839584
sg30
(F1439.0304867447428
F3683.3793779839584
tp341
sg35
F1439.0304867447428
sbsg41
(dp342
g44
I0
sg17
I0
sg59
I0
ssg77
Nsg78
(lp343
g13
(g80
g15
Ntp344
Rp345
(dp346
g84
g334
sg85
I0
sbasg112
F17.0
sg53
F0.15724738655942416
sg74
I0
sg75
(lp347
sg94
g95
(I289
I762
I27
I27
tp348
Rp349
sg87
Nsg90
g93
sg73
I1
sg72
F1000000000000000.0
sg86
I1
sg88
(lp350
sbI0
sg13
(g21
g15
Ntp351
Rp352
(dp353
g29
F1.499999999999979
sg30
(isrc.util
Loc
p354
(dp355
g33
F763.884038289761
sg30
(F3531.758556795181
F763.884038289761
tp356
sg35
F3531.758556795181
sbsg53
F2.737346607475934
sg36
F1.3999999999999788
sg37
(isrc.util
Loc
p357
(dp358
g33
F765.4573410402531
sg30
(F3535.436153626713
F765.4573410402531
tp359
sg35
F3535.436153626713
sbsg41
(dp360
g44
I0
sg17
I0
sg59
I0
ssg72
F1000000000000000.0
sg26
Nsg73
I1
sg74
I0
sg75
(lp361
sg77
Nsg78
(lp362
g13
(g80
g15
Ntp363
Rp364
(dp365
g84
g352
sbasg86
I1
sg87
Nsg88
(lp366
sg90
g93
sg28
F4.0
sg25
F3.9999999999999702
sg94
g95
(I730
I147
I27
I27
tp367
Rp368
sg27
I4
sbI0
sg13
(g21
g15
Ntp369
Rp370
(dp371
g25
F3.9999999999998685
sg26
Nsg27
I4
sg28
F4.0
sg29
F1.4499999999999789
sg30
(isrc.util
Loc
p372
(dp373
g33
F611.8701448631524
sg30
(F3555.758065063441
F611.8701448631524
tp374
sg35
F3555.758065063441
sbsg36
F1.3499999999999788
sg37
(isrc.util
Loc
p375
(dp376
g33
F610.7137551369872
sg30
(F3559.587263778736
F610.7137551369872
tp377
sg35
F3559.587263778736
sbsg41
(dp378
g44
I0
sg17
I0
sg59
I0
ssg77
Nsg78
(lp379
g13
(g80
g15
Ntp380
Rp381
(dp382
g84
g370
sg85
I0
sbasg112
F16.0
sg53
F-2.8483087777385805
sg74
I0
sg75
(lp383
sg94
g95
(I736
I115
I27
I27
tp384
Rp385
sg87
Nsg90
g93
sg73
I1
sg72
F1000000000000000.0
sg86
I1
sg88
(lp386
sbI0
sg13
(g21
g15
Ntp387
Rp388
(dp389
g29
F1.499999999999979
sg30
(isrc.util
Loc
p390
(dp391
g33
F683.2255075678296
sg30
(F3425.998498721672
F683.2255075678296
tp392
sg35
F3425.998498721672
sbsg53
F3.0940754534325468
sg36
F1.3999999999999788
sg37
(isrc.util
Loc
p393
(dp394
g33
F683.4155048509725
sg30
(F3429.9939838026603
F683.4155048509725
tp395
sg35
F3429.9939838026603
sbsg41
(dp396
g44
I0
sg17
I0
sg59
I0
ssg72
F1000000000000000.0
sg26
Nsg73
I1
sg74
I0
sg75
(lp397
sg77
Nsg78
(lp398
g13
(g80
g15
Ntp399
Rp400
(dp401
g84
g388
sbasg86
I1
sg87
Nsg88
(lp402
sg90
g93
sg28
F4.0
sg25
F4.000000000000068
sg94
g95
(I708
I130
I27
I27
tp403
Rp404
sg27
I4
sbI0
sg13
(g21
g15
Ntp405
Rp406
(dp407
g29
F1.499999999999979
sg30
(isrc.util
Loc
p408
(dp409
g33
F612.4541878641638
sg30
(F3480.4256909828064
F612.4541878641638
tp410
sg35
F3480.4256909828064
sbsg53
F-2.6743189464083548
sg36
F1.3999999999999788
sg37
(isrc.util
Loc
p411
(dp412
g33
F610.6523721477955
sg30
(F3483.996889678517
F610.6523721477955
tp413
sg35
F3483.996889678517
sbsg41
(dp414
g44
I0
sg17
I0
sg59
I0
ssg72
F1000000000000000.0
sg26
Nsg73
I1
sg74
I0
sg75
(lp415
sg77
Nsg78
(lp416
g13
(g80
g15
Ntp417
Rp418
(dp419
g84
g406
sg85
I0
sbasg86
I1
sg87
Nsg88
(lp420
sg90
g93
sg28
F4.0
sg25
F3.999999999999788
sg94
g95
(I720
I115
I27
I27
tp421
Rp422
sg27
I4
sbI0
sg13
(g21
g15
Ntp423
Rp424
(dp425
g29
F1.4499999999999789
sg30
(isrc.util
Loc
p426
(dp427
g33
F646.383683441259
sg30
(F3452.7161456401795
F646.383683441259
tp428
sg35
F3452.7161456401795
sbsg53
F-2.8683362510975208
sg36
F1.3499999999999788
sg37
(isrc.util
Loc
p429
(dp430
g33
F645.3042096698141
sg30
(F3456.5677344521846
F645.3042096698141
tp431
sg35
F3456.5677344521846
sbsg41
(dp432
g44
I0
sg17
I0
sg59
I0
ssg72
F1000000000000000.0
sg26
Nsg73
I1
sg74
I0
sg75
(lp433
sg77
Nsg78
(lp434
g13
(g80
g15
Ntp435
Rp436
(dp437
g84
g424
sbasg86
I1
sg87
Nsg88
(lp438
sg90
g93
sg28
F4.0
sg25
F3.9999999999999902
sg94
g95
(I714
I122
I27
I27
tp439
Rp440
sg27
I4
sbI0
sg13
(g21
g15
Ntp441
Rp442
(dp443
g29
F1.499999999999979
sg30
(isrc.util
Loc
p444
(dp445
g33
F599.0613369889519
sg30
(F3476.2501071978713
F599.0613369889519
tp446
sg35
F3476.2501071978713
sbsg53
F-2.5845305457390526
sg36
F1.3999999999999788
sg37
(isrc.util
Loc
p447
(dp448
g33
F596.9465579290547
sg30
(F3479.6453552783246
F596.9465579290547
tp449
sg35
F3479.6453552783246
sbsg41
(dp450
g44
I0
sg17
I0
sg59
I0
ssg72
F1000000000000000.0
sg26
Nsg73
I1
sg74
I0
sg75
(lp451
sg77
Nsg78
(lp452
g13
(g80
g15
Ntp453
Rp454
(dp455
g84
g442
sg85
I0
sbasg86
I1
sg87
Nsg88
(lp456
sg90
g93
sg28
F4.0
sg25
F4.00000000000013
sg94
g95
(I719
I112
I27
I27
tp457
Rp458
sg27
I4
sbI0
sg13
(g21
g15
Ntp459
Rp460
(dp461
g29
F1.4499999999999789
sg30
(isrc.util
Loc
p462
(dp463
g33
F623.7129554872737
sg30
(F3503.2374146352436
F623.7129554872737
tp464
sg35
F3503.2374146352436
sbsg53
F-2.6557868341610296
sg36
F1.3499999999999788
sg37
(isrc.util
Loc
p465
(dp466
g33
F621.8452711021991
sg30
(F3506.774610563906
F621.8452711021991
tp467
sg35
F3506.774610563906
sbsg41
(dp468
g44
I0
sg17
I0
sg59
I0
ssg72
F1000000000000000.0
sg26
Nsg73
I1
sg74
I0
sg75
(lp469
sg77
Nsg78
(lp470
g13
(g80
g15
Ntp471
Rp472
(dp473
g84
g460
sbasg86
I1
sg87
Nsg88
(lp474
sg90
g93
sg28
F4.0
sg25
F3.9999999999998526
sg94
g95
(I724
I117
I27
I27
tp475
Rp476
sg27
I4
sbI0
sg13
(g21
g15
Ntp477
Rp478
(dp479
g25
F4.000000000000071
sg26
Nsg27
I4
sg28
F4.0
sg29
F1.4499999999999789
sg30
(isrc.util
Loc
p480
(dp481
g33
F599.3356509706747
sg30
(F3513.7758887573364
F599.3356509706747
tp482
sg35
F3513.7758887573364
sbsg36
F1.3499999999999788
sg37
(isrc.util
Loc
p483
(dp484
g33
F597.3643127224816
sg30
(F3517.256380893689
F597.3643127224816
tp485
sg35
F3517.256380893689
sbsg41
(dp486
g44
I0
sg17
I0
sg59
I0
ssg77
Nsg78
(lp487
g13
(g80
g15
Ntp488
Rp489
(dp490
g84
g478
sg85
I0
sbasg112
F19.0
sg53
F-2.626248238172848
sg74
I0
sg75
(lp491
sg94
g95
(I727
I112
I27
I27
tp492
Rp493
sg87
Nsg90
g93
sg73
I1
sg72
F1000000000000000.0
sg86
I1
sg88
(lp494
sbI0
sg13
(g21
g15
Ntp495
Rp496
(dp497
g29
F1.4499999999999789
sg30
(isrc.util
Loc
p498
(dp499
g33
F681.5183441838068
sg30
(F3577.763179031619
F681.5183441838068
tp500
sg35
F3577.763179031619
sbsg53
F3.104701060782798
sg36
F1.3499999999999788
sg37
(isrc.util
Loc
p501
(dp502
g33
F681.6658770845959
sg30
(F3581.760457361081
F681.6658770845959
tp503
sg35
F3581.760457361081
sbsg41
(dp504
g44
I0
sg17
I0
sg59
I0
ssg72
F1000000000000000.0
sg26
Nsg73
I1
sg74
I0
sg75
(lp505
sg77
Nsg78
(lp506
g13
(g80
g15
Ntp507
Rp508
(dp509
g84
g496
sbasg86
I1
sg87
Nsg88
(lp510
sg90
g93
sg28
F4.0
sg25
F4.000000000000226
sg94
g95
(I740
I129
I27
I27
tp511
Rp512
sg27
I4
sbI0
sg13
(g21
g15
Ntp513
Rp514
(dp515
g29
F1.4499999999999789
sg30
(isrc.util
Loc
p516
(dp517
g33
F589.2680824076033
sg30
(F3438.313811756779
F589.2680824076033
tp518
sg35
F3438.313811756779
sbsg53
F-2.501083475926312
sg36
F1.3499999999999788
sg37
(isrc.util
Loc
p519
(dp520
g33
F586.8776673149088
sg30
(F3441.5209780581454
F586.8776673149088
tp521
sg35
F3441.5209780581454
sbsg41
(dp522
g44
I0
sg17
I0
sg59
I0
ssg72
F1000000000000000.0
sg26
Nsg73
I1
sg74
I0
sg75
(lp523
sg77
Nsg78
(lp524
g13
(g80
g15
Ntp525
Rp526
(dp527
g84
g514
sbasg86
I1
sg87
Nsg88
(lp528
sg90
g93
sg28
F4.0
sg25
F4.000000000000102
sg94
g95
(I711
I110
I27
I27
tp529
Rp530
sg27
I4
sbI0
sg13
(g21
g15
Ntp531
Rp532
(dp533
g29
F0.1
sg30
(isrc.util
Loc
p534
(dp535
g33
F3790.3667912689266
sg30
(F2384.1168358066566
F3790.3667912689266
tp536
sg35
F2384.1168358066566
sbsg53
F-0.738895165085859
sg36
I0
sg37
(isrc.util
Loc
p537
(dp538
g33
F3789.835083467789
sg30
(F2383.533224923249
F3789.835083467789
tp539
sg35
F2383.533224923249
sbsg41
(dp540
g44
I0
sg17
I0
sg59
I0
ssg72
F1000000000000000.0
sg26
Nsg73
I1
sg74
I0
sg75
(lp541
sg77
Nsg78
(lp542
g13
(g80
g15
Ntp543
Rp544
(dp545
g84
g532
sbasg86
I1
sg87
Nsg88
(lp546
sg90
g93
sg28
F0.7895029126120398
sg25
F0.7895029126118628
sg94
g95
(I488
I785
I27
I27
tp547
Rp548
sg27
I4
sbI0
sg13
(g21
g15
Ntp549
Rp550
(dp551
g29
F1.049999999999863
sg30
(isrc.util
Loc
p552
(dp553
g33
F1043.326297406359
sg30
(F3656.4416730938137
F1043.326297406359
tp554
sg35
F3656.4416730938137
sbsg53
F2.677934291545719
sg36
F0.949999999999863
sg37
(isrc.util
Loc
p555
(dp556
g33
F1045.1151902595125
sg30
(F3660.019362621978
F1045.1151902595125
tp557
sg35
F3660.019362621978
sbsg41
(dp558
g44
I0
sg17
I0
sg59
I0
ssg72
F1000000000000000.0
sg26
Nsg73
I1
sg74
I0
sg75
(lp559
sg77
Nsg78
(lp560
g13
(g80
g15
Ntp561
Rp562
(dp563
g84
g550
sbasg86
I1
sg87
Nsg88
(lp564
sg90
g93
sg28
F4.0
sg25
F3.9999999999999933
sg94
g95
(I757
I206
I27
I27
tp565
Rp566
sg27
I4
sbI0
sg13
(g21
g15
Ntp567
Rp568
(dp569
g25
F0.788325796662692
sg26
Nsg27
I4
sg28
F0.7883257966626656
sg29
F0.1
sg30
(isrc.util
Loc
p570
(dp571
g33
F3104.5725042555605
sg30
(F1553.2730508078243
F3104.5725042555605
tp572
sg35
F1553.2730508078243
sbsg36
I0
sg37
(isrc.util
Loc
p573
(dp574
g33
F3103.926490544405
sg30
(F1552.821250136418
F3103.926490544405
tp575
sg35
F1552.821250136418
sbsg41
(dp576
g44
I0
sg17
I0
sg59
I0
ssg77
Nsg78
(lp577
g13
(g80
g15
Ntp578
Rp579
(dp580
g84
g568
sg85
I0
sbasg112
F16.0
sg53
F-0.9604953206823521
sg74
I0
sg75
(lp581
sg94
g95
(I313
I640
I27
I27
tp582
Rp583
sg87
Nsg90
g93
sg73
I1
sg72
F1000000000000000.0
sg86
I1
sg88
(lp584
sbI0
sg13
(g21
g15
Ntp585
Rp586
(dp587
g25
F3.9999999999998748
sg26
Nsg27
I4
sg28
F4.0
sg29
F1.4499999999999789
sg30
(isrc.util
Loc
p588
(dp589
g33
F646.1087255958066
sg30
(F3546.4093425918572
F646.1087255958066
tp590
sg35
F3546.4093425918572
sbsg36
F1.3499999999999788
sg37
(isrc.util
Loc
p591
(dp592
g33
F644.6435199089264
sg30
(F3550.1313275857997
F644.6435199089264
tp593
sg35
F3550.1313275857997
sbsg41
(dp594
g44
I0
sg17
I0
sg59
I0
ssg77
Nsg78
(lp595
g13
(g80
g15
Ntp596
Rp597
(dp598
g84
g586
sg85
I0
sbasg112
F17.0
sg53
F-2.7665616029998574
sg74
I0
sg75
(lp599
sg94
g95
(I734
I122
I27
I27
tp600
Rp601
sg87
Nsg90
g93
sg73
I1
sg72
F1000000000000000.0
sg86
I1
sg88
(lp602
sbI0
sg13
(g21
g15
Ntp603
Rp604
(dp605
g25
F3.9999999999999742
sg26
Nsg27
I4
sg28
F4.0
sg29
F1.4499999999999789
sg30
(isrc.util
Loc
p606
(dp607
g33
F574.2369961702374
sg30
(F3376.124449515697
F574.2369961702374
tp608
sg35
F3376.124449515697
sbsg36
F1.3499999999999788
sg37
(isrc.util
Loc
p609
(dp610
g33
F570.4261832378637
sg30
(F3377.340058332074
F570.4261832378637
tp611
sg35
F3377.340058332074
sbsg41
(dp612
g44
I0
sg17
I0
sg59
I0
ssg77
Nsg78
(lp613
g13
(g80
g15
Ntp614
Rp615
(dp616
g84
g604
sg85
I0
sbasg112
F19.0
sg53
F-1.8795822481951407
sg74
I0
sg75
(lp617
sg94
g95
(I698
I107
I27
I27
tp618
Rp619
sg87
Nsg90
g93
sg73
I1
sg72
F1000000000000000.0
sg86
I1
sg88
(lp620
sbI0
sg13
(g21
g15
Ntp621
Rp622
(dp623
g25
F3.9999999999998224
sg26
Nsg27
I4
sg28
F4.0
sg29
F1.499999999999979
sg30
(isrc.util
Loc
p624
(dp625
g33
F589.8738103308233
sg30
(F3524.9418927774423
F589.8738103308233
tp626
sg35
F3524.9418927774423
sbsg36
F1.3999999999999788
sg37
(isrc.util
Loc
p627
(dp628
g33
F589.7271419783405
sg30
(F3528.9392029223245
F589.7271419783405
tp629
sg35
F3528.9392029223245
sbsg41
(dp630
g44
I0
sg17
I0
sg59
I0
ssg77
Nsg78
(lp631
g13
(g80
g15
Ntp632
Rp633
(dp634
g84
g622
sg85
I0
sbasg112
F17.0
sg53
F-3.104917344161423
sg74
I0
sg75
(lp635
sg94
g95
(I729
I110
I27
I27
tp636
Rp637
sg87
Nsg90
g93
sg73
I1
sg72
F1000000000000000.0
sg86
I1
sg88
(lp638
sbI0
sg48
I0
sg13
(g21
g15
Ntp639
Rp640
(dp641
g29
F1.4499999999999789
sg30
(isrc.util
Loc
p642
(dp643
g33
F661.2487377690675
sg30
(F3416.9756636689713
F661.2487377690675
tp644
sg35
F3416.9756636689713
sbsg53
F3.0010458916959024
sg36
F1.3499999999999788
sg37
(isrc.util
Loc
p645
(dp646
g33
F661.8090757935979
sg30
(F3420.936221874359
F661.8090757935979
tp647
sg35
F3420.936221874359
sbsg41
(dp648
g44
I0
sg17
I0
sg59
I0
ssg72
F1000000000000000.0
sg26
Nsg73
I1
sg74
I0
sg75
(lp649
sg77
Nsg78
(lp650
g13
(g80
g15
Ntp651
Rp652
(dp653
g84
g640
sbasg86
I1
sg87
Nsg88
(lp654
sg90
g93
sg28
F4.0
sg25
F3.999999999999883
sg94
g95
(I706
I125
I27
I27
tp655
Rp656
sg27
I4
sbI0
sg13
(g21
g15
Ntp657
Rp658
(dp659
g25
F3.9999999999998064
sg26
Nsg27
I4
sg28
F4.0
sg29
F1.4499999999999789
sg30
(isrc.util
Loc
p660
(dp661
g33
F626.5429835851872
sg30
(F3544.9838485142413
F626.5429835851872
tp662
sg35
F3544.9838485142413
sbsg36
F1.3499999999999788
sg37
(isrc.util
Loc
p663
(dp664
g33
F625.2840731274487
sg30
(F3548.7805766397983
F625.2840731274487
tp665
sg35
F3548.7805766397983
sbsg41
(dp666
g44
I0
sg17
I0
sg59
I0
ssg77
Nsg78
(lp667
g13
(g80
g15
Ntp668
Rp669
(dp670
g84
g658
sg85
I0
sbasg112
F17.0
sg53
F-2.8214229819317795
sg74
I0
sg75
(lp671
sg94
g95
(I733
I118
I27
I27
tp672
Rp673
sg87
Nsg90
g93
sg73
I1
sg72
F1000000000000000.0
sg86
I1
sg88
(lp674
sbI0
sg13
(g21
g15
Ntp675
Rp676
(dp677
g29
F0.1
sg30
(isrc.util
Loc
p678
(dp679
g33
F3773.608660240691
sg30
(F1165.222616400687
F3773.608660240691
tp680
sg35
F1165.222616400687
sbsg53
F0.8164113814122669
sg36
I0
sg37
(isrc.util
Loc
p681
(dp682
g33
F3774.1838929270166
sg30
(F1164.6820008579555
F3774.1838929270166
tp683
sg35
F1164.6820008579555
sbsg41
(dp684
g44
I0
sg17
I0
sg59
I0
ssg72
F1000000000000000.0
sg26
Nsg73
I1
sg74
I0
sg75
(lp685
sg77
Nsg78
(lp686
g13
(g80
g15
Ntp687
Rp688
(dp689
g84
g676
sbasg86
I1
sg87
Nsg88
(lp690
sg90
g93
sg28
F0.7894034510061215
sg25
F0.7894034510061755
sg94
g95
(I231
I781
I27
I27
tp691
Rp692
sg27
I4
sbI0
sg13
(g21
g15
Ntp693
Rp694
(dp695
g29
F1.0499999999998542
sg30
(isrc.util
Loc
p696
(dp697
g33
F1002.22753761813
sg30
(F3601.423133627772
F1002.22753761813
tp698
sg35
F3601.423133627772
sbsg53
F2.637836964962932
sg36
F0.9499999999998541
sg37
(isrc.util
Loc
p699
(dp700
g33
F1004.1584099241735
sg30
(F3604.9262368431732
F1004.1584099241735
tp701
sg35
F3604.9262368431732
sbsg41
(dp702
g44
I0
sg17
I0
sg59
I0
ssg72
F1000000000000000.0
sg26
Nsg73
I1
sg74
I0
sg75
(lp703
sg77
Nsg78
(lp704
g13
(g80
g15
Ntp705
Rp706
(dp707
g84
g694
sbasg86
I1
sg87
Nsg88
(lp708
sg90
g93
sg28
F4.0
sg25
F3.999999999999912
sg94
g95
(I745
I197
I27
I27
tp709
Rp710
sg27
I4
sbI0
sg13
(g21
g15
Ntp711
Rp712
(dp713
g25
F0.7932087969391918
sg26
Nsg27
I4
sg28
F0.7932087969391846
sg29
F0.1
sg30
(isrc.util
Loc
p714
(dp715
g33
F398.60609645777976
sg30
(F342.40367058307356
F398.60609645777976
tp716
sg35
F342.40367058307356
sbsg36
I0
sg37
(isrc.util
Loc
p717
(dp718
g33
F399.37897905745035
sg30
(F342.2252534239544
F399.37897905745035
tp719
sg35
F342.2252534239544
sbsg41
(dp720
g44
I0
sg17
I0
sg59
I0
ssg77
Nsg78
(lp721
g13
(g80
g15
Ntp722
Rp723
(dp724
g84
g712
sg85
I0
sbasg112
F18.0
sg53
F1.3439242207176025
sg74
I0
sg75
(lp725
sg94
g95
(I58
I70
I27
I27
tp726
Rp727
sg87
Nsg90
g93
sg73
I1
sg72
F1000000000000000.0
sg86
I1
sg88
(lp728
sbI0
sg13
(g21
g15
Ntp729
Rp730
(dp731
g25
F3.999999999999951
sg26
Nsg27
I4
sg28
F4.0
sg29
F1.499999999999979
sg30
(isrc.util
Loc
p732
(dp733
g33
F619.7417169866841
sg30
(F3492.444061483655
F619.7417169866841
tp734
sg35
F3492.444061483655
sbsg36
F1.3999999999999788
sg37
(isrc.util
Loc
p735
(dp736
g33
F617.9439893045165
sg30
(F3496.017319825948
F617.9439893045165
tp737
sg35
F3496.017319825948
sbsg41
(dp738
g44
I0
sg17
I0
sg59
I0
ssg77
Nsg78
(lp739
g13
(g80
g15
Ntp740
Rp741
(dp742
g84
g730
sg85
I0
sbasg112
F16.0
sg53
F-2.6754633395324
sg74
I0
sg75
(lp743
sg94
g95
(I722
I116
I27
I27
tp744
Rp745
sg87
Nsg90
g93
sg73
I1
sg72
F1000000000000000.0
sg86
I1
sg88
(lp746
sbI0
sg13
(g21
g15
Ntp747
Rp748
(dp749
g29
F1.499999999999979
sg30
(isrc.util
Loc
p750
(dp751
g33
F573.4495943746346
sg30
(F3461.723058224938
F573.4495943746346
tp752
sg35
F3461.723058224938
sbsg53
F-2.7693872300721853
sg36
F1.3999999999999788
sg37
(isrc.util
Loc
p753
(dp754
g33
F571.9949114645417
sg30
(F3465.4491684797595
F571.9949114645417
tp755
sg35
F3465.4491684797595
sbsg41
(dp756
g44
I0
sg17
I0
sg59
I0
ssg72
F1000000000000000.0
sg26
Nsg73
I1
sg74
I0
sg75
(lp757
sg77
Nsg78
(lp758
g13
(g80
g15
Ntp759
Rp760
(dp761
g84
g748
sg85
I0
sbasg86
I1
sg87
Nsg88
(lp762
sg90
g93
sg28
F4.0
sg25
F4.000000000000157
sg94
g95
(I716
I106
I27
I27
tp763
Rp764
sg27
I4
sbI0
ssS'lostsprites'
p765
(lp766
sbI0
ssg72
F1000000000000000.0
sg26
Nsg73
I1
sg74
I0
sg75
(lp767
sg77
Nsg78
(lp768
g13
(g80
g15
Ntp769
Rp770
(dp771
g84
g48
sbasg86
I1
sg87
Nsg88
(lp772
sg90
g93
sg28
F4.0
sg25
F4.000000000000194
sg94
g95
(I728
I154
I27
I27
tp773
Rp774
sg27
I4
sbI0
sg190
I0
sg23
I0
sg730
I0
sg262
I0
sg280
I0
sg298
I0
sg316
I0
sg352
I0
sg388
I0
sg406
I0
sg442
I0
sg118
I0
sg13
(csrc.actor
Corpse
p775
g15
Ntp776
Rp777
(dp778
g29
F0.1
sg30
(isrc.util
Loc
p779
(dp780
g33
F257.9400267682852
sg30
(F3136.1303196585095
F257.9400267682852
tp781
sg35
F3136.1303196585095
sbsg53
F0.0
sg36
I0
sg37
(isrc.util
Loc
p782
(dp783
g33
F257.9400267682852
sg30
(F3136.1303196585095
F257.9400267682852
tp784
sg35
F3136.1303196585095
sbsg41
(dp785
g44
I0
sg17
I0
ssg72
F1000000000000000.0
sg26
Nsg73
I1
sg74
I0
sg75
(lp786
g13
(csrc.actor
Incubate
p787
g15
Ntp788
Rp789
(dp790
g84
g777
sg85
I108
sbasg77
Nsg78
(lp791
sg86
I1
sg25
F0.0
sg88
(lp792
sg90
g93
sg28
F0.0
sg94
g95
(I647
I40
I27
I27
tp793
Rp794
sg27
I4
sbI0
sg748
I0
sg568
I0
sg136
I0
sg622
I0
sg712
I0
sg13
(g775
g15
Ntp795
Rp796
(dp797
g29
F0.1
sg30
(isrc.util
Loc
p798
(dp799
g33
F256.25282384072426
sg30
(F3014.394559142062
F256.25282384072426
tp800
sg35
F3014.394559142062
sbsg53
F0.0
sg36
I0
sg37
(isrc.util
Loc
p801
(dp802
g33
F256.25282384072426
sg30
(F3014.394559142062
F256.25282384072426
tp803
sg35
F3014.394559142062
sbsg41
(dp804
g44
I0
sg17
I0
ssg72
F1000000000000000.0
sg26
Nsg73
I1
sg74
I0
sg75
(lp805
g13
(g787
g15
Ntp806
Rp807
(dp808
g84
g796
sg85
I71
sbasg77
Nsg78
(lp809
sg86
I1
sg25
F0.0
sg88
(lp810
sg90
g93
sg28
F0.0
sg94
g95
(I621
I40
I27
I27
tp811
Rp812
sg27
I4
sbI0
sg63
I0
sg99
I0
sg658
I0
sg154
I0
sg172
I0
sg208
I0
sg694
I0
sg244
I0
sg334
I0
sg370
I0
sg550
I0
sg424
I0
sg226
I0
sg460
I0
sg478
I0
sg496
I0
sg514
I0
sg586
I0
sg604
I0
sg640
I0
sg532
I0
sg676
I0
ssg765
(lp813
sbI0
sg17
I0
sg59
I0
ssg77
Nsg78
(lp814
g13
(g80
g15
Ntp815
Rp816
(dp817
g84
g23
sg85
I0
sbasg112
F19.0
sg53
F-0.14540337052364402
sg74
I0
sg75
(lp818
sg94
g95
(I283
I694
I27
I27
tp819
Rp820
sg87
Nsg90
g93
sg73
I1
sg72
F1000000000000000.0
sg86
I1
sg88
(lp821
sbg95
(I283
I694
I27
I27
tp822
Rp823
sg190
g95
(I716
I111
I27
I27
tp824
Rp825
sg226
g95
(I727
I116
I27
I27
tp826
Rp827
sg262
g95
(I733
I112
I27
I27
tp828
Rp829
sg280
g95
(I724
I110
I27
I27
tp830
Rp831
sg586
g95
(I734
I122
I27
I27
tp832
Rp833
sg316
g95
(I720
I108
I27
I27
tp834
Rp835
sg604
g95
(I698
I107
I27
I27
tp836
Rp837
sg388
g95
(I708
I130
I27
I27
tp838
Rp839
sg406
g95
(I720
I115
I27
I27
tp840
Rp841
sg442
g95
(I719
I112
I27
I27
tp842
Rp843
sg118
g95
(I426
I680
I27
I27
tp844
Rp845
sg777
g95
(I647
I40
I27
I27
tp846
Rp847
sg748
g95
(I716
I106
I27
I27
tp848
Rp849
sg532
g95
(I488
I785
I27
I27
tp850
Rp851
sg568
g95
(I313
I640
I27
I27
tp852
Rp853
sg622
g95
(I729
I110
I27
I27
tp854
Rp855
sg99
g95
(I712
I106
I27
I27
tp856
Rp857
sg712
g95
(I58
I70
I27
I27
tp858
Rp859
sg730
g95
(I722
I116
I27
I27
tp860
Rp861
sg796
g95
(I621
I40
I27
I27
tp862
Rp863
sg172
g95
(I722
I110
I27
I27
tp864
Rp865
sg48
g95
(I728
I154
I27
I27
tp866
Rp867
sg136
g95
(I718
I105
I27
I27
tp868
Rp869
sg154
g95
(I716
I116
I27
I27
tp870
Rp871
sg63
g95
(I719
I122
I27
I27
tp872
Rp873
sg208
g95
(I536
I727
I27
I27
tp874
Rp875
sg694
g95
(I745
I197
I27
I27
tp876
Rp877
sg244
g95
(I729
I119
I27
I27
tp878
Rp879
sg334
g95
(I289
I762
I27
I27
tp880
Rp881
sg370
g95
(I736
I115
I27
I27
tp882
Rp883
sg658
g95
(I733
I118
I27
I27
tp884
Rp885
sg424
g95
(I714
I122
I27
I27
tp886
Rp887
sg460
g95
(I724
I117
I27
I27
tp888
Rp889
sg478
g95
(I727
I112
I27
I27
tp890
Rp891
sg496
g95
(I740
I129
I27
I27
tp892
Rp893
sg514
g95
(I711
I110
I27
I27
tp894
Rp895
sg550
g95
(I757
I206
I27
I27
tp896
Rp897
sg298
g95
(I722
I105
I27
I27
tp898
Rp899
sg352
g95
(I730
I147
I27
I27
tp900
Rp901
sg640
g95
(I706
I125
I27
I27
tp902
Rp903
sg676
g95
(I231
I781
I27
I27
tp904
Rp905
ssg765
(lp906
sbsS'tileNames'
p907
(lp908
S'tile0.png'
p909
aS'tile1.png'
p910
asS'fill'
p911
I0
sS'mobSize'
p912
(isrc.util
Loc
p913
(dp914
g33
I27
sg30
(I27
I27
tp915
sg35
I27
sbsS'scale'
p916
F0.2109375
sS'friendlies'
p917
g13
(g14
g15
Ntp918
Rp919
(dp920
g19
(dp921
sg765
(lp922
sbsS'filename'
p923
S'map.p'
p924
sS'width'
p925
I20
sS'enemies'
p926
g59
sS'neutrals'
p927
g13
(g14
g15
Ntp928
Rp929
(dp930
g19
(dp931
sg765
(lp932
sbsS'viewpoint'
p933
(F2560.0
F2560.0
tp934
sS'grid'
p935
(lp936
I1
aI1
aI1
aI1
aI1
aI1
aI1
aI1
aI1
aI1
aI1
aI1
aI1
aI1
aI1
aI1
aI1
aI1
aI1
aI1
aI1
aI0
aI0
aI0
aI0
aI0
aI0
aI0
aI0
aI0
aI0
aI0
aI0
aI0
aI0
aI0
aI0
aI0
aI0
aI1
aI1
aI0
aI0
aI0
aI0
aI0
aI0
aI0
aI0
aI0
aI0
aI0
aI0
aI0
aI0
aI0
aI0
aI0
aI0
aI1
aI1
aI0
aI0
aI0
aI0
aI0
aI0
aI0
aI0
aI0
aI0
aI0
aI0
aI0
aI0
aI0
aI0
aI0
aI0
aI1
aI1
aI0
aI0
aI0
aI0
aI0
aI0
aI0
aI0
aI0
aI0
aI0
aI0
aI0
aI0
aI0
aI0
aI0
aI0
aI1
aI1
aI0
aI0
aI0
aI0
aI0
aI0
aI0
aI0
aI0
aI0
aI0
aI0
aI0
aI0
aI0
aI0
aI0
aI0
aI1
aI1
aI0
aI0
aI0
aI0
aI0
aI0
aI0
aI0
aI0
aI0
aI0
aI0
aI0
aI0
aI0
aI0
aI0
aI0
aI1
aI1
aI0
aI0
aI0
aI0
aI0
aI0
aI0
aI0
aI0
aI0
aI0
aI0
aI0
aI0
aI0
aI0
aI0
aI0
aI1
aI1
aI0
aI0
aI0
aI0
aI0
aI0
aI0
aI0
aI0
aI0
aI0
aI0
aI0
aI0
aI0
aI0
aI0
aI0
aI1
aI1
aI0
aI0
aI0
aI0
aI0
aI0
aI0
aI0
aI0
aI0
aI0
aI0
aI0
aI0
aI0
aI0
aI0
aI0
aI1
aI1
aI0
aI0
aI0
aI0
aI0
aI0
aI0
aI0
aI0
aI0
aI0
aI0
aI0
aI0
aI0
aI0
aI0
aI0
aI1
aI1
aI0
aI0
aI0
aI0
aI0
aI0
aI0
aI0
aI0
aI0
aI0
aI0
aI0
aI0
aI0
aI0
aI0
aI0
aI1
aI1
aI0
aI0
aI0
aI0
aI0
aI0
aI0
aI0
aI0
aI0
aI0
aI0
aI0
aI0
aI0
aI0
aI0
aI0
aI1
aI1
aI0
aI0
aI0
aI0
aI0
aI0
aI0
aI0
aI0
aI0
aI0
aI0
aI0
aI0
aI0
aI0
aI0
aI0
aI1
aI1
aI0
aI0
aI0
aI0
aI0
aI0
aI0
aI0
aI0
aI0
aI0
aI0
aI0
aI0
aI0
aI0
aI0
aI0
aI1
aI1
aI0
aI0
aI0
aI0
aI0
aI0
aI0
aI0
aI0
aI0
aI0
aI0
aI0
aI0
aI0
aI0
aI0
aI0
aI1
aI1
aI0
aI0
aI0
aI0
aI0
aI0
aI0
aI0
aI0
aI0
aI0
aI0
aI0
aI0
aI0
aI0
aI0
aI0
aI1
aI1
aI0
aI0
aI0
aI0
aI0
aI0
aI0
aI0
aI0
aI0
aI0
aI0
aI0
aI0
aI0
aI0
aI0
aI0
aI1
aI1
aI0
aI0
aI0
aI0
aI0
aI0
aI0
aI0
aI0
aI0
aI0
aI0
aI0
aI0
aI0
aI0
aI0
aI0
aI1
aI1
aI1
aI1
aI1
aI1
aI1
aI1
aI1
aI1
aI1
aI1
aI1
aI1
aI1
aI1
aI1
aI1
aI1
aI1
aI1
asS'actorSize'
p937
I27
sS'tileSize'
p938
I54
sS'mobOffset'
p939
(isrc.util
Loc
p940
(dp941
g33
F-13.5
sg30
(F-13.5
F-13.5
tp942
sg35
F-13.5
sbsS'maxScale'
p943
F2.0
sS'mobs'
p944
g44
sS'minScale'
p945
F0.05
s.