(dp0
S'size'
p1
(I20
I20
tp2
sS'actorNames'
p3
(lp4
S'blip.png'
p5
aS'zombie.png'
p6
aS'soldier.png'
p7
aS'civilian.png'
p8
aS'corpse.png'
p9
asS'wall'
p10
I1
sS'height'
p11
I20
sS'visible'
p12
ccopy_reg
_reconstructor
p13
(cpygame.sprite
Group
p14
c__builtin__
object
p15
Ntp16
Rp17
(dp18
S'spritedict'
p19
(dp20
g13
(csrc.actor
Zombie
p21
g15
Ntp22
Rp23
(dp24
S'distanceMoved'
p25
F4.000000000000141
sS'image'
p26
NsS'blendmode'
p27
I4
sS'speed'
p28
F4.0
sS'maxRiled'
p29
F6.699999999999961
sS'loc'
p30
(isrc.util
Loc
p31
(dp32
S'y'
p33
F4498.265921318897
sg30
(F2398.5385743834154
F4498.265921318897
tp34
sS'x'
p35
F2398.5385743834154
sbsS'riled'
p36
F6.5999999999999615
sS'lastLoc'
p37
(isrc.util
Loc
p38
(dp39
g33
F4502.265576322582
sg30
(F2398.5911086722135
F4502.265576322582
tp40
sg35
F2398.5911086722135
sbsS'_Sprite__g'
p41
(dp42
g13
(g14
g15
Ntp43
Rp44
(dp45
g19
(dp46
g13
(g21
g15
Ntp47
Rp48
(dp49
g25
F3.9999999999999725
sg26
Nsg27
I4
sg28
F4.0
sg29
F6.699999999999961
sg30
(isrc.util
Loc
p50
(dp51
g33
F4574.591538521318
sg30
(F2511.3307527117286
F4574.591538521318
tp52
sg35
F2511.3307527117286
sbsg36
F6.5999999999999615
sg37
(isrc.util
Loc
p53
(dp54
g33
F4578.0438899826395
sg30
(F2513.3509678951964
F4578.0438899826395
tp55
sg35
F2513.3509678951964
sbsg41
(dp56
g44
I0
sg17
I0
sg13
(g14
g15
Ntp57
Rp58
(dp59
g19
(dp60
g23
I0
sg13
(g21
g15
Ntp61
Rp62
(dp63
g29
F6.699999999999961
sg30
(isrc.util
Loc
p64
(dp65
g33
F4485.517984827018
sg30
(F2395.8782829687207
F4485.517984827018
tp66
sg35
F2395.8782829687207
sbsS'direction'
p67
F1.6136510110808264
sg36
F6.5999999999999615
sg37
(isrc.util
Loc
p68
(dp69
g33
F4489.51431234119
sg30
(F2396.049649241579
F4489.51431234119
tp70
sg35
F2396.049649241579
sbsg41
(dp71
g44
I0
sg17
I0
sg58
I0
ssS'targetDistance'
p72
F1000000000000000.0
sg26
NsS'_visible'
p73
I1
sS'_layer'
p74
I0
sS'effects'
p75
(lp76
sS'source_rect'
p77
NsS'weapons'
p78
(lp79
g13
(csrc.actor
Bite
p80
g15
Ntp81
Rp82
(dp83
S'owner'
p84
g62
sbasS'dirty'
p85
I1
sS'target'
p86
NsS'highlight'
p87
(lp88
sS'level'
p89
g13
(csrc.tilemap
Map
p90
g15
Ntp91
Rp92
g0
bsg28
F4.0
sg25
F3.999999999999948
sS'rect'
p93
cpygame
__rect_constructor
p94
(I491
I932
I27
I27
tp95
Rp96
sg27
I4
sbI0
sg13
(g21
g15
Ntp97
Rp98
(dp99
g29
F0.1
sg30
(isrc.util
Loc
p100
(dp101
g33
F3928.8024081084677
sg30
(F4413.9629457712535
F3928.8024081084677
tp102
sg35
F4413.9629457712535
sbsg67
F1.157448204534792
sg36
I0
sg37
(isrc.util
Loc
p103
(dp104
g33
F3929.0061574354795
sg30
(F4413.873577726889
F3929.0061574354795
tp105
sg35
F4413.873577726889
sbsg41
(dp106
g44
I0
sg17
I0
sg58
I0
ssg72
F1000000000000000.0
sg26
Nsg73
I1
sg74
I0
sg75
(lp107
sg77
Nsg78
(lp108
g13
(g80
g15
Ntp109
Rp110
(dp111
g84
g98
sbasg85
I1
sg86
Nsg87
(lp112
sg89
g92
sg28
F0.22248693357394428
sg25
F0.2224869335741616
sg93
g94
(I917
I814
I27
I27
tp113
Rp114
sg27
I4
sbI0
sg13
(g21
g15
Ntp115
Rp116
(dp117
g29
F6.699999999999961
sg30
(isrc.util
Loc
p118
(dp119
g33
F4463.556890049374
sg30
(F2394.998965777509
F4463.556890049374
tp120
sg35
F2394.998965777509
sbsg67
F1.5928939893792444
sg36
F6.5999999999999615
sg37
(isrc.util
Loc
p121
(dp122
g33
F4467.55591347573
sg30
(F2395.0873492343976
F4467.55591347573
tp123
sg35
F2395.0873492343976
sbsg41
(dp124
g44
I0
sg17
I0
sg58
I0
ssg72
F1000000000000000.0
sg26
Nsg73
I1
sg74
I0
sg75
(lp125
sg77
Nsg78
(lp126
g13
(g80
g15
Ntp127
Rp128
(dp129
g84
g116
sbasg85
I1
sg86
Nsg87
(lp130
sg89
g92
sg28
F4.0
sg25
F4.000000000000328
sg93
g94
(I491
I927
I27
I27
tp131
Rp132
sg27
I4
sbI0
sg13
(g21
g15
Ntp133
Rp134
(dp135
g25
F3.99999999999968
sg26
Nsg27
I4
sg28
F4.0
sg29
F6.699999999999961
sg30
(isrc.util
Loc
p136
(dp137
g33
F4478.425393514212
sg30
(F2420.909497103566
F4478.425393514212
tp138
sg35
F2420.909497103566
sbsg36
F6.5999999999999615
sg37
(isrc.util
Loc
p139
(dp140
g33
F4482.387562954649
sg30
(F2421.4583261527846
F4482.387562954649
tp141
sg35
F2421.4583261527846
sbsg41
(dp142
g44
I0
sg17
I0
sg58
I0
ssg77
Nsg78
(lp143
g13
(g80
g15
Ntp144
Rp145
(dp146
g84
g134
sS'countdown'
p147
I0
sbasS'health'
p148
F16.0
sg67
F1.7084377844221603
sg74
I0
sg75
(lp149
sg93
g94
(I496
I930
I27
I27
tp150
Rp151
sg86
Nsg89
g92
sg73
I1
sg72
F1000000000000000.0
sg85
I1
sg87
(lp152
sbI0
sg13
(g21
g15
Ntp153
Rp154
(dp155
g29
F6.649999999999961
sg30
(isrc.util
Loc
p156
(dp157
g33
F4494.960284957113
sg30
(F2388.093538881906
F4494.960284957113
tp158
sg35
F2388.093538881906
sbsg67
F1.5739929495532439
sg36
F6.549999999999962
sg37
(isrc.util
Loc
p159
(dp160
g33
F4498.960264520336
sg30
(F2388.1063253511634
F4498.960264520336
tp161
sg35
F2388.1063253511634
sbsg41
(dp162
g44
I0
sg17
I0
sg58
I0
ssg72
F1000000000000000.0
sg26
Nsg73
I1
sg74
I0
sg75
(lp163
sg77
Nsg78
(lp164
g13
(g80
g15
Ntp165
Rp166
(dp167
g84
g154
sbasg85
I1
sg86
Nsg87
(lp168
sg89
g92
sg28
F4.0
sg25
F3.999999999999667
sg93
g94
(I489
I934
I27
I27
tp169
Rp170
sg27
I4
sbI0
sg13
(g21
g15
Ntp171
Rp172
(dp173
g25
F4.00000000000044
sg26
Nsg27
I4
sg28
F4.0
sg29
F6.699999999999961
sg30
(isrc.util
Loc
p174
(dp175
g33
F4495.989991531647
sg30
(F2411.2718420592223
F4495.989991531647
tp176
sg35
F2411.2718420592223
sbsg36
F6.5999999999999615
sg37
(isrc.util
Loc
p177
(dp178
g33
F4499.989273642407
sg30
(F2411.347621994296
F4499.989273642407
tp179
sg35
F2411.347621994296
sbsg41
(dp180
g44
I0
sg17
I0
sg58
I0
ssg77
Nsg78
(lp181
g13
(g80
g15
Ntp182
Rp183
(dp184
g84
g172
sg147
I0
sbasg148
F19.0
sg67
F1.5897424440113093
sg74
I0
sg75
(lp185
sg93
g94
(I494
I934
I27
I27
tp186
Rp187
sg86
Nsg89
g92
sg73
I1
sg72
F1000000000000000.0
sg85
I1
sg87
(lp188
sbI0
sg13
(g21
g15
Ntp189
Rp190
(dp191
g29
F6.699999999999961
sg30
(isrc.util
Loc
p192
(dp193
g33
F4571.246165428414
sg30
(F2486.603585750893
F4571.246165428414
tp194
sg35
F2486.603585750893
sbsg67
F2.079263660344092
sg36
F6.5999999999999615
sg37
(isrc.util
Loc
p195
(dp196
g33
F4574.74013220911
sg30
(F2488.5509419420905
F4574.74013220911
tp197
sg35
F2488.5509419420905
sbsg41
(dp198
g44
I0
sg17
I0
sg58
I0
ssg72
F1000000000000000.0
sg26
Nsg73
I1
sg74
I0
sg75
(lp199
sg77
Nsg78
(lp200
g13
(g80
g15
Ntp201
Rp202
(dp203
g84
g190
sg147
I0
sbasg85
I1
sg86
Nsg87
(lp204
sg89
g92
sg28
F4.0
sg25
F3.999999999999935
sg93
g94
(I510
I950
I27
I27
tp205
Rp206
sg27
I4
sbI0
sg13
(g21
g15
Ntp207
Rp208
(dp209
g25
F4.000000000000044
sg26
Nsg27
I4
sg28
F4.0
sg29
F6.649999999999935
sg30
(isrc.util
Loc
p210
(dp211
g33
F3805.744172352266
sg30
(F2532.0170487582936
F3805.744172352266
tp212
sg35
F2532.0170487582936
sbsg36
F6.549999999999935
sg37
(isrc.util
Loc
p213
(dp214
g33
F3805.266816028379
sg30
(F2535.988462982477
F3805.266816028379
tp215
sg35
F2535.988462982477
sbsg41
(dp216
g44
I0
sg17
I0
sg58
I0
ssg77
Nsg78
(lp217
g13
(g80
g15
Ntp218
Rp219
(dp220
g84
g208
sg147
I0
sbasg148
F14.0
sg67
F-3.0219684741238693
sg74
I0
sg75
(lp221
sg93
g94
(I520
I788
I27
I27
tp222
Rp223
sg86
Nsg89
g92
sg73
I1
sg72
F1000000000000000.0
sg85
I1
sg87
(lp224
sbI0
sg13
(g21
g15
Ntp225
Rp226
(dp227
g25
F3.9999999999998677
sg26
Nsg27
I4
sg28
F4.0
sg29
F6.699999999999961
sg30
(isrc.util
Loc
p228
(dp229
g33
F4492.444909359252
sg30
(F2419.591889859317
F4492.444909359252
tp230
sg35
F2419.591889859317
sbsg36
F6.5999999999999615
sg37
(isrc.util
Loc
p231
(dp232
g33
F4496.444636475985
sg30
(F2419.6386123557077
F4496.444636475985
tp233
sg35
F2419.6386123557077
sbsg41
(dp234
g44
I0
sg17
I0
sg58
I0
ssg77
Nsg78
(lp235
g13
(g80
g15
Ntp236
Rp237
(dp238
g84
g226
sg147
I0
sbasg148
F18.0
sg67
F1.5824772165204675
sg74
I0
sg75
(lp239
sg93
g94
(I496
I933
I27
I27
tp240
Rp241
sg86
Nsg89
g92
sg73
I1
sg72
F1000000000000000.0
sg85
I1
sg87
(lp242
sbI0
sg13
(g21
g15
Ntp243
Rp244
(dp245
g29
F6.599999999999963
sg30
(isrc.util
Loc
p246
(dp247
g33
F4526.222714590553
sg30
(F2388.4815102192533
F4526.222714590553
tp248
sg35
F2388.4815102192533
sbsg67
F1.5301913024803924
sg36
F6.499999999999964
sg37
(isrc.util
Loc
p249
(dp250
g33
F4530.219417507601
sg30
(F2388.3191347504926
F4530.219417507601
tp251
sg35
F2388.3191347504926
sbsg41
(dp252
g44
I0
sg17
I0
sg58
I0
ssg72
F1000000000000000.0
sg26
Nsg73
I1
sg74
I0
sg75
(lp253
sg77
Nsg78
(lp254
g13
(g80
g15
Ntp255
Rp256
(dp257
g84
g244
sbasg85
I1
sg86
Nsg87
(lp258
sg89
g92
sg28
F4.0
sg25
F3.9999999999998304
sg93
g94
(I489
I940
I27
I27
tp259
Rp260
sg27
I4
sbI0
sg48
I0
sg13
(g21
g15
Ntp261
Rp262
(dp263
g29
F3.0000000000000053
sg30
(isrc.util
Loc
p264
(dp265
g33
F4688.42176618642
sg30
(F1801.6291894350722
F4688.42176618642
tp266
sg35
F1801.6291894350722
sbsg67
F0.9491977770964156
sg36
F3.0000000000000053
sg37
(isrc.util
Loc
p267
(dp268
g33
F4691.673560600824
sg30
(F1799.299847664002
F4691.673560600824
tp269
sg35
F1799.299847664002
sbsg41
(dp270
g44
I0
sg17
I0
sg58
I0
ssg72
F1000000000000000.0
sg26
Nsg73
I1
sg74
I0
sg75
(lp271
sg77
Nsg78
(lp272
g13
(g80
g15
Ntp273
Rp274
(dp275
g84
g262
sbasg85
I1
sg86
Nsg87
(lp276
sg89
g92
sg28
F4.0
sg25
F3.9999999999999925
sg93
g94
(I366
I974
I27
I27
tp277
Rp278
sg27
I4
sbI0
sg13
(g21
g15
Ntp279
Rp280
(dp281
g25
F3.999999999999933
sg26
Nsg27
I4
sg28
F4.0
sg29
F6.699999999999961
sg30
(isrc.util
Loc
p282
(dp283
g33
F4533.445819013178
sg30
(F2427.219825604262
F4533.445819013178
tp284
sg35
F2427.219825604262
sbsg36
F6.5999999999999615
sg37
(isrc.util
Loc
p285
(dp286
g33
F4537.421286528188
sg30
(F2427.662158100357
F4537.421286528188
tp287
sg35
F2427.662158100357
sbsg41
(dp288
g44
I0
sg17
I0
sg58
I0
ssg77
Nsg78
(lp289
g13
(g80
g15
Ntp290
Rp291
(dp292
g84
g280
sg147
I0
sbasg148
F16.0
sg67
F1.6816060801301314
sg74
I0
sg75
(lp293
sg93
g94
(I497
I942
I27
I27
tp294
Rp295
sg86
Nsg89
g92
sg73
I1
sg72
F1000000000000000.0
sg85
I1
sg87
(lp296
sbI0
sg13
(g21
g15
Ntp297
Rp298
(dp299
g25
F4.0000000000001865
sg26
Nsg27
I4
sg28
F4.0
sg29
F6.699999999999961
sg30
(isrc.util
Loc
p300
(dp301
g33
F4543.012159097934
sg30
(F2392.449925303717
F4543.012159097934
tp302
sg35
F2392.449925303717
sbsg36
F6.5999999999999615
sg37
(isrc.util
Loc
p303
(dp304
g33
F4546.9994787951755
sg30
(F2392.131677551182
F4546.9994787951755
tp305
sg35
F2392.131677551182
sbsg41
(dp306
g44
I0
sg17
I0
sg58
I0
ssg77
Nsg78
(lp307
g13
(g80
g15
Ntp308
Rp309
(dp310
g84
g298
sg147
I0
sbasg148
F16.0
sg67
F1.491150209454375
sg74
I0
sg75
(lp311
sg93
g94
(I490
I944
I27
I27
tp312
Rp313
sg86
Nsg89
g92
sg73
I1
sg72
F1000000000000000.0
sg85
I1
sg87
(lp314
sbI0
sg13
(g21
g15
Ntp315
Rp316
(dp317
g25
F3.999999999999722
sg26
Nsg27
I4
sg28
F4.0
sg29
F6.699999999999961
sg30
(isrc.util
Loc
p318
(dp319
g33
F4560.6439564410675
sg30
(F2521.9082520296715
F4560.6439564410675
tp320
sg35
F2521.9082520296715
sbsg36
F6.5999999999999615
sg37
(isrc.util
Loc
p321
(dp322
g33
F4564.039336374427
sg30
(F2524.022819386872
F4564.039336374427
tp323
sg35
F2524.022819386872
sbsg41
(dp324
g44
I0
sg17
I0
sg58
I0
ssg77
Nsg78
(lp325
g13
(g80
g15
Ntp326
Rp327
(dp328
g84
g316
sg147
I0
sbasg148
F19.0
sg67
F2.1277960832118454
sg74
I0
sg75
(lp329
sg93
g94
(I517
I948
I27
I27
tp330
Rp331
sg86
Nsg89
g92
sg73
I1
sg72
F1000000000000000.0
sg85
I1
sg87
(lp332
sbI0
sg13
(g21
g15
Ntp333
Rp334
(dp335
g25
F4.000000000000295
sg26
Nsg27
I4
sg28
F4.0
sg29
F6.699999999999961
sg30
(isrc.util
Loc
p336
(dp337
g33
F4480.918240561413
sg30
(F2405.9244988882533
F4480.918240561413
tp338
sg35
F2405.9244988882533
sbsg36
F6.5999999999999615
sg37
(isrc.util
Loc
p339
(dp340
g33
F4484.9153343906955
sg30
(F2406.0769486173863
F4484.9153343906955
tp341
sg35
F2406.0769486173863
sbsg41
(dp342
g44
I0
sg17
I0
sg58
I0
ssg77
Nsg78
(lp343
g13
(g80
g15
Ntp344
Rp345
(dp346
g84
g334
sg147
I0
sbasg148
F16.0
sg67
F1.6089179918643337
sg74
I0
sg75
(lp347
sg93
g94
(I493
I931
I27
I27
tp348
Rp349
sg86
Nsg89
g92
sg73
I1
sg72
F1000000000000000.0
sg85
I1
sg87
(lp350
sbI0
sg13
(g21
g15
Ntp351
Rp352
(dp353
g29
F6.699999999999961
sg30
(isrc.util
Loc
p354
(dp355
g33
F4495.423452905
sg30
(F2363.746068410464
F4495.423452905
tp356
sg35
F2363.746068410464
sbsg67
F1.0469676710161078
sg36
F6.5999999999999615
sg37
(isrc.util
Loc
p357
(dp358
g33
F4498.887094668251
sg30
(F2361.7452721350114
F4498.887094668251
tp359
sg35
F2361.7452721350114
sbsg41
(dp360
g44
I0
sg17
I0
sg58
I0
ssg72
F1000000000000000.0
sg26
Nsg73
I1
sg74
I0
sg75
(lp361
sg77
Nsg78
(lp362
g13
(g80
g15
Ntp363
Rp364
(dp365
g84
g352
sbasg85
I1
sg86
Nsg87
(lp366
sg89
g92
sg28
F4.0
sg25
F4.000000000000132
sg93
g94
(I484
I934
I27
I27
tp367
Rp368
sg27
I4
sbI0
sg13
(g21
g15
Ntp369
Rp370
(dp371
g25
F4.000000000000111
sg26
Nsg27
I4
sg28
F4.0
sg29
F6.699999999999961
sg30
(isrc.util
Loc
p372
(dp373
g33
F4590.136573140138
sg30
(F2556.3664042192
F4590.136573140138
tp374
sg35
F2556.3664042192
sbsg36
F6.5999999999999615
sg37
(isrc.util
Loc
p375
(dp376
g33
F4593.457841840246
sg30
(F2558.595568686368
F4593.457841840246
tp377
sg35
F2558.595568686368
sbsg41
(dp378
g44
I0
sg17
I0
sg58
I0
ssg77
Nsg78
(lp379
g13
(g80
g15
Ntp380
Rp381
(dp382
g84
g370
sg147
I0
sbasg148
F6.0
sg67
F2.161916073232472
sg74
I0
sg75
(lp383
sg93
g94
(I525
I954
I27
I27
tp384
Rp385
sg86
Nsg89
g92
sg73
I1
sg72
F1000000000000000.0
sg85
I1
sg87
(lp386
sbI0
sg13
(g21
g15
Ntp387
Rp388
(dp389
g29
F6.699999999999961
sg30
(isrc.util
Loc
p390
(dp391
g33
F4526.911478706507
sg30
(F2416.819655546874
F4526.911478706507
tp392
sg35
F2416.819655546874
sbsg67
F1.583443050493009
sg36
F6.5999999999999615
sg37
(isrc.util
Loc
p393
(dp394
g33
F4530.91115883153
sg30
(F2416.8702410932024
F4530.91115883153
tp395
sg35
F2416.8702410932024
sbsg41
(dp396
g44
I0
sg17
I0
sg58
I0
ssg72
F1000000000000000.0
sg26
Nsg73
I1
sg74
I0
sg75
(lp397
sg77
Nsg78
(lp398
g13
(g80
g15
Ntp399
Rp400
(dp401
g84
g388
sbasg85
I1
sg86
Nsg87
(lp402
sg89
g92
sg28
F4.0
sg25
F3.9999999999998463
sg93
g94
(I495
I940
I27
I27
tp403
Rp404
sg27
I4
sbI0
sg13
(g21
g15
Ntp405
Rp406
(dp407
g29
F2.0000000000000004
sg30
(isrc.util
Loc
p408
(dp409
g33
F4744.062004505923
sg30
(F1862.861739452295
F4744.062004505923
tp410
sg35
F1862.861739452295
sbsg67
F1.046691441787673
sg36
F2.0000000000000004
sg37
(isrc.util
Loc
p411
(dp412
g33
F4747.525093458627
sg30
(F1860.8599864940957
F4747.525093458627
tp413
sg35
F1860.8599864940957
sbsg41
(dp414
g44
I0
sg17
I0
sg58
I0
ssg72
F1000000000000000.0
sg26
Nsg73
I1
sg74
I0
sg75
(lp415
sg77
Nsg78
(lp416
g13
(g80
g15
Ntp417
Rp418
(dp419
g84
g406
sbasg85
I1
sg86
Nsg87
(lp420
sg89
g92
sg28
F4.0
sg25
F4.000000000000338
sg93
g94
(I378
I986
I27
I27
tp421
Rp422
sg27
I4
sbI0
sg13
(g21
g15
Ntp423
Rp424
(dp425
g29
F6.599999999999963
sg30
(isrc.util
Loc
p426
(dp427
g33
F4549.635856404783
sg30
(F2313.3535747295937
F4549.635856404783
tp428
sg35
F2313.3535747295937
sbsg67
F1.0938954661973566
sg36
F6.499999999999964
sg37
(isrc.util
Loc
p429
(dp430
g33
F4553.189543520325
sg30
(F2311.5174625639474
F4553.189543520325
tp431
sg35
F2311.5174625639474
sbsg41
(dp432
g44
I0
sg17
I0
sg58
I0
ssg72
F1000000000000000.0
sg26
Nsg73
I1
sg74
I0
sg75
(lp433
sg77
Nsg78
(lp434
g13
(g80
g15
Ntp435
Rp436
(dp437
g84
g424
sbasg85
I1
sg86
Nsg87
(lp438
sg89
g92
sg28
F4.0
sg25
F4.000000000000265
sg93
g94
(I473
I945
I27
I27
tp439
Rp440
sg27
I4
sbI0
sg13
(g21
g15
Ntp441
Rp442
(dp443
g29
F6.699999999999826
sg30
(isrc.util
Loc
p444
(dp445
g33
F4615.1426987256555
sg30
(F1819.338387618915
F4615.1426987256555
tp446
sg35
F1819.338387618915
sbsg67
F0.8790622572995191
sg36
F6.5999999999998264
sg37
(isrc.util
Loc
p447
(dp448
g33
F4618.223262950747
sg30
(F1816.786893144086
F4618.223262950747
tp449
sg35
F1816.786893144086
sbsg41
(dp450
g44
I0
sg17
I0
sg58
I0
ssg72
F1000000000000000.0
sg26
Nsg73
I1
sg74
I0
sg75
(lp451
sg77
Nsg78
(lp452
g13
(g80
g15
Ntp453
Rp454
(dp455
g84
g442
sbasg85
I1
sg86
Nsg87
(lp456
sg89
g92
sg28
F4.0
sg25
F3.999999999999683
sg93
g94
(I369
I959
I27
I27
tp457
Rp458
sg27
I4
sbI0
sg13
(g21
g15
Ntp459
Rp460
(dp461
g29
F6.649999999999958
sg30
(isrc.util
Loc
p462
(dp463
g33
F4613.116370759989
sg30
(F1843.835537507351
F4613.116370759989
tp464
sg35
F1843.835537507351
sbsg67
F0.8994105773308005
sg36
F6.549999999999958
sg37
(isrc.util
Loc
p465
(dp466
g33
F4616.248212290271
sg30
(F1841.347251223742
F4616.248212290271
tp467
sg35
F1841.347251223742
sbsg41
(dp468
g44
I0
sg17
I0
sg58
I0
ssg72
F1000000000000000.0
sg26
Nsg73
I1
sg74
I0
sg75
(lp469
sg77
Nsg78
(lp470
g13
(g80
g15
Ntp471
Rp472
(dp473
g84
g460
sbasg85
I1
sg86
Nsg87
(lp474
sg89
g92
sg28
F4.0
sg25
F3.999999999999657
sg93
g94
(I374
I959
I27
I27
tp475
Rp476
sg27
I4
sbI0
sg13
(g21
g15
Ntp477
Rp478
(dp479
g29
F6.699999999999961
sg30
(isrc.util
Loc
p480
(dp481
g33
F4511.963211169171
sg30
(F2411.4772667559
F4511.963211169171
tp482
sg35
F2411.4772667559
sbsg67
F1.6629062389616225
sg36
F6.5999999999999615
sg37
(isrc.util
Loc
p483
(dp484
g33
F4515.946254690983
sg30
(F2411.8451856373813
F4515.946254690983
tp485
sg35
F2411.8451856373813
sbsg41
(dp486
g44
I0
sg17
I0
sg58
I0
ssg72
F1000000000000000.0
sg26
Nsg73
I1
sg74
I0
sg75
(lp487
sg77
Nsg78
(lp488
g13
(g80
g15
Ntp489
Rp490
(dp491
g84
g478
sbasg85
I1
sg86
Nsg87
(lp492
sg89
g92
sg28
F4.0
sg25
F3.999999999999723
sg93
g94
(I494
I937
I27
I27
tp493
Rp494
sg27
I4
sbI0
sg13
(g21
g15
Ntp495
Rp496
(dp497
g29
F6.649999999999961
sg30
(isrc.util
Loc
p498
(dp499
g33
F4554.826524944079
sg30
(F2371.715086877665
F4554.826524944079
tp500
sg35
F2371.715086877665
sbsg67
F1.347253759762507
sg36
F6.549999999999962
sg37
(isrc.util
Loc
p501
(dp502
g33
F4558.726997881024
sg30
(F2370.828345163204
F4558.726997881024
tp503
sg35
F2370.828345163204
sbsg41
(dp504
g44
I0
sg17
I0
sg58
I0
ssg72
F1000000000000000.0
sg26
Nsg73
I1
sg74
I0
sg75
(lp505
sg77
Nsg78
(lp506
g13
(g80
g15
Ntp507
Rp508
(dp509
g84
g496
sbasg85
I1
sg86
Nsg87
(lp510
sg89
g92
sg28
F4.0
sg25
F4.000000000000059
sg93
g94
(I486
I946
I27
I27
tp511
Rp512
sg27
I4
sbI0
sg13
(g21
g15
Ntp513
Rp514
(dp515
g29
F6.599999999999963
sg30
(isrc.util
Loc
p516
(dp517
g33
F4452.249741342458
sg30
(F2405.0851652099323
F4452.249741342458
tp518
sg35
F2405.0851652099323
sbsg67
F1.5630576258092757
sg36
F6.499999999999964
sg37
(isrc.util
Loc
p519
(dp520
g33
F4456.24962156807
sg30
(F2405.0542107149563
F4456.24962156807
tp521
sg35
F2405.0542107149563
sbsg41
(dp522
g44
I0
sg17
I0
sg58
I0
ssg72
F1000000000000000.0
sg26
Nsg73
I1
sg74
I0
sg75
(lp523
sg77
Nsg78
(lp524
g13
(g80
g15
Ntp525
Rp526
(dp527
g84
g514
sbasg85
I1
sg86
Nsg87
(lp528
sg89
g92
sg28
F4.0
sg25
F4.000000000000427
sg93
g94
(I493
I925
I27
I27
tp529
Rp530
sg27
I4
sbI0
sg13
(g21
g15
Ntp531
Rp532
(dp533
g25
F4.000000000000344
sg26
Nsg27
I4
sg28
F4.0
sg29
F6.699999999999961
sg30
(isrc.util
Loc
p534
(dp535
g33
F4527.20356285775
sg30
(F2411.2134749166976
F4527.20356285775
tp536
sg35
F2411.2134749166976
sbsg36
F6.5999999999999615
sg37
(isrc.util
Loc
p537
(dp538
g33
F4531.203469710613
sg30
(F2411.186177143515
F4531.203469710613
tp539
sg35
F2411.186177143515
sbsg41
(dp540
g44
I0
sg17
I0
sg58
I0
ssg77
Nsg78
(lp541
g13
(g80
g15
Ntp542
Rp543
(dp544
g84
g532
sg147
I0
sbasg148
F14.0
sg67
F1.563971830525671
sg74
I0
sg75
(lp545
sg93
g94
(I494
I940
I27
I27
tp546
Rp547
sg86
Nsg89
g92
sg73
I1
sg72
F1000000000000000.0
sg85
I1
sg87
(lp548
sbI0
sg13
(g21
g15
Ntp549
Rp550
(dp551
g25
F3.999999999999571
sg26
Nsg27
I4
sg28
F4.0
sg29
F6.599999999999963
sg30
(isrc.util
Loc
p552
(dp553
g33
F4532.925170026818
sg30
(F2399.713710028312
F4532.925170026818
tp554
sg35
F2399.713710028312
sbsg36
F6.499999999999964
sg37
(isrc.util
Loc
p555
(dp556
g33
F4536.923572817127
sg30
(F2399.600682923404
F4536.923572817127
tp557
sg35
F2399.600682923404
sbsg41
(dp558
g44
I0
sg17
I0
sg58
I0
ssg77
Nsg78
(lp559
g13
(g80
g15
Ntp560
Rp561
(dp562
g84
g550
sg147
I0
sbasg148
F18.0
sg67
F1.5425357889672948
sg74
I0
sg75
(lp563
sg93
g94
(I492
I942
I27
I27
tp564
Rp565
sg86
Nsg89
g92
sg73
I1
sg72
F1000000000000000.0
sg85
I1
sg87
(lp566
sbI0
sg13
(g21
g15
Ntp567
Rp568
(dp569
g25
F3.999999999999776
sg26
Nsg27
I4
sg28
F4.0
sg29
F6.599999999999963
sg30
(isrc.util
Loc
p570
(dp571
g33
F4577.286105000585
sg30
(F2525.0841106372677
F4577.286105000585
tp572
sg35
F2525.0841106372677
sbsg36
F6.499999999999964
sg37
(isrc.util
Loc
p573
(dp574
g33
F4580.733355383562
sg30
(F2527.113017928659
F4580.733355383562
tp575
sg35
F2527.113017928659
sbsg41
(dp576
g44
I0
sg17
I0
sg58
I0
ssg77
Nsg78
(lp577
g13
(g80
g15
Ntp578
Rp579
(dp580
g84
g568
sg147
I29
sbasg148
F8.0
sg67
F2.102760216146022
sg74
I0
sg75
(lp581
sg93
g94
(I518
I951
I27
I27
tp582
Rp583
sg86
Nsg89
g92
sg73
I1
sg72
F1000000000000000.0
sg85
I1
sg87
(lp584
sbI0
sg13
(g21
g15
Ntp585
Rp586
(dp587
g29
F6.699999999999961
sg30
(isrc.util
Loc
p588
(dp589
g33
F4507.185987103637
sg30
(F2403.946267479893
F4507.185987103637
tp590
sg35
F2403.946267479893
sbsg67
F1.6337252818784946
sg36
F6.5999999999999615
sg37
(isrc.util
Loc
p591
(dp592
g33
F4511.178069610187
sg30
(F2404.197817198438
F4511.178069610187
tp593
sg35
F2404.197817198438
sbsg41
(dp594
g44
I0
sg17
I0
sg58
I0
ssg72
F1000000000000000.0
sg26
Nsg73
I1
sg74
I0
sg75
(lp595
sg77
Nsg78
(lp596
g13
(g80
g15
Ntp597
Rp598
(dp599
g84
g586
sbasg85
I1
sg86
Nsg87
(lp600
sg89
g92
sg28
F4.0
sg25
F4.000000000000429
sg93
g94
(I493
I936
I27
I27
tp601
Rp602
sg27
I4
sbI0
sg13
(g21
g15
Ntp603
Rp604
(dp605
g25
F3.9999999999999325
sg26
Nsg27
I4
sg28
F4.0
sg29
F6.649999999999961
sg30
(isrc.util
Loc
p606
(dp607
g33
F4508.218697124415
sg30
(F2422.8448259122088
F4508.218697124415
tp608
sg35
F2422.8448259122088
sbsg36
F6.549999999999962
sg37
(isrc.util
Loc
p609
(dp610
g33
F4512.210008654764
sg30
(F2423.1083259457882
F4512.210008654764
tp611
sg35
F2423.1083259457882
sbsg41
(dp612
g44
I0
sg17
I0
sg58
I0
ssg77
Nsg78
(lp613
g13
(g80
g15
Ntp614
Rp615
(dp616
g84
g604
sg147
I0
sbasg148
F19.0
sg67
F1.636719072753251
sg74
I0
sg75
(lp617
sg93
g94
(I497
I936
I27
I27
tp618
Rp619
sg86
Nsg89
g92
sg73
I1
sg72
F1000000000000000.0
sg85
I1
sg87
(lp620
sbI0
sg13
(g21
g15
Ntp621
Rp622
(dp623
g29
F6.649999999999961
sg30
(isrc.util
Loc
p624
(dp625
g33
F4529.674836709015
sg30
(F2367.710825115222
F4529.674836709015
tp626
sg35
F2367.710825115222
sbsg67
F1.2544365966846311
sg36
F6.549999999999962
sg37
(isrc.util
Loc
p627
(dp628
g33
F4533.476333642262
sg30
(F2366.466389071663
F4533.476333642262
tp629
sg35
F2366.466389071663
sbsg41
(dp630
g44
I0
sg17
I0
sg58
I0
ssg72
F1000000000000000.0
sg26
Nsg73
I1
sg74
I0
sg75
(lp631
sg77
Nsg78
(lp632
g13
(g80
g15
Ntp633
Rp634
(dp635
g84
g622
sbasg85
I1
sg86
Nsg87
(lp636
sg89
g92
sg28
F4.0
sg25
F3.9999999999995834
sg93
g94
(I485
I941
I27
I27
tp637
Rp638
sg27
I4
sbI0
sg13
(g21
g15
Ntp639
Rp640
(dp641
g25
F3.9999999999997238
sg26
Nsg27
I4
sg28
F4.0
sg29
F6.599999999999963
sg30
(isrc.util
Loc
p642
(dp643
g33
F4557.062203246595
sg30
(F2487.3171727917224
F4557.062203246595
tp644
sg35
F2487.3171727917224
sbsg36
F6.499999999999964
sg37
(isrc.util
Loc
p645
(dp646
g33
F4560.5504104954925
sg30
(F2489.274827048413
F4560.5504104954925
tp647
sg35
F2489.274827048413
sbsg41
(dp648
g44
I0
sg17
I0
sg58
I0
ssg77
Nsg78
(lp649
g13
(g80
g15
Ntp650
Rp651
(dp652
g84
g640
sg147
I0
sbasg148
F5.0
sg67
F2.0822134745372614
sg74
I0
sg75
(lp653
sg93
g94
(I510
I947
I27
I27
tp654
Rp655
sg86
Nsg89
g92
sg73
I1
sg72
F1000000000000000.0
sg85
I1
sg87
(lp656
sbI0
sg13
(g21
g15
Ntp657
Rp658
(dp659
g25
F3.9999999999997295
sg26
Nsg27
I4
sg28
F4.0
sg29
F6.649999999999961
sg30
(isrc.util
Loc
p660
(dp661
g33
F4569.822454588059
sg30
(F2498.1564593723497
F4569.822454588059
tp662
sg35
F2498.1564593723497
sbsg36
F6.549999999999962
sg37
(isrc.util
Loc
p663
(dp664
g33
F4573.313266228218
sg30
(F2500.109465796541
F4573.313266228218
tp665
sg35
F2500.109465796541
sbsg41
(dp666
g44
I0
sg17
I0
sg58
I0
ssg77
Nsg78
(lp667
g13
(g80
g15
Ntp668
Rp669
(dp670
g84
g658
sg147
I0
sbasg148
F18.0
sg67
F2.08088153035262
sg74
I0
sg75
(lp671
sg93
g94
(I512
I949
I27
I27
tp672
Rp673
sg86
Nsg89
g92
sg73
I1
sg72
F1000000000000000.0
sg85
I1
sg87
(lp674
sbI0
sg13
(g21
g15
Ntp675
Rp676
(dp677
g29
F6.649999999999961
sg30
(isrc.util
Loc
p678
(dp679
g33
F4526.002604380993
sg30
(F2404.9982033895576
F4526.002604380993
tp680
sg35
F2404.9982033895576
sbsg67
F1.5514821793094415
sg36
F6.549999999999962
sg37
(isrc.util
Loc
p681
(dp682
g33
F4530.0018583316
sg30
(F2404.920951602778
F4530.0018583316
tp683
sg35
F2404.920951602778
sbsg41
(dp684
g44
I0
sg17
I0
sg58
I0
ssg72
F1000000000000000.0
sg26
Nsg73
I1
sg74
I0
sg75
(lp685
sg77
Nsg78
(lp686
g13
(g80
g15
Ntp687
Rp688
(dp689
g84
g676
sg147
I0
sbasg85
I1
sg86
Nsg87
(lp690
sg89
g92
sg28
F4.0
sg25
F4.000000000000334
sg93
g94
(I493
I940
I27
I27
tp691
Rp692
sg27
I4
sbI0
sg13
(g21
g15
Ntp693
Rp694
(dp695
g29
F6.649999999999961
sg30
(isrc.util
Loc
p696
(dp697
g33
F4525.341528740506
sg30
(F2422.6368695287783
F4525.341528740506
tp698
sg35
F2422.6368695287783
sbsg67
F1.6014778481316836
sg36
F6.549999999999962
sg37
(isrc.util
Loc
p699
(dp700
g33
F4529.33964617669
sg30
(F2422.759576360214
F4529.33964617669
tp701
sg35
F2422.759576360214
sbsg41
(dp702
g44
I0
sg17
I0
sg58
I0
ssg72
F1000000000000000.0
sg26
Nsg73
I1
sg74
I0
sg75
(lp703
sg77
Nsg78
(lp704
g13
(g80
g15
Ntp705
Rp706
(dp707
g84
g694
sbasg85
I1
sg86
Nsg87
(lp708
sg89
g92
sg28
F4.0
sg25
F3.999999999999684
sg93
g94
(I497
I940
I27
I27
tp709
Rp710
sg27
I4
sbI0
sg13
(g21
g15
Ntp711
Rp712
(dp713
g29
F6.699999999999961
sg30
(isrc.util
Loc
p714
(dp715
g33
F4550.154589389908
sg30
(F2508.0123217381556
F4550.154589389908
tp716
sg35
F2508.0123217381556
sbsg67
F2.080013424577777
sg36
F6.5999999999999615
sg37
(isrc.util
Loc
p717
(dp718
g33
F4553.647095130658
sg30
(F2509.962297033084
F4553.647095130658
tp719
sg35
F2509.962297033084
sbsg41
(dp720
g44
I0
sg17
I0
sg58
I0
ssg72
F1000000000000000.0
sg26
Nsg73
I1
sg74
I0
sg75
(lp721
sg77
Nsg78
(lp722
g13
(g80
g15
Ntp723
Rp724
(dp725
g84
g712
sg147
I0
sbasg85
I1
sg86
Nsg87
(lp726
sg89
g92
sg28
F4.0
sg25
F4.000000000000212
sg93
g94
(I515
I945
I27
I27
tp727
Rp728
sg27
I4
sbI0
sg13
(g21
g15
Ntp729
Rp730
(dp731
g25
F4.000000000000273
sg26
Nsg27
I4
sg28
F4.0
sg29
F6.649999999999961
sg30
(isrc.util
Loc
p732
(dp733
g33
F4512.112636869848
sg30
(F2395.9404857806776
F4512.112636869848
tp734
sg35
F2395.9404857806776
sbsg36
F6.549999999999962
sg37
(isrc.util
Loc
p735
(dp736
g33
F4516.109160730075
sg30
(F2396.1072102079133
F4516.109160730075
tp737
sg35
F2396.1072102079133
sbsg41
(dp738
g44
I0
sg17
I0
sg58
I0
ssg77
Nsg78
(lp739
g13
(g80
g15
Ntp740
Rp741
(dp742
g84
g730
sg147
I0
sbasg148
F17.0
sg67
F1.6124895119152374
sg74
I0
sg75
(lp743
sg93
g94
(I491
I937
I27
I27
tp744
Rp745
sg86
Nsg89
g92
sg73
I1
sg72
F1000000000000000.0
sg85
I1
sg87
(lp746
sbI0
sg13
(g21
g15
Ntp747
Rp748
(dp749
g25
F4.000000000000118
sg26
Nsg27
I4
sg28
F4.0
sg29
F6.649999999999961
sg30
(isrc.util
Loc
p750
(dp751
g33
F4469.732756580859
sg30
(F2410.300087758575
F4469.732756580859
tp752
sg35
F2410.300087758575
sbsg36
F6.549999999999962
sg37
(isrc.util
Loc
p753
(dp754
g33
F4473.723052653448
sg30
(F2410.5785428771946
F4473.723052653448
tp755
sg35
F2410.5785428771946
sbsg41
(dp756
g44
I0
sg17
I0
sg58
I0
ssg77
Nsg78
(lp757
g13
(g80
g15
Ntp758
Rp759
(dp760
g84
g748
sbasg148
F17.0
sg67
F1.640466455055871
sg74
I0
sg75
(lp761
sg93
g94
(I494
I928
I27
I27
tp762
Rp763
sg86
Nsg89
g92
sg73
I1
sg72
F1000000000000000.0
sg85
I1
sg87
(lp764
sbI0
sg13
(g21
g15
Ntp765
Rp766
(dp767
g29
F6.649999999999961
sg30
(isrc.util
Loc
p768
(dp769
g33
F4554.5594254642965
sg30
(F2497.9921183814554
F4554.5594254642965
tp770
sg35
F2497.9921183814554
sbsg67
F2.0754920621768362
sg36
F6.549999999999962
sg37
(isrc.util
Loc
p771
(dp772
g33
F4558.060712021895
sg30
(F2499.92628291468
F4558.060712021895
tp773
sg35
F2499.92628291468
sbsg41
(dp774
g44
I0
sg17
I0
sg58
I0
ssg72
F1000000000000000.0
sg26
Nsg73
I1
sg74
I0
sg75
(lp775
sg77
Nsg78
(lp776
g13
(g80
g15
Ntp777
Rp778
(dp779
g84
g766
sg147
I0
sbasg85
I1
sg86
Nsg87
(lp780
sg89
g92
sg28
F4.0
sg25
F4.000000000000254
sg93
g94
(I512
I946
I27
I27
tp781
Rp782
sg27
I4
sbI0
ssS'lostsprites'
p783
(lp784
sbI0
ssg77
Nsg78
(lp785
g13
(g80
g15
Ntp786
Rp787
(dp788
g84
g48
sg147
I0
sbasg148
F1.0
sg67
F2.100240620516804
sg74
I0
sg75
(lp789
sg93
g94
(I515
I950
I27
I27
tp790
Rp791
sg86
Nsg89
g92
sg73
I1
sg72
F1000000000000000.0
sg85
I1
sg87
(lp792
sbI0
sg62
I0
sg23
I0
sg226
I0
sg116
I0
sg586
I0
sg388
I0
sg190
I0
sg532
I0
sg280
I0
sg172
I0
sg13
(csrc.actor
Corpse
p793
g15
Ntp794
Rp795
(dp796
g29
F0.1
sg30
(isrc.util
Loc
p797
(dp798
g33
F4793.483505073797
sg30
(F2082.05203736883
F4793.483505073797
tp799
sg35
F2082.05203736883
sbsg67
F0.0
sg36
I0
sg37
(isrc.util
Loc
p800
(dp801
g33
F4793.483505073797
sg30
(F2082.05203736883
F4793.483505073797
tp802
sg35
F2082.05203736883
sbsg41
(dp803
g44
I0
sg17
I0
ssg72
F1000000000000000.0
sg26
Nsg73
I1
sg74
I0
sg75
(lp804
g13
(csrc.actor
Incubate
p805
g15
Ntp806
Rp807
(dp808
g84
g795
sg147
I50
sbasg77
Nsg78
(lp809
sg85
I1
sg25
F0.0
sg87
(lp810
sg89
g92
sg28
F0.0
sg93
g94
(I425
I997
I27
I27
tp811
Rp812
sg27
I4
sbI0
sg712
I0
sg13
(g793
g15
Ntp813
Rp814
(dp815
g29
F0.1
sg30
(isrc.util
Loc
p816
(dp817
g33
F4863.999687151393
sg30
(F2498.073886224254
F4863.999687151393
tp818
sg35
F2498.073886224254
sbsg67
F0.0
sg36
I0
sg37
(isrc.util
Loc
p819
(dp820
g33
F4863.999687151393
sg30
(F2498.073886224254
F4863.999687151393
tp821
sg35
F2498.073886224254
sbsg41
(dp822
g44
I0
sg17
I0
ssg72
F1000000000000000.0
sg26
Nsg73
I1
sg74
I0
sg75
(lp823
g13
(g805
g15
Ntp824
Rp825
(dp826
g84
g814
sg147
I144
sbasg77
Nsg78
(lp827
sg85
I1
sg25
F0.0
sg87
(lp828
sg89
g92
sg28
F0.0
sg93
g94
(I512
I1011
I27
I27
tp829
Rp830
sg27
I4
sbI0
sg298
I0
sg478
I0
sg262
I0
sg134
I0
sg316
I0
sg334
I0
sg352
I0
sg370
I0
sg442
I0
sg406
I0
sg424
I0
sg208
I0
sg244
I0
sg98
I0
sg640
I0
sg13
(g793
g15
Ntp831
Rp832
(dp833
g29
F0.1
sg30
(isrc.util
Loc
p834
(dp835
g33
F4863.994760523517
sg30
(F2723.449944362861
F4863.994760523517
tp836
sg35
F2723.449944362861
sbsg67
F0.0
sg36
I0
sg37
(isrc.util
Loc
p837
(dp838
g33
F4863.994760523517
sg30
(F2723.449944362861
F4863.994760523517
tp839
sg35
F2723.449944362861
sbsg41
(dp840
g44
I0
sg17
I0
ssg72
F1000000000000000.0
sg26
Nsg73
I1
sg74
I0
sg75
(lp841
g13
(g805
g15
Ntp842
Rp843
(dp844
g84
g832
sg147
I210
sbasg77
Nsg78
(lp845
sg85
I1
sg25
F0.0
sg87
(lp846
sg89
g92
sg28
F0.0
sg93
g94
(I560
I1011
I27
I27
tp847
Rp848
sg27
I4
sbI0
sg514
I0
sg550
I0
sg460
I0
sg568
I0
sg604
I0
sg622
I0
sg658
I0
sg694
I0
sg676
I0
sg154
I0
sg730
I0
sg748
I0
sg766
I0
sg496
I0
ssg783
(lp849
sbI0
sg17
I0
sg58
I0
ssg77
Nsg78
(lp850
g13
(g80
g15
Ntp851
Rp852
(dp853
g84
g23
sg147
I0
sbasg148
F9.0
sg67
F1.5839302765936627
sg74
I0
sg75
(lp854
sg93
g94
(I491
I934
I27
I27
tp855
Rp856
sg86
Nsg89
g92
sg73
I1
sg72
F1000000000000000.0
sg85
I1
sg87
(lp857
sbg94
(I491
I934
I27
I27
tp858
Rp859
sg370
g94
(I525
I954
I27
I27
tp860
Rp861
sg98
g94
(I917
I814
I27
I27
tp862
Rp863
sg676
g94
(I493
I940
I27
I27
tp864
Rp865
sg586
g94
(I493
I936
I27
I27
tp866
Rp867
sg154
g94
(I489
I934
I27
I27
tp868
Rp869
sg172
g94
(I494
I934
I27
I27
tp870
Rp871
sg190
g94
(I510
I950
I27
I27
tp872
Rp873
sg208
g94
(I520
I788
I27
I27
tp874
Rp875
sg226
g94
(I496
I933
I27
I27
tp876
Rp877
sg244
g94
(I489
I940
I27
I27
tp878
Rp879
sg795
g94
(I425
I997
I27
I27
tp880
Rp881
sg48
g94
(I515
I950
I27
I27
tp882
Rp883
sg262
g94
(I366
I974
I27
I27
tp884
Rp885
sg280
g94
(I497
I942
I27
I27
tp886
Rp887
sg298
g94
(I490
I944
I27
I27
tp888
Rp889
sg316
g94
(I517
I948
I27
I27
tp890
Rp891
sg334
g94
(I493
I931
I27
I27
tp892
Rp893
sg730
g94
(I491
I937
I27
I27
tp894
Rp895
sg62
g94
(I491
I932
I27
I27
tp896
Rp897
sg388
g94
(I495
I940
I27
I27
tp898
Rp899
sg406
g94
(I378
I986
I27
I27
tp900
Rp901
sg424
g94
(I473
I945
I27
I27
tp902
Rp903
sg442
g94
(I369
I959
I27
I27
tp904
Rp905
sg460
g94
(I374
I959
I27
I27
tp906
Rp907
sg478
g94
(I494
I937
I27
I27
tp908
Rp909
sg496
g94
(I486
I946
I27
I27
tp910
Rp911
sg514
g94
(I493
I925
I27
I27
tp912
Rp913
sg532
g94
(I494
I940
I27
I27
tp914
Rp915
sg550
g94
(I492
I942
I27
I27
tp916
Rp917
sg832
g94
(I560
I1011
I27
I27
tp918
Rp919
sg568
g94
(I518
I951
I27
I27
tp920
Rp921
sg604
g94
(I497
I936
I27
I27
tp922
Rp923
sg622
g94
(I485
I941
I27
I27
tp924
Rp925
sg658
g94
(I512
I949
I27
I27
tp926
Rp927
sg134
g94
(I496
I930
I27
I27
tp928
Rp929
sg814
g94
(I512
I1011
I27
I27
tp930
Rp931
sg640
g94
(I510
I947
I27
I27
tp932
Rp933
sg116
g94
(I491
I927
I27
I27
tp934
Rp935
sg694
g94
(I497
I940
I27
I27
tp936
Rp937
sg712
g94
(I515
I945
I27
I27
tp938
Rp939
sg352
g94
(I484
I934
I27
I27
tp940
Rp941
sg748
g94
(I494
I928
I27
I27
tp942
Rp943
sg766
g94
(I512
I946
I27
I27
tp944
Rp945
ssg783
(lp946
sbsS'tileNames'
p947
(lp948
S'tile0.png'
p949
aS'tile1.png'
p950
asS'fill'
p951
I0
sS'mobSize'
p952
(isrc.util
Loc
p953
(dp954
g33
I27
sg30
(I27
I27
tp955
sg35
I27
sbsS'scale'
p956
F0.2109375
sS'friendlies'
p957
g13
(g14
g15
Ntp958
Rp959
(dp960
g19
(dp961
sg783
(lp962
sbsS'filename'
p963
S'map.p'
p964
sS'width'
p965
I20
sS'enemies'
p966
g58
sS'neutrals'
p967
g13
(g14
g15
Ntp968
Rp969
(dp970
g19
(dp971
sg783
(lp972
sbsS'viewpoint'
p973
(F2560.0
F2560.0
tp974
sS'grid'
p975
(lp976
I1
aI1
aI1
aI1
aI1
aI1
aI1
aI1
aI1
aI1
aI1
aI1
aI1
aI1
aI1
aI1
aI1
aI1
aI1
aI1
aI1
aI0
aI0
aI0
aI0
aI0
aI0
aI0
aI0
aI0
aI0
aI0
aI0
aI0
aI0
aI0
aI0
aI0
aI0
aI1
aI1
aI0
aI0
aI0
aI0
aI0
aI0
aI0
aI0
aI0
aI0
aI0
aI0
aI0
aI0
aI0
aI0
aI0
aI0
aI1
aI1
aI0
aI0
aI0
aI0
aI0
aI0
aI0
aI0
aI0
aI0
aI0
aI0
aI0
aI0
aI0
aI0
aI0
aI0
aI1
aI1
aI0
aI0
aI0
aI0
aI0
aI0
aI0
aI0
aI0
aI0
aI0
aI0
aI0
aI0
aI0
aI0
aI0
aI0
aI1
aI1
aI0
aI0
aI0
aI0
aI0
aI0
aI0
aI0
aI0
aI0
aI0
aI0
aI0
aI0
aI0
aI0
aI0
aI0
aI1
aI1
aI0
aI0
aI0
aI0
aI0
aI0
aI0
aI0
aI0
aI0
aI0
aI0
aI0
aI0
aI0
aI0
aI0
aI0
aI1
aI1
aI0
aI0
aI0
aI0
aI0
aI0
aI0
aI0
aI0
aI0
aI0
aI0
aI0
aI0
aI0
aI0
aI0
aI0
aI1
aI1
aI0
aI0
aI0
aI0
aI0
aI0
aI0
aI0
aI0
aI0
aI0
aI0
aI0
aI0
aI0
aI0
aI0
aI0
aI1
aI1
aI0
aI0
aI0
aI0
aI0
aI0
aI0
aI0
aI0
aI0
aI0
aI0
aI0
aI0
aI0
aI0
aI0
aI0
aI1
aI1
aI0
aI0
aI0
aI0
aI0
aI0
aI0
aI0
aI0
aI0
aI0
aI0
aI0
aI0
aI0
aI0
aI0
aI0
aI1
aI1
aI0
aI0
aI0
aI0
aI0
aI0
aI0
aI0
aI0
aI0
aI0
aI0
aI0
aI0
aI0
aI0
aI0
aI0
aI1
aI1
aI0
aI0
aI0
aI0
aI0
aI0
aI0
aI0
aI0
aI0
aI0
aI0
aI0
aI0
aI0
aI0
aI0
aI0
aI1
aI1
aI0
aI0
aI0
aI0
aI0
aI0
aI0
aI0
aI0
aI0
aI0
aI0
aI0
aI0
aI0
aI0
aI0
aI0
aI1
aI1
aI0
aI0
aI0
aI0
aI0
aI0
aI0
aI0
aI0
aI0
aI0
aI0
aI0
aI0
aI0
aI0
aI0
aI0
aI1
aI1
aI0
aI0
aI0
aI0
aI0
aI0
aI0
aI0
aI0
aI0
aI0
aI0
aI0
aI0
aI0
aI0
aI0
aI0
aI1
aI1
aI0
aI0
aI0
aI0
aI0
aI0
aI0
aI0
aI0
aI0
aI0
aI0
aI0
aI0
aI0
aI0
aI0
aI0
aI1
aI1
aI0
aI0
aI0
aI0
aI0
aI0
aI0
aI0
aI0
aI0
aI0
aI0
aI0
aI0
aI0
aI0
aI0
aI0
aI1
aI1
aI0
aI0
aI0
aI0
aI0
aI0
aI0
aI0
aI0
aI0
aI0
aI0
aI0
aI0
aI0
aI0
aI0
aI0
aI1
aI1
aI1
aI1
aI1
aI1
aI1
aI1
aI1
aI1
aI1
aI1
aI1
aI1
aI1
aI1
aI1
aI1
aI1
aI1
aI1
asS'actorSize'
p977
I27
sS'tileSize'
p978
I54
sS'mobOffset'
p979
(isrc.util
Loc
p980
(dp981
g33
F-13.5
sg30
(F-13.5
F-13.5
tp982
sg35
F-13.5
sbsS'maxScale'
p983
F2.0
sS'mobs'
p984
g44
sS'minScale'
p985
F0.05
s.