(dp1
S'size'
p2
(I20
I20
tp3
sS'actorNames'
p4
(lp5
S'blip.png'
p6
aS'zombie.png'
p7
aS'soldier.png'
p8
aS'civilian.png'
p9
asS'wall'
p10
I1
sS'height'
p11
I20
sS'visible'
p12
ccopy_reg
_reconstructor
p13
(cpygame.sprite
Group
p14
c__builtin__
object
p15
NtRp16
(dp17
S'spritedict'
p18
(dp19
g13
(csrc.actor
Civilian
p20
g15
NtRp21
(dp22
S'loc'
p23
(isrc.util
Loc
p24
(dp25
S'y'
F1817.1008451347093
sg23
(F3407.5603437106329
F1817.1008451347093
tp26
sS'x'
F3407.5603437106329
sbsS'direction'
p27
F5.4263617824397201
sS'lastLoc'
p28
(isrc.util
Loc
p29
(dp30
S'y'
F1819.8216037844454
sg23
(F3405.2029145240217
F1819.8216037844454
tp31
sS'x'
F3405.2029145240217
sbsS'_Sprite__g'
p32
(dp33
g13
(g14
g15
NtRp34
(dp35
g18
(dp36
g21
I0
sg13
(csrc.actor
Zombie
p37
g15
NtRp38
(dp39
g23
(isrc.util
Loc
p40
(dp41
S'y'
F1194.1193543471306
sg23
(F1048.9480802568537
F1194.1193543471306
tp42
sS'x'
F1048.9480802568537
sbsg27
F0
sg28
(isrc.util
Loc
p43
(dp44
S'y'
F1194.1193543471306
sg23
(F1048.9480802568537
F1194.1193543471306
tp45
sS'x'
F1048.9480802568537
sbsg32
(dp46
g34
I0
sg16
I0
sg13
(g14
g15
NtRp47
(dp48
g18
(dp49
g13
(g37
g15
NtRp50
(dp51
g23
(isrc.util
Loc
p52
(dp53
S'y'
F1895.4478298017279
sg23
(F3294.5854522900681
F1895.4478298017279
tp54
sS'x'
F3294.5854522900681
sbsg27
F-0.6063436241130864
sg28
(isrc.util
Loc
p55
(dp56
S'y'
F1897.043456551025
sg23
(F3292.2845882617239
F1897.043456551025
tp57
sS'x'
F3292.2845882617239
sbsg32
(dp58
g34
I0
sg16
I0
sg47
I0
ssS'image'
p59
NsS'_visible'
p60
I1
sS'_layer'
p61
I0
sS'source_rect'
p62
NsS'dirty'
p63
I1
sS'target'
p64
g21
sS'level'
p65
g13
(csrc.tilemap
Map
p66
g15
NtRp67
g1
bsS'speed'
p68
F2.7999999999999998
sS'rect'
p69
cpygame
__rect_constructor
p70
(I302
I171
I12
I12
tRp71
sS'blendmode'
p72
I4
sbI0
sg13
(g37
g15
NtRp73
(dp74
g23
(isrc.util
Loc
p75
(dp76
S'y'
F3380.1972038178665
sg23
(F1669.2149985661363
F3380.1972038178665
tp77
sS'x'
F1669.2149985661363
sbsg27
F-1.2381382436414765
sg28
(isrc.util
Loc
p78
(dp79
S'y'
F3382.8437012914674
sg23
(F1668.3006402544097
F3382.8437012914674
tp80
sS'x'
F1668.3006402544097
sbsg32
(dp81
g34
I0
sg16
I0
sg47
I0
ssg59
Nsg60
I1
sg61
I0
sg62
Nsg63
I1
sg64
g13
(g20
g15
NtRp82
(dp83
g23
(isrc.util
Loc
p84
(dp85
S'y'
F2743.0692145224994
sg23
(F1889.3411382873833
F2743.0692145224994
tp86
sS'x'
F1889.3411382873833
sbsg27
F3.3032952820659913
sg28
(isrc.util
Loc
p87
(dp88
S'y'
F2743.6488104046757
sg23
(F1892.8941748215839
F2743.6488104046757
tp89
sS'x'
F1892.8941748215839
sbsg32
(dp90
g34
I0
sg16
I0
sg13
(g14
g15
NtRp91
(dp92
g18
(dp93
g21
I0
sg13
(g20
g15
NtRp94
(dp95
g23
(isrc.util
Loc
p96
(dp97
S'y'
F4451.484354247772
sg23
(F3893.4470658619839
F4451.484354247772
tp98
sS'x'
F3893.4470658619839
sbsg27
F0
sg28
(isrc.util
Loc
p99
(dp100
S'y'
F4451.484354247772
sg23
(F3893.4470658619839
F4451.484354247772
tp101
sS'x'
F3893.4470658619839
sbsg32
(dp102
g34
I0
sg16
I0
sg91
I0
ssg59
Nsg60
I1
sg61
I0
sg62
Nsg63
I1
sS'fear'
p103
Nsg65
g67
sg68
F0
sg69
g70
(I359
I411
I12
I12
tRp104
sg72
I4
sbI0
sg82
I0
sg13
(g20
g15
NtRp105
(dp106
g23
(isrc.util
Loc
p107
(dp108
S'y'
F1114.034029459114
sg23
(F2601.9045815663171
F1114.034029459114
tp109
sS'x'
F2601.9045815663171
sbsg27
F3.3224312913117933
sg28
(isrc.util
Loc
p110
(dp111
S'y'
F1114.6815060148137
sg23
(F2605.4458771074742
F1114.6815060148137
tp112
sS'x'
F2605.4458771074742
sbsg32
(dp113
g34
I0
sg16
I0
sg91
I0
ssg59
Nsg60
I1
sg61
I0
sg62
Nsg63
I1
sg103
g13
(g37
g15
NtRp114
(dp115
g23
(isrc.util
Loc
p116
(dp117
S'y'
F1298.384230342398
sg23
(F2909.2519681758145
F1298.384230342398
tp118
sS'x'
F2909.2519681758145
sbsg27
F0.80546207614337584
sg28
(isrc.util
Loc
p119
(dp120
S'y'
F1296.3650080010373
sg23
(F2907.3121895451068
F1296.3650080010373
tp121
sS'x'
F2907.3121895451068
sbsg32
(dp122
g34
I0
sg16
I0
sg47
I0
ssg59
Nsg60
I1
sg61
I0
sg62
Nsg63
I1
sg64
g21
sg65
g67
sg68
F2.7999999999999998
sg69
g70
(I266
I115
I12
I12
tRp123
sg72
I4
sbsg65
g67
sg68
F3.6000000000000001
sg69
g70
(I237
I98
I12
I12
tRp124
sg72
I4
sbI0
sg13
(g20
g15
NtRp125
(dp126
g23
(isrc.util
Loc
p127
(dp128
S'y'
F2512.7216589255063
sg23
(F3906.0965669869984
F2512.7216589255063
tp129
sS'x'
F3906.0965669869984
sbsg27
F6.4535757410166701
sg28
(isrc.util
Loc
p130
(dp131
S'y'
F2512.1112172150097
sg23
(F3902.5486998928013
F2512.1112172150097
tp132
sS'x'
F3902.5486998928013
sbsg32
(dp133
g34
I0
sg16
I0
sg91
I0
ssg59
Nsg60
I1
sg61
I0
sg62
Nsg63
I1
sg103
g50
sg65
g67
sg68
F3.6000000000000001
sg69
g70
(I360
I229
I12
I12
tRp134
sg72
I4
sbI0
ssS'lostsprites'
p135
(lp136
sbI0
ssg59
Nsg60
I1
sg61
I0
sg62
Nsg63
I1
sg103
g13
(g37
g15
NtRp137
(dp138
g23
(isrc.util
Loc
p139
(dp140
S'y'
F2952.0469632136073
sg23
(F2256.8648088653285
F2952.0469632136073
tp141
sS'x'
F2256.8648088653285
sbsg27
F3.6586116540287623
sg28
(isrc.util
Loc
p142
(dp143
S'y'
F2953.4309779166033
sg23
(F2259.2988391243621
F2953.4309779166033
tp144
sS'x'
F2259.2988391243621
sbsg32
(dp145
g34
I0
sg16
I0
sg47
I0
ssg59
Nsg60
I1
sg61
I0
sg62
Nsg63
I1
sg64
g82
sg65
g67
sg68
F2.7999999999999998
sg69
g70
(I205
I270
I12
I12
tRp146
sg72
I4
sbsg65
g67
sg68
F3.6000000000000001
sg69
g70
(I171
I251
I12
I12
tRp147
sg72
I4
sbsg65
g67
sg68
F2.7999999999999998
sg69
g70
(I150
I310
I12
I12
tRp148
sg72
I4
sbI0
sg114
I0
sg13
(g37
g15
NtRp149
(dp150
g23
(isrc.util
Loc
p151
(dp152
S'y'
F2547.909628766573
sg23
(F1330.2733885282037
F2547.909628766573
tp153
sS'x'
F1330.2733885282037
sbsg27
F0.33585532914871824
sg28
(isrc.util
Loc
p154
(dp155
S'y'
F2546.9868136392693
sg23
(F1327.6298280048147
F2546.9868136392693
tp156
sS'x'
F1327.6298280048147
sbsg32
(dp157
g34
I0
sg16
I0
sg47
I0
ssg59
Nsg60
I1
sg61
I0
sg62
Nsg63
I1
sg64
g82
sg65
g67
sg68
F2.7999999999999998
sg69
g70
(I118
I232
I12
I12
tRp158
sg72
I4
sbI0
sg13
(g37
g15
NtRp159
(dp160
g23
(isrc.util
Loc
p161
(dp162
S'y'
F1994.5555023528009
sg23
(F1713.5959436781395
F1994.5555023528009
tp163
sS'x'
F1713.5959436781395
sbsg27
F1.3401812833644902
sg28
(isrc.util
Loc
p164
(dp165
S'y'
F1991.8296295674236
sg23
(F1712.9559299611462
F1991.8296295674236
tp166
sS'x'
F1712.9559299611462
sbsg32
(dp167
g34
I0
sg16
I0
sg47
I0
ssg59
Nsg60
I1
sg61
I0
sg62
Nsg63
I1
sg64
g82
sg65
g67
sg68
F2.7999999999999998
sg69
g70
(I154
I180
I12
I12
tRp168
sg72
I4
sbI0
sg13
(g37
g15
NtRp169
(dp170
g23
(isrc.util
Loc
p171
(dp172
S'y'
F502.57097426315488
sg23
(F2065.3014695797719
F502.57097426315488
tp173
sS'x'
F2065.3014695797719
sbsg27
F0.84777391364890053
sg28
(isrc.util
Loc
p174
(dp175
S'y'
F500.47150804000324
sg23
(F2063.4488385917321
F500.47150804000324
tp176
sS'x'
F2063.4488385917321
sbsg32
(dp177
g34
I0
sg16
I0
sg47
I0
ssg59
Nsg60
I1
sg61
I0
sg62
Nsg63
I1
sg64
g105
sg65
g67
sg68
F2.7999999999999998
sg69
g70
(I187
I41
I12
I12
tRp178
sg72
I4
sbI0
sg137
I0
sg38
I0
sg13
(g37
g15
NtRp179
(dp180
g23
(isrc.util
Loc
p181
(dp182
S'y'
F4258.5942503589595
sg23
(F1474.3093271194739
F4258.5942503589595
tp183
sS'x'
F1474.3093271194739
sbsg27
F2.9343842752425306
sg28
(isrc.util
Loc
p184
(dp185
S'y'
F4258.0182097222232
sg23
(F1477.0494324431481
F4258.0182097222232
tp186
sS'x'
F1477.0494324431481
sbsg32
(dp187
g34
I0
sg16
I0
sg47
I0
ssg59
Nsg60
I1
sg61
I0
sg62
Nsg63
I1
sg64
g13
(csrc.actor
Soldier
p188
g15
NtRp189
(dp190
g23
(isrc.util
Loc
p191
(dp192
S'y'
F4437.8726354315359
sg23
(F621.5193917773172
F4437.8726354315359
tp193
sS'x'
F621.5193917773172
sbsg27
F2.8192139248515513
sg28
(isrc.util
Loc
p194
(dp195
S'y'
F4436.6053408631697
sg23
(F625.31332963619013
F4436.6053408631697
tp196
sS'x'
F625.31332963619013
sbsg32
(dp197
g34
I0
sg13
(g14
g15
NtRp198
(dp199
g18
(dp200
g13
(g188
g15
NtRp201
(dp202
g23
(isrc.util
Loc
p203
(dp204
S'y'
F2911.2722819009014
sg23
(F4448.7850580756558
F2911.2722819009014
tp205
sS'x'
F4448.7850580756558
sbsg27
F1.480746990122416
sg28
(isrc.util
Loc
p206
(dp207
S'y'
F2910.1481858049019
sg23
(F4448.6835594726635
F2910.1481858049019
tp208
sS'x'
F4448.6835594726635
sbsg32
(dp209
g34
I0
sg198
I0
sg16
I0
ssg59
Nsg60
I1
sg61
I0
sg62
Nsg63
I1
sg103
Nsg65
g67
sg68
F1.1286691275349052
sg69
g70
(I411
I266
I12
I12
tRp210
sg72
I4
sbI0
sg13
(g188
g15
NtRp211
(dp212
g23
(isrc.util
Loc
p213
(dp214
S'y'
F3840.9789741361019
sg23
(F1861.3348612985167
F3840.9789741361019
tp215
sS'x'
F1861.3348612985167
sbsg27
F6.7233159356452123
sg28
(isrc.util
Loc
p216
(dp217
S'y'
F3839.2747435450892
sg23
(F1857.7160772357884
F3839.2747435450892
tp218
sS'x'
F1857.7160772357884
sbsg32
(dp219
g34
I0
sg198
I0
sg16
I0
ssg59
Nsg60
I1
sg61
I0
sg62
Nsg63
I1
sg103
g73
sg65
g67
sg68
F4
sg69
g70
(I168
I354
I12
I12
tRp220
sg72
I4
sbI0
sg189
I0
sg13
(g188
g15
NtRp221
(dp222
g23
(isrc.util
Loc
p223
(dp224
S'y'
F3028.2909329452768
sg23
(F578.53559712110359
F3028.2909329452768
tp225
sS'x'
F578.53559712110359
sbsg27
F2.1267247417591122
sg28
(isrc.util
Loc
p226
(dp227
S'y'
F3024.8932895372477
sg23
(F580.64652565420863
F3024.8932895372477
tp228
sS'x'
F580.64652565420863
sbsg32
(dp229
g34
I0
sg198
I0
sg16
I0
ssg59
Nsg60
I1
sg61
I0
sg62
Nsg63
I1
sg103
g149
sg65
g67
sg68
F4
sg69
g70
(I48
I277
I12
I12
tRp230
sg72
I4
sbI0
sg13
(g188
g15
NtRp231
(dp232
g23
(isrc.util
Loc
p233
(dp234
S'y'
F2766.9617302835609
sg23
(F1723.7854218305897
F2766.9617302835609
tp235
sS'x'
F1723.7854218305897
sbsg27
F6.1320953402955993
sg28
(isrc.util
Loc
p236
(dp237
S'y'
F2767.5637933684516
sg23
(F1719.8309913985538
F2767.5637933684516
tp238
sS'x'
F1719.8309913985538
sbsg32
(dp239
g34
I0
sg198
I0
sg16
I0
ssg59
Nsg60
I1
sg61
I0
sg62
Nsg63
I1
sg103
g149
sg65
g67
sg68
F4
sg69
g70
(I155
I253
I12
I12
tRp240
sg72
I4
sbI0
ssg135
(lp241
sbI0
sg16
I0
ssg59
Nsg60
I1
sg61
I0
sg62
Nsg63
I1
sg103
g179
sg65
g67
sg68
F4
sg69
g70
(I52
I410
I12
I12
tRp242
sg72
I4
sbsg65
g67
sg68
F2.7999999999999998
sg69
g70
(I132
I393
I12
I12
tRp243
sg72
I4
sbI0
sg13
(g37
g15
NtRp244
(dp245
g23
(isrc.util
Loc
p246
(dp247
S'y'
F2287.9990201784772
sg23
(F1142.1146804727366
F2287.9990201784772
tp248
sS'x'
F1142.1146804727366
sbsg27
F0.5470199406138555
sg28
(isrc.util
Loc
p249
(dp250
S'y'
F2286.5426160319075
sg23
(F1139.7232610277511
F2286.5426160319075
tp251
sS'x'
F1139.7232610277511
sbsg32
(dp252
g34
I0
sg16
I0
sg47
I0
ssg59
Nsg60
I1
sg61
I0
sg62
Nsg63
I1
sg64
g82
sg65
g67
sg68
F2.7999999999999998
sg69
g70
(I101
I208
I12
I12
tRp253
sg72
I4
sbI0
ssg135
(lp254
sbI0
ssg59
Nsg60
I1
sg61
I0
sg62
Nsg63
I1
sg64
Nsg65
g67
sg68
F0
sg69
g70
(I92
I105
I12
I12
tRp255
sg72
I4
sbI0
sg50
I0
sg82
I0
sg201
I0
sg137
I0
sg125
I0
sg169
I0
sg94
I0
sg73
I0
sg231
I0
sg114
I0
sg149
I0
sg189
I0
sg105
I0
sg221
I0
sg211
I0
sg244
I0
sg179
I0
sg159
I0
ssg135
(lp256
sbI0
sg16
I0
sg91
I0
ssg59
Nsg60
I1
sg61
I0
sg62
Nsg63
I1
sg103
g50
sg65
g67
sg68
F3.6000000000000001
sg69
g70
(I313
I164
I12
I12
tRp257
sg72
I4
sbg70
(I313
I164
I12
I12
tRp258
sg211
g70
(I168
I354
I12
I12
tRp259
sg82
g70
(I171
I251
I12
I12
tRp260
sg221
g70
(I48
I277
I12
I12
tRp261
sg50
g70
(I302
I171
I12
I12
tRp262
sg125
g70
(I360
I229
I12
I12
tRp263
sg105
g70
(I237
I98
I12
I12
tRp264
sg169
g70
(I187
I41
I12
I12
tRp265
sg94
g70
(I359
I411
I12
I12
tRp266
sg73
g70
(I150
I310
I12
I12
tRp267
sg159
g70
(I154
I180
I12
I12
tRp268
sg231
g70
(I155
I253
I12
I12
tRp269
sg114
g70
(I266
I115
I12
I12
tRp270
sg149
g70
(I118
I232
I12
I12
tRp271
sg189
g70
(I52
I410
I12
I12
tRp272
sg137
g70
(I205
I270
I12
I12
tRp273
sg201
g70
(I411
I266
I12
I12
tRp274
sg38
g70
(I92
I105
I12
I12
tRp275
sg179
g70
(I132
I393
I12
I12
tRp276
sg244
g70
(I101
I208
I12
I12
tRp277
ssg135
(lp278
sbsS'tileNames'
p279
(lp280
S'tile0.png'
p281
aS'tile1.png'
p282
asS'fill'
p283
I0
sS'mobSize'
p284
(isrc.util
Loc
p285
(dp286
S'y'
I12
sg23
(I12
I12
tp287
sS'x'
I12
sbsS'scale'
p288
F0.09375
sS'friendlies'
p289
g198
sS'filename'
p290
S'map.p'
p291
sS'width'
p292
I20
sS'enemies'
p293
g47
sS'neutrals'
p294
g91
sS'viewpoint'
p295
(F2560
F2560
tp296
sS'grid'
p297
(lp298
I1
aI1
aI1
aI1
aI1
aI1
aI1
aI1
aI1
aI1
aI1
aI1
aI1
aI1
aI1
aI1
aI1
aI1
aI1
aI1
aI1
aI0
aI0
aI0
aI0
aI0
aI0
aI0
aI0
aI1
aI0
aI0
aI0
aI0
aI0
aI0
aI0
aI0
aI0
aI1
aI1
aI0
aI1
aI1
aI1
aI1
aI0
aI0
aI0
aI1
aI0
aI0
aI0
aI0
aI0
aI0
aI0
aI0
aI0
aI1
aI1
aI0
aI1
aI0
aI0
aI0
aI0
aI0
aI0
aI0
aI0
aI0
aI1
aI1
aI1
aI1
aI1
aI1
aI0
aI1
aI1
aI0
aI1
aI0
aI0
aI0
aI0
aI0
aI0
aI0
aI0
aI0
aI0
aI0
aI0
aI0
aI0
aI0
aI0
aI1
aI1
aI0
aI0
aI0
aI0
aI0
aI0
aI0
aI0
aI0
aI0
aI0
aI0
aI1
aI1
aI1
aI1
aI0
aI0
aI1
aI1
aI0
aI0
aI0
aI0
aI1
aI1
aI1
aI1
aI1
aI0
aI0
aI0
aI0
aI0
aI1
aI0
aI0
aI0
aI1
aI1
aI0
aI0
aI0
aI0
aI0
aI0
aI0
aI0
aI0
aI0
aI0
aI0
aI0
aI0
aI1
aI0
aI0
aI0
aI1
aI1
aI0
aI0
aI0
aI0
aI1
aI1
aI0
aI0
aI0
aI0
aI0
aI0
aI0
aI0
aI1
aI0
aI0
aI0
aI1
aI1
aI0
aI0
aI0
aI0
aI0
aI1
aI0
aI0
aI0
aI0
aI0
aI0
aI0
aI0
aI0
aI0
aI0
aI0
aI1
aI1
aI0
aI1
aI1
aI0
aI0
aI0
aI0
aI0
aI0
aI0
aI1
aI0
aI0
aI0
aI0
aI0
aI0
aI0
aI1
aI1
aI0
aI0
aI1
aI0
aI0
aI0
aI0
aI0
aI0
aI0
aI1
aI0
aI0
aI0
aI0
aI0
aI0
aI0
aI1
aI1
aI0
aI0
aI1
aI0
aI0
aI0
aI0
aI0
aI0
aI0
aI1
aI0
aI0
aI0
aI1
aI1
aI0
aI0
aI1
aI1
aI0
aI0
aI0
aI0
aI0
aI0
aI0
aI0
aI1
aI1
aI1
aI0
aI1
aI0
aI0
aI1
aI0
aI0
aI1
aI1
aI0
aI0
aI0
aI0
aI0
aI1
aI0
aI0
aI0
aI0
aI1
aI0
aI1
aI0
aI0
aI1
aI0
aI0
aI1
aI1
aI0
aI0
aI1
aI0
aI0
aI1
aI0
aI0
aI0
aI0
aI1
aI0
aI1
aI1
aI0
aI0
aI0
aI0
aI1
aI1
aI0
aI0
aI0
aI0
aI0
aI1
aI0
aI0
aI1
aI0
aI0
aI0
aI0
aI0
aI0
aI0
aI0
aI0
aI1
aI1
aI0
aI0
aI0
aI0
aI0
aI0
aI0
aI0
aI0
aI0
aI0
aI0
aI0
aI0
aI0
aI1
aI1
aI0
aI1
aI1
aI0
aI0
aI0
aI0
aI0
aI0
aI0
aI0
aI0
aI0
aI0
aI0
aI0
aI0
aI0
aI0
aI0
aI0
aI1
aI1
aI1
aI1
aI1
aI1
aI1
aI1
aI1
aI1
aI1
aI1
aI1
aI1
aI1
aI1
aI1
aI1
aI1
aI1
aI1
asS'actorSize'
p299
I12
sS'tileSize'
p300
I24
sS'mobOffset'
p301
(isrc.util
Loc
p302
(dp303
S'y'
F-6
sg23
(F-6
F-6
tp304
sS'x'
F-6
sbsS'maxScale'
p305
F2
sS'mobs'
p306
g34
sS'minScale'
p307
F0.050000000000000003
s.