(dp0
S'size'
p1
(I20
I20
tp2
sS'actorNames'
p3
(lp4
S'blip.png'
p5
aS'zombie.png'
p6
aS'soldier.png'
p7
aS'civilian.png'
p8
aS'corpse.png'
p9
asS'wall'
p10
I1
sS'height'
p11
I20
sS'visible'
p12
ccopy_reg
_reconstructor
p13
(cpygame.sprite
Group
p14
c__builtin__
object
p15
Ntp16
Rp17
(dp18
S'spritedict'
p19
(dp20
g13
(csrc.actor
Civilian
p21
g15
Ntp22
Rp23
(dp24
S'loc'
p25
(isrc.util
Loc
p26
(dp27
S'y'
p28
F3715.8988962461976
sg25
(F4380.650318167916
F3715.8988962461976
tp29
sS'x'
p30
F4380.650318167916
sbsS'direction'
p31
F-2.190577161131813
sS'lastLoc'
p32
(isrc.util
Loc
p33
(dp34
g28
F3715.0076312157826
sg25
(F4381.286305456422
F3715.0076312157826
tp35
sg30
F4381.286305456422
sbsS'_Sprite__g'
p36
(dp37
g13
(g14
g15
Ntp38
Rp39
(dp40
g19
(dp41
g13
(g21
g15
Ntp42
Rp43
(dp44
g25
(isrc.util
Loc
p45
(dp46
g28
F3559.037953714829
sg25
(F4063.0819313755633
F3559.037953714829
tp47
sg30
F4063.0819313755633
sbsg31
F-1.3945949590362798
sg32
(isrc.util
Loc
p48
(dp49
g28
F3558.225564368613
sg25
(F4062.9372872356607
F3558.225564368613
tp50
sg30
F4062.9372872356607
sbsg36
(dp51
g39
I0
sg13
(g14
g15
Ntp52
Rp53
(dp54
g19
(dp55
g43
I0
sg13
(csrc.actor
Soldier
p56
g15
Ntp57
Rp58
(dp59
g25
(isrc.util
Loc
p60
(dp61
g28
F3550.6558489182703
sg25
(F4280.179331411921
F3550.6558489182703
tp62
sg30
F4280.179331411921
sbsg31
F0.07799957574000436
sg32
(isrc.util
Loc
p63
(dp64
g28
F3550.7444191037093
sg25
(F4279.04611378447
F3550.7444191037093
tp65
sg30
F4279.04611378447
sbsg36
(dp66
g53
I0
sg13
(g14
g15
Ntp67
Rp68
(dp69
g19
(dp70
g58
I0
ssS'lostsprites'
p71
(lp72
sbI0
sg17
I0
ssS'image'
p73
NsS'_visible'
p74
I1
sS'_layer'
p75
I0
sS'effects'
p76
(lp77
sS'source_rect'
p78
NsS'weapons'
p79
(lp80
g13
(csrc.actor
Rifle
p81
g15
Ntp82
Rp83
(dp84
S'owner'
p85
g58
sS'countdown'
p86
I0
sbag13
(csrc.actor
Punch
p87
g15
Ntp88
Rp89
(dp90
g85
g58
sbasS'dirty'
p91
I1
sS'level'
p92
g13
(csrc.tilemap
Map
p93
g15
Ntp94
Rp95
g0
bsS'speed'
p96
F1.1366735982307814
sS'rect'
p97
cpygame
__rect_constructor
p98
(I395
I326
I12
I12
tp99
Rp100
sS'blendmode'
p101
I4
sbI0
sg13
(g21
g15
Ntp102
Rp103
(dp104
g25
(isrc.util
Loc
p105
(dp106
g28
F3670.9404981162793
sg25
(F4312.716580424254
F3670.9404981162793
tp107
sg30
F4312.716580424254
sbsg31
F1.2873962132949777
sg32
(isrc.util
Loc
p108
(dp109
g28
F3672.0669990249935
sg25
(F4312.388499197351
F3672.0669990249935
tp110
sg30
F4312.388499197351
sbsg36
(dp111
g39
I0
sg53
I0
sg17
I0
sg13
(g14
g15
Ntp112
Rp113
(dp114
g19
(dp115
g23
I0
sg43
I0
sg13
(g21
g15
Ntp116
Rp117
(dp118
g25
(isrc.util
Loc
p119
(dp120
g28
F3653.7237497913225
sg25
(F3983.5825837935777
F3653.7237497913225
tp121
sg30
F3983.5825837935777
sbsg31
F2.152690580828649
sg32
(isrc.util
Loc
p122
(dp123
g28
F3654.5919211127693
sg25
(F3984.153735622457
F3654.5919211127693
tp124
sg30
F3984.153735622457
sbsg36
(dp125
g39
I0
sg53
I0
sg17
I0
sg113
I0
ssg73
Nsg74
I1
sg75
I0
sg76
(lp126
sg78
Nsg79
(lp127
g13
(g87
g15
Ntp128
Rp129
(dp130
g85
g117
sbasg91
I1
sg92
g95
sg96
F1.039199622313004
sg97
g98
(I367
I336
I12
I12
tp131
Rp132
sg101
I4
sbI0
sg13
(g21
g15
Ntp133
Rp134
(dp135
g25
(isrc.util
Loc
p136
(dp137
g28
F3938.934319304639
sg25
(F4135.969927863513
F3938.934319304639
tp138
sg30
F4135.969927863513
sbsg31
F0.49971254167697077
sg32
(isrc.util
Loc
p139
(dp140
g28
F3939.293697363118
sg25
(F4135.311641050553
F3939.293697363118
tp141
sg30
F4135.311641050553
sbsg36
(dp142
g39
I0
sg53
I0
sg17
I0
sg113
I0
ssg73
Nsg74
I1
sg75
I0
sg76
(lp143
sg78
Nsg79
(lp144
g13
(g87
g15
Ntp145
Rp146
(dp147
g85
g134
sbasg91
I1
sg92
g95
sg96
F0.7499960780121532
sg97
g98
(I381
I363
I12
I12
tp148
Rp149
sg101
I4
sbI0
sg13
(g21
g15
Ntp150
Rp151
(dp152
g25
(isrc.util
Loc
p153
(dp154
g28
F3919.0533829944193
sg25
(F4261.595625714068
F3919.0533829944193
tp155
sg30
F4261.595625714068
sbsg31
F-2.2242362312155617
sg32
(isrc.util
Loc
p156
(dp157
g28
F3918.326517967444
sg25
(F4262.152147388109
F3918.326517967444
tp158
sg30
F4262.152147388109
sbsg36
(dp159
g39
I0
sg53
I0
sg17
I0
sg113
I0
ssg73
Nsg74
I1
sg75
I0
sg76
(lp160
sg78
Nsg79
(lp161
g13
(g87
g15
Ntp162
Rp163
(dp164
g85
g151
sbasg91
I1
sg92
g95
sg96
F0.9154502395642722
sg97
g98
(I393
I361
I12
I12
tp165
Rp166
sg101
I4
sbI0
sg13
(g21
g15
Ntp167
Rp168
(dp169
g25
(isrc.util
Loc
p170
(dp171
g28
F511.9999999999996
sg25
(F1871.005220316033
F511.9999999999996
tp172
sg30
F1871.005220316033
sbsg31
F-4.197772790287143e-13
sg32
(isrc.util
Loc
p173
(dp174
g28
F511.9999999999996
sg25
(F1870.9459770053681
F511.9999999999996
tp175
sg30
F1870.9459770053681
sbsg36
(dp176
g39
I0
sg53
I0
sg17
I0
sg113
I0
ssg73
Nsg74
I1
sg75
I0
sg76
(lp177
sg78
Nsg79
(lp178
g13
(g87
g15
Ntp179
Rp180
(dp181
g85
g168
sbasg91
I1
sg92
g95
sg96
F0.059243310664992846
sg97
g98
(I169
I41
I12
I12
tp182
Rp183
sg101
I4
sbI0
sg13
(g21
g15
Ntp184
Rp185
(dp186
g25
(isrc.util
Loc
p187
(dp188
g28
F3595.390298212783
sg25
(F4340.776083733011
F3595.390298212783
tp189
sg30
F4340.776083733011
sbsg31
F-1.9510774868742238
sg32
(isrc.util
Loc
p190
(dp191
g28
F3595.1672389516125
sg25
(F4340.865249168103
F3595.1672389516125
tp192
sg30
F4340.865249168103
sbsg36
(dp193
g39
I0
sg53
I0
sg17
I0
sg113
I0
ssg73
Nsg74
I1
sg75
I0
sg76
(lp194
sg78
Nsg79
(lp195
g13
(g87
g15
Ntp196
Rp197
(dp198
g85
g185
sbasg91
I1
sg92
g95
sg96
F0.24022054202130513
sg97
g98
(I400
I331
I12
I12
tp199
Rp200
sg101
I4
sbI0
sg13
(g21
g15
Ntp201
Rp202
(dp203
g25
(isrc.util
Loc
p204
(dp205
g28
F3476.941237715244
sg25
(F4296.307154810266
F3476.941237715244
tp206
sg30
F4296.307154810266
sbsg31
F-2.3558785050207316
sg32
(isrc.util
Loc
p207
(dp208
g28
F3476.612179994192
sg25
(F4296.636004642281
F3476.612179994192
tp209
sg30
F4296.636004642281
sbsg36
(dp210
g39
I0
sg53
I0
sg17
I0
sg113
I0
ssg73
Nsg74
I1
sg75
I0
sg76
(lp211
sg78
Nsg79
(lp212
g13
(g87
g15
Ntp213
Rp214
(dp215
g85
g202
sbasg91
I1
sg92
g95
sg96
F0.46521091539171117
sg97
g98
(I396
I319
I12
I12
tp216
Rp217
sg101
I4
sbI0
sg13
(g21
g15
Ntp218
Rp219
(dp220
g25
(isrc.util
Loc
p221
(dp222
g28
F3791.0355502046273
sg25
(F4265.736545759797
F3791.0355502046273
tp223
sg30
F4265.736545759797
sbsg31
F-0.35436902951335036
sg32
(isrc.util
Loc
p224
(dp225
g28
F3790.771543088202
sg25
(F4265.022989136813
F3790.771543088202
tp226
sg30
F4265.022989136813
sbsg36
(dp227
g39
I0
sg53
I0
sg17
I0
sg113
I0
ssg73
Nsg74
I1
sg75
I0
sg76
(lp228
sg78
Nsg79
(lp229
g13
(g87
g15
Ntp230
Rp231
(dp232
g85
g219
sbasg91
I1
sg92
g95
sg96
F0.760830343590975
sg97
g98
(I393
I349
I12
I12
tp233
Rp234
sg101
I4
sbI0
sg13
(g21
g15
Ntp235
Rp236
(dp237
g25
(isrc.util
Loc
p238
(dp239
g28
F3581.2867400373116
sg25
(F4404.644355022484
F3581.2867400373116
tp240
sg30
F4404.644355022484
sbsg31
F-0.3881462657608383
sg32
(isrc.util
Loc
p241
(dp242
g28
F3580.827118020178
sg25
(F4403.520281419618
F3580.827118020178
tp243
sg30
F4403.520281419618
sbsg36
(dp244
g39
I0
sg53
I0
sg17
I0
sg113
I0
ssg73
Nsg74
I1
sg75
I0
sg76
(lp245
sg78
Nsg79
(lp246
g13
(g87
g15
Ntp247
Rp248
(dp249
g85
g236
sbasg91
I1
sg92
g95
sg96
F1.2144109120448858
sg97
g98
(I406
I329
I12
I12
tp250
Rp251
sg101
I4
sbI0
sg13
(g21
g15
Ntp252
Rp253
(dp254
g25
(isrc.util
Loc
p255
(dp256
g28
F511.9999999999996
sg25
(F4196.3921622007465
F511.9999999999996
tp257
sg30
F4196.3921622007465
sbsg31
F-3.1415926535893726
sg32
(isrc.util
Loc
p258
(dp259
g28
F511.9999999999996
sg25
(F4196.451307886753
F511.9999999999996
tp260
sg30
F4196.451307886753
sbsg36
(dp261
g39
I0
sg53
I0
sg17
I0
sg113
I0
ssg73
Nsg74
I1
sg75
I0
sg76
(lp262
sg78
Nsg79
(lp263
g13
(g87
g15
Ntp264
Rp265
(dp266
g85
g253
sbasg91
I1
sg92
g95
sg96
F0.0591456860063848
sg97
g98
(I387
I41
I12
I12
tp267
Rp268
sg101
I4
sbI0
sg13
(g21
g15
Ntp269
Rp270
(dp271
g25
(isrc.util
Loc
p272
(dp273
g28
F3818.382789212006
sg25
(F4492.813310930418
F3818.382789212006
tp274
sg30
F4492.813310930418
sbsg31
F2.8581080686896687
sg32
(isrc.util
Loc
p275
(dp276
g28
F3818.5673751015456
sg25
(F4493.446906359323
F3818.5673751015456
tp277
sg30
F4493.446906359323
sbsg36
(dp278
g39
I0
sg53
I0
sg17
I0
sg113
I0
ssg73
Nsg74
I1
sg75
I0
sg76
(lp279
sg78
Nsg79
(lp280
g13
(g87
g15
Ntp281
Rp282
(dp283
g85
g270
sbasg91
I1
sg92
g95
sg96
F0.6599356924323331
sg97
g98
(I415
I351
I12
I12
tp284
Rp285
sg101
I4
sbI0
sg13
(g21
g15
Ntp286
Rp287
(dp288
g25
(isrc.util
Loc
p289
(dp290
g28
F3487.9706273490096
sg25
(F4169.807277618089
F3487.9706273490096
tp291
sg30
F4169.807277618089
sbsg31
F-0.37431664402695697
sg32
(isrc.util
Loc
p292
(dp293
g28
F3487.466476457482
sg25
(F4168.5239204403815
F3487.466476457482
tp294
sg30
F4168.5239204403815
sbsg36
(dp295
g39
I0
sg53
I0
sg17
I0
sg113
I0
ssg73
Nsg74
I1
sg75
I0
sg76
(lp296
sg78
Nsg79
(lp297
g13
(g87
g15
Ntp298
Rp299
(dp300
g85
g287
sbasg91
I1
sg92
g95
sg96
F1.3788305795135003
sg97
g98
(I384
I320
I12
I12
tp301
Rp302
sg101
I4
sbI0
sg13
(g21
g15
Ntp303
Rp304
(dp305
g25
(isrc.util
Loc
p306
(dp307
g28
F3670.816222120613
sg25
(F4109.8680886124985
F3670.816222120613
tp308
sg30
F4109.8680886124985
sbsg31
F-2.773741890944648
sg32
(isrc.util
Loc
p309
(dp310
g28
F3670.52992104513
sg25
(F4110.610970120514
F3670.52992104513
tp311
sg30
F4110.610970120514
sbsg36
(dp312
g39
I0
sg53
I0
sg17
I0
sg113
I0
ssg73
Nsg74
I1
sg75
I0
sg76
(lp313
sg78
Nsg79
(lp314
g13
(g87
g15
Ntp315
Rp316
(dp317
g85
g304
sbasg91
I1
sg92
g95
sg96
F0.79614147032745
sg97
g98
(I379
I338
I12
I12
tp318
Rp319
sg101
I4
sbI0
sg13
(g21
g15
Ntp320
Rp321
(dp322
g25
(isrc.util
Loc
p323
(dp324
g28
F3670.731419672476
sg25
(F4237.383171054154
F3670.731419672476
tp325
sg30
F4237.383171054154
sbsg31
F2.4317699498521375
sg32
(isrc.util
Loc
p326
(dp327
g28
F3671.7306724606387
sg25
(F4238.546147109843
F3671.7306724606387
tp328
sg30
F4238.546147109843
sbsg36
(dp329
g39
I0
sg53
I0
sg17
I0
sg113
I0
ssg73
Nsg74
I1
sg75
I0
sg76
(lp330
sg78
Nsg79
(lp331
g13
(g87
g15
Ntp332
Rp333
(dp334
g85
g321
sbasg91
I1
sg92
g95
sg96
F1.533303440534838
sg97
g98
(I391
I338
I12
I12
tp335
Rp336
sg101
I4
sbI0
sg13
(g21
g15
Ntp337
Rp338
(dp339
g25
(isrc.util
Loc
p340
(dp341
g28
F3472.5854340875117
sg25
(F4381.827070523932
F3472.5854340875117
tp342
sg30
F4381.827070523932
sbsg31
F-1.1280211021774185
sg32
(isrc.util
Loc
p343
(dp344
g28
F3472.094788388711
sg25
(F4381.594418461877
F3472.094788388711
tp345
sg30
F4381.594418461877
sbsg36
(dp346
g39
I0
sg53
I0
sg17
I0
sg113
I0
ssg73
Nsg74
I1
sg75
I0
sg76
(lp347
sg78
Nsg79
(lp348
g13
(g87
g15
Ntp349
Rp350
(dp351
g85
g338
sbasg91
I1
sg92
g95
sg96
F0.5430102979965407
sg97
g98
(I404
I319
I12
I12
tp352
Rp353
sg101
I4
sbI0
sg13
(g21
g15
Ntp354
Rp355
(dp356
g25
(isrc.util
Loc
p357
(dp358
g28
F3432.6366704037555
sg25
(F4234.785720738888
F3432.6366704037555
tp359
sg30
F4234.785720738888
sbsg31
F0.18888250642824436
sg32
(isrc.util
Loc
p360
(dp361
g28
F3432.8330207479084
sg25
(F4233.75857567663
F3432.8330207479084
tp362
sg30
F4233.75857567663
sbsg36
(dp363
g39
I0
sg53
I0
sg17
I0
sg113
I0
ssg73
Nsg74
I1
sg75
I0
sg76
(lp364
sg78
Nsg79
(lp365
g13
(g87
g15
Ntp366
Rp367
(dp368
g85
g355
sbasg91
I1
sg92
g95
sg96
F1.0457439631998642
sg97
g98
(I391
I315
I12
I12
tp369
Rp370
sg101
I4
sbI0
sg13
(g21
g15
Ntp371
Rp372
(dp373
g25
(isrc.util
Loc
p374
(dp375
g28
F3589.932346880026
sg25
(F4213.223187413498
F3589.932346880026
tp376
sg30
F4213.223187413498
sbsg31
F2.600803204230353
sg32
(isrc.util
Loc
p377
(dp378
g28
F3590.297405788921
sg25
(F4213.831109041667
F3590.297405788921
tp379
sg30
F4213.831109041667
sbsg36
(dp380
g39
I0
sg53
I0
sg17
I0
sg113
I0
ssg73
Nsg74
I1
sg75
I0
sg76
(lp381
sg78
Nsg79
(lp382
g13
(g87
g15
Ntp383
Rp384
(dp385
g85
g372
sbasg91
I1
sg92
g95
sg96
F0.7091098031754796
sg97
g98
(I388
I330
I12
I12
tp386
Rp387
sg101
I4
sbI0
sg13
(g21
g15
Ntp388
Rp389
(dp390
g25
(isrc.util
Loc
p391
(dp392
g28
F511.9999999999996
sg25
(F4068.032272658535
F511.9999999999996
tp393
sg30
F4068.032272658535
sbsg31
F-4.2066380991196676e-13
sg32
(isrc.util
Loc
p394
(dp395
g28
F511.9999999999996
sg25
(F4067.973154200599
F511.9999999999996
tp396
sg30
F4067.973154200599
sbsg36
(dp397
g39
I0
sg53
I0
sg17
I0
sg113
I0
ssg73
Nsg74
I1
sg75
I0
sg76
(lp398
sg78
Nsg79
(lp399
g13
(g87
g15
Ntp400
Rp401
(dp402
g85
g389
sbasg91
I1
sg92
g95
sg96
F0.0591184579362981
sg97
g98
(I375
I41
I12
I12
tp403
Rp404
sg101
I4
sbI0
sg13
(g21
g15
Ntp405
Rp406
(dp407
g25
(isrc.util
Loc
p408
(dp409
g28
F3576.9530537273768
sg25
(F4151.347155015883
F3576.9530537273768
tp410
sg30
F4151.347155015883
sbsg31
F2.7325912891617694
sg32
(isrc.util
Loc
p411
(dp412
g28
F3577.0913004970585
sg25
(F4151.666104246321
F3577.0913004970585
tp413
sg30
F4151.666104246321
sbsg36
(dp414
g39
I0
sg53
I0
sg17
I0
sg113
I0
ssg73
Nsg74
I1
sg75
I0
sg76
(lp415
sg78
Nsg79
(lp416
g13
(g87
g15
Ntp417
Rp418
(dp419
g85
g406
sbasg91
I1
sg92
g95
sg96
F0.34762160595162034
sg97
g98
(I383
I329
I12
I12
tp420
Rp421
sg101
I4
sbI0
sg13
(g21
g15
Ntp422
Rp423
(dp424
g25
(isrc.util
Loc
p425
(dp426
g28
F3612.754673316862
sg25
(F4527.564076132102
F3612.754673316862
tp427
sg30
F4527.564076132102
sbsg31
F-0.8270416867067516
sg32
(isrc.util
Loc
p428
(dp429
g28
F3612.181463010462
sg25
(F4527.036723649542
F3612.181463010462
tp430
sg30
F4527.036723649542
sbsg36
(dp431
g39
I0
sg53
I0
sg17
I0
sg113
I0
ssg73
Nsg74
I1
sg75
I0
sg76
(lp432
sg78
Nsg79
(lp433
g13
(g87
g15
Ntp434
Rp435
(dp436
g85
g423
sbasg91
I1
sg92
g95
sg96
F0.778890683103496
sg97
g98
(I418
I332
I12
I12
tp437
Rp438
sg101
I4
sbI0
sg13
(g21
g15
Ntp439
Rp440
(dp441
g25
(isrc.util
Loc
p442
(dp443
g28
F4036.744212517121
sg25
(F4219.4405416603295
F4036.744212517121
tp444
sg30
F4219.4405416603295
sbsg31
F-0.3235312777409781
sg32
(isrc.util
Loc
p445
(dp446
g28
F4036.5013856665046
sg25
(F4218.716362210225
F4036.5013856665046
tp447
sg30
F4218.716362210225
sbsg36
(dp448
g39
I0
sg53
I0
sg17
I0
sg113
I0
ssg73
Nsg74
I1
sg75
I0
sg76
(lp449
sg78
Nsg79
(lp450
g13
(g87
g15
Ntp451
Rp452
(dp453
g85
g440
sbasg91
I1
sg92
g95
sg96
F0.7638067526103912
sg97
g98
(I389
I372
I12
I12
tp454
Rp455
sg101
I4
sbI0
sg13
(g21
g15
Ntp456
Rp457
(dp458
g25
(isrc.util
Loc
p459
(dp460
g28
F3775.710609343189
sg25
(F3944.5419904435144
F3775.710609343189
tp461
sg30
F3944.5419904435144
sbsg31
F-2.999770497997267
sg32
(isrc.util
Loc
p462
(dp463
g28
F3775.662190518802
sg25
(F3944.8811036354455
F3775.662190518802
tp464
sg30
F3944.8811036354455
sbsg36
(dp465
g39
I0
sg53
I0
sg17
I0
sg113
I0
ssg73
Nsg74
I1
sg75
I0
sg76
(lp466
sg78
Nsg79
(lp467
g13
(g87
g15
Ntp468
Rp469
(dp470
g85
g457
sbasg91
I1
sg92
g95
sg96
F0.34255238941897653
sg97
g98
(I363
I347
I12
I12
tp471
Rp472
sg101
I4
sbI0
sg13
(g21
g15
Ntp473
Rp474
(dp475
g25
(isrc.util
Loc
p476
(dp477
g28
F3942.8924468990645
sg25
(F4449.481409728477
F3942.8924468990645
tp478
sg30
F4449.481409728477
sbsg31
F0.05071122061695322
sg32
(isrc.util
Loc
p479
(dp480
g28
F3942.911218389579
sg25
(F4449.111562652602
F3942.911218389579
tp481
sg30
F4449.111562652602
sbsg36
(dp482
g39
I0
sg53
I0
sg17
I0
sg113
I0
ssg73
Nsg74
I1
sg75
I0
sg76
(lp483
sg78
Nsg79
(lp484
g13
(g87
g15
Ntp485
Rp486
(dp487
g85
g474
sbasg91
I1
sg92
g95
sg96
F0.370323140499706
sg97
g98
(I411
I363
I12
I12
tp488
Rp489
sg101
I4
sbI0
sg13
(g21
g15
Ntp490
Rp491
(dp492
g25
(isrc.util
Loc
p493
(dp494
g28
F3871.8107586634173
sg25
(F4029.01568465804
F3871.8107586634173
tp495
sg30
F4029.01568465804
sbsg31
F0.42606657842701157
sg32
(isrc.util
Loc
p496
(dp497
g28
F3871.883312665146
sg25
(F4028.855827892384
F3871.883312665146
tp498
sg30
F4028.855827892384
sbsg36
(dp499
g39
I0
sg53
I0
sg17
I0
sg113
I0
ssg73
Nsg74
I1
sg75
I0
sg76
(lp500
sg78
Nsg79
(lp501
g13
(g87
g15
Ntp502
Rp503
(dp504
g85
g491
sbasg91
I1
sg92
g95
sg96
F0.17555132780141447
sg97
g98
(I371
I356
I12
I12
tp505
Rp506
sg101
I4
sbI0
sg13
(g21
g15
Ntp507
Rp508
(dp509
g25
(isrc.util
Loc
p510
(dp511
g28
F3766.65047626315
sg25
(F4322.8624638743095
F3766.65047626315
tp512
sg30
F4322.8624638743095
sbsg31
F2.617664099696587
sg32
(isrc.util
Loc
p513
(dp514
g28
F3767.11100369889
sg25
(F4323.659513650254
F3767.11100369889
tp515
sg30
F4323.659513650254
sbsg36
(dp516
g39
I0
sg53
I0
sg17
I0
sg113
I0
ssg73
Nsg74
I1
sg75
I0
sg76
(lp517
sg78
Nsg79
(lp518
g13
(g87
g15
Ntp519
Rp520
(dp521
g85
g508
sbasg91
I1
sg92
g95
sg96
F0.9205291219736723
sg97
g98
(I399
I347
I12
I12
tp522
Rp523
sg101
I4
sbI0
sg13
(g21
g15
Ntp524
Rp525
(dp526
g25
(isrc.util
Loc
p527
(dp528
g28
F3903.4417227127283
sg25
(F4328.1478191202295
F3903.4417227127283
tp529
sg30
F4328.1478191202295
sbsg31
F-1.276940201235416
sg32
(isrc.util
Loc
p530
(dp531
g28
F3902.7672033121253
sg25
(F4327.943697975035
F3902.7672033121253
tp532
sg30
F4327.943697975035
sbsg36
(dp533
g39
I0
sg53
I0
sg17
I0
sg113
I0
ssg73
Nsg74
I1
sg75
I0
sg76
(lp534
sg78
Nsg79
(lp535
g13
(g87
g15
Ntp536
Rp537
(dp538
g85
g525
sbasg91
I1
sg92
g95
sg96
F0.7047282197450297
sg97
g98
(I399
I359
I12
I12
tp539
Rp540
sg101
I4
sbI0
sg13
(g21
g15
Ntp541
Rp542
(dp543
g25
(isrc.util
Loc
p544
(dp545
g28
F3704.9176352180043
sg25
(F4437.433985907049
F3704.9176352180043
tp546
sg30
F4437.433985907049
sbsg31
F-0.9410903920348698
sg32
(isrc.util
Loc
p547
(dp548
g28
F3703.4405569190835
sg25
(F4436.357691485846
F3703.4405569190835
tp549
sg30
F4436.357691485846
sbsg36
(dp550
g39
I0
sg53
I0
sg17
I0
sg113
I0
ssg73
Nsg74
I1
sg75
I0
sg76
(lp551
sg78
Nsg79
(lp552
g13
(g87
g15
Ntp553
Rp554
(dp555
g85
g542
sbasg91
I1
sg92
g95
sg96
F1.8276131927342134
sg97
g98
(I410
I341
I12
I12
tp556
Rp557
sg101
I4
sbI0
sg13
(g21
g15
Ntp558
Rp559
(dp560
g25
(isrc.util
Loc
p561
(dp562
g28
F3797.77888256368
sg25
(F4617.9883216349635
F3797.77888256368
tp563
sg30
F4617.9883216349635
sbsg31
F0.07171502398599502
sg32
(isrc.util
Loc
p564
(dp565
g28
F3797.8013057684566
sg25
(F4617.676186894366
F3797.8013057684566
tp566
sg30
F4617.676186894366
sbsg36
(dp567
g39
I0
sg53
I0
sg17
I0
sg113
I0
ssg73
Nsg74
I1
sg75
I0
sg76
(lp568
sg78
Nsg79
(lp569
g13
(g87
g15
Ntp570
Rp571
(dp572
g85
g559
sbasg91
I1
sg92
g95
sg96
F0.3129391257105007
sg97
g98
(I426
I350
I12
I12
tp573
Rp574
sg101
I4
sbI0
sg13
(g21
g15
Ntp575
Rp576
(dp577
g25
(isrc.util
Loc
p578
(dp579
g28
F3917.7350738070263
sg25
(F4574.211167052338
F3917.7350738070263
tp580
sg30
F4574.211167052338
sbsg31
F0.6501320933899709
sg32
(isrc.util
Loc
p581
(dp582
g28
F3918.1237807750076
sg25
(F4573.699988201086
F3918.1237807750076
tp583
sg30
F4573.699988201086
sbsg36
(dp584
g39
I0
sg53
I0
sg17
I0
sg113
I0
ssg73
Nsg74
I1
sg75
I0
sg76
(lp585
sg78
Nsg79
(lp586
g13
(g87
g15
Ntp587
Rp588
(dp589
g85
g576
sbasg91
I1
sg92
g95
sg96
F0.6421813800828365
sg97
g98
(I422
I361
I12
I12
tp590
Rp591
sg101
I4
sbI0
sg13
(g21
g15
Ntp592
Rp593
(dp594
g25
(isrc.util
Loc
p595
(dp596
g28
F3732.252109873064
sg25
(F4510.642555553633
F3732.252109873064
tp597
sg30
F4510.642555553633
sbsg31
F-1.2126799768818453
sg32
(isrc.util
Loc
p598
(dp599
g28
F3732.117866123292
sg25
(F4510.5923143136015
F3732.117866123292
tp600
sg30
F4510.5923143136015
sbsg36
(dp601
g39
I0
sg53
I0
sg17
I0
sg113
I0
ssg73
Nsg74
I1
sg75
I0
sg76
(lp602
sg78
Nsg79
(lp603
g13
(g87
g15
Ntp604
Rp605
(dp606
g85
g593
sbasg91
I1
sg92
g95
sg96
F0.1433372476113345
sg97
g98
(I416
I343
I12
I12
tp607
Rp608
sg101
I4
sbI0
sg103
I0
sg13
(g21
g15
Ntp609
Rp610
(dp611
g25
(isrc.util
Loc
p612
(dp613
g28
F3749.6828167524936
sg25
(F4069.4195819794722
F3749.6828167524936
tp614
sg30
F4069.4195819794722
sbsg31
F0.19919362752679282
sg32
(isrc.util
Loc
p615
(dp616
g28
F3749.7561773316206
sg25
(F4069.0561781184674
F3749.7561773316206
tp617
sg30
F4069.0561781184674
sbsg36
(dp618
g39
I0
sg53
I0
sg17
I0
sg113
I0
ssg73
Nsg74
I1
sg75
I0
sg76
(lp619
sg78
Nsg79
(lp620
g13
(g87
g15
Ntp621
Rp622
(dp623
g85
g610
sbasg91
I1
sg92
g95
sg96
F0.3707345961237239
sg97
g98
(I375
I345
I12
I12
tp624
Rp625
sg101
I4
sbI0
sg13
(g21
g15
Ntp626
Rp627
(dp628
g25
(isrc.util
Loc
p629
(dp630
g28
F3418.6957422247565
sg25
(F4573.19710266239
F3418.6957422247565
tp631
sg30
F4573.19710266239
sbsg31
F-2.0710624347351625
sg32
(isrc.util
Loc
p632
(dp633
g28
F3418.283732416322
sg25
(F4573.422327027752
F3418.283732416322
tp634
sg30
F4573.422327027752
sbsg36
(dp635
g39
I0
sg53
I0
sg17
I0
sg113
I0
ssg73
Nsg74
I1
sg75
I0
sg76
(lp636
sg78
Nsg79
(lp637
g13
(g87
g15
Ntp638
Rp639
(dp640
g85
g627
sg86
I0
sbasg91
I1
sg92
g95
sg96
F0.4695509525054376
sg97
g98
(I422
I314
I12
I12
tp641
Rp642
sg101
I4
sbI0
sg13
(g21
g15
Ntp643
Rp644
(dp645
g25
(isrc.util
Loc
p646
(dp647
g28
F3542.0634560320696
sg25
(F4608.8213491225515
F3542.0634560320696
tp648
sg30
F4608.8213491225515
sbsg31
F2.869856285107146
sg32
(isrc.util
Loc
p649
(dp650
g28
F3542.186061643023
sg25
(F4609.261381832638
F3542.186061643023
tp651
sg30
F4609.261381832638
sbsg36
(dp652
g39
I0
sg53
I0
sg17
I0
sg113
I0
ssg73
Nsg74
I1
sg75
I0
sg76
(lp653
sg78
Nsg79
(lp654
g13
(g87
g15
Ntp655
Rp656
(dp657
g85
g644
sbasg91
I1
sg92
g95
sg96
F0.4567941787973843
sg97
g98
(I426
I326
I12
I12
tp658
Rp659
sg101
I4
sbI0
sg13
(g21
g15
Ntp660
Rp661
(dp662
g25
(isrc.util
Loc
p663
(dp664
g28
F3615.0109148047195
sg25
(F4460.678539873495
F3615.0109148047195
tp665
sg30
F4460.678539873495
sbsg31
F-1.8982888758326315
sg32
(isrc.util
Loc
p666
(dp667
g28
F3614.7246688686146
sg25
(F4460.775784955183
F3614.7246688686146
tp668
sg30
F4460.775784955183
sbsg36
(dp669
g39
I0
sg53
I0
sg17
I0
sg113
I0
ssg73
Nsg74
I1
sg75
I0
sg76
(lp670
sg78
Nsg79
(lp671
g13
(g87
g15
Ntp672
Rp673
(dp674
g85
g661
sbasg91
I1
sg92
g95
sg96
F0.3023133173534112
sg97
g98
(I412
I332
I12
I12
tp675
Rp676
sg101
I4
sbI0
sg13
(g21
g15
Ntp677
Rp678
(dp679
g25
(isrc.util
Loc
p680
(dp681
g28
F3840.411135003312
sg25
(F4216.718865808522
F3840.411135003312
tp682
sg30
F4216.718865808522
sbsg31
F-0.27107855536649317
sg32
(isrc.util
Loc
p683
(dp684
g28
F3840.2138183797574
sg25
(F4216.008888578574
F3840.2138183797574
tp685
sg30
F4216.008888578574
sbsg36
(dp686
g39
I0
sg53
I0
sg17
I0
sg113
I0
ssg73
Nsg74
I1
sg75
I0
sg76
(lp687
sg78
Nsg79
(lp688
g13
(g87
g15
Ntp689
Rp690
(dp691
g85
g678
sbasg91
I1
sg92
g95
sg96
F0.7368863663932914
sg97
g98
(I389
I354
I12
I12
tp692
Rp693
sg101
I4
sbI0
sg13
(g21
g15
Ntp694
Rp695
(dp696
g25
(isrc.util
Loc
p697
(dp698
g28
F3368.935458330611
sg25
(F4456.22241062113
F3368.935458330611
tp699
sg30
F4456.22241062113
sbsg31
F-1.2804096045197289
sg32
(isrc.util
Loc
p700
(dp701
g28
F3367.4172204399915
sg25
(F4455.768709526662
F3367.4172204399915
tp702
sg30
F4455.768709526662
sbsg36
(dp703
g39
I0
sg53
I0
sg17
I0
sg113
I0
ssg73
Nsg74
I1
sg75
I0
sg76
(lp704
sg78
Nsg79
(lp705
g13
(g87
g15
Ntp706
Rp707
(dp708
g85
g695
sg86
I0
sbasg91
I1
sg92
g95
sg96
F1.5845791162430636
sg97
g98
(I411
I309
I12
I12
tp709
Rp710
sg101
I4
sbI0
sg13
(g21
g15
Ntp711
Rp712
(dp713
g25
(isrc.util
Loc
p714
(dp715
g28
F3811.0509936358894
sg25
(F4139.254369001812
F3811.0509936358894
tp716
sg30
F4139.254369001812
sbsg31
F2.125114788867436
sg32
(isrc.util
Loc
p717
(dp718
g28
F3811.520025644999
sg25
(F4139.544729264733
F3811.520025644999
tp719
sg30
F4139.544729264733
sbsg36
(dp720
g39
I0
sg53
I0
sg17
I0
sg113
I0
ssg73
Nsg74
I1
sg75
I0
sg76
(lp721
sg78
Nsg79
(lp722
g13
(g87
g15
Ntp723
Rp724
(dp725
g85
g712
sbasg91
I1
sg92
g95
sg96
F0.5516340343496984
sg97
g98
(I382
I351
I12
I12
tp726
Rp727
sg101
I4
sbI0
sg13
(g21
g15
Ntp728
Rp729
(dp730
g25
(isrc.util
Loc
p731
(dp732
g28
F3355.8955318293292
sg25
(F4335.821393709979
F3355.8955318293292
tp733
sg30
F4335.821393709979
sbsg31
F-1.0695338222205915
sg32
(isrc.util
Loc
p734
(dp735
g28
F3354.654110248657
sg25
(F4335.141165548253
F3354.654110248657
tp736
sg30
F4335.141165548253
sbsg36
(dp737
g39
I0
sg53
I0
sg17
I0
sg113
I0
ssg73
Nsg74
I1
sg75
I0
sg76
(lp738
sg78
Nsg79
(lp739
g13
(g87
g15
Ntp740
Rp741
(dp742
g85
g729
sbasg91
I1
sg92
g95
sg96
F1.415569812111659
sg97
g98
(I400
I308
I12
I12
tp743
Rp744
sg101
I4
sbI0
sg13
(g21
g15
Ntp745
Rp746
(dp747
g25
(isrc.util
Loc
p748
(dp749
g28
F511.9999999999996
sg25
(F1999.576978064392
F511.9999999999996
tp750
sg30
F1999.576978064392
sbsg31
F-3.1415926535893735
sg32
(isrc.util
Loc
p751
(dp752
g28
F511.9999999999996
sg25
(F1999.6361941020448
F511.9999999999996
tp753
sg30
F1999.6361941020448
sbsg36
(dp754
g39
I0
sg53
I0
sg17
I0
sg113
I0
ssg73
Nsg74
I1
sg75
I0
sg76
(lp755
sg78
Nsg79
(lp756
g13
(g87
g15
Ntp757
Rp758
(dp759
g85
g746
sbasg91
I1
sg92
g95
sg96
F0.059216037652811145
sg97
g98
(I181
I41
I12
I12
tp760
Rp761
sg101
I4
sbI0
sg13
(g21
g15
Ntp762
Rp763
(dp764
g25
(isrc.util
Loc
p765
(dp766
g28
F3843.1083713731664
sg25
(F4366.931992372468
F3843.1083713731664
tp767
sg30
F4366.931992372468
sbsg31
F-2.7718567029723316
sg32
(isrc.util
Loc
p768
(dp769
g28
F3842.9691957138975
sg25
(F4367.291100297494
F3842.9691957138975
tp770
sg30
F4367.291100297494
sbsg36
(dp771
g39
I0
sg53
I0
sg17
I0
sg113
I0
ssg73
Nsg74
I1
sg75
I0
sg76
(lp772
sg78
Nsg79
(lp773
g13
(g87
g15
Ntp774
Rp775
(dp776
g85
g763
sbasg91
I1
sg92
g95
sg96
F0.3851342180980492
sg97
g98
(I403
I354
I12
I12
tp777
Rp778
sg101
I4
sbI0
sg13
(g21
g15
Ntp779
Rp780
(dp781
g25
(isrc.util
Loc
p782
(dp783
g28
F3491.6858197074384
sg25
(F4491.734985144562
F3491.6858197074384
tp784
sg30
F4491.734985144562
sbsg31
F-1.387874568295229
sg32
(isrc.util
Loc
p785
(dp786
g28
F3490.575794067751
sg25
(F4491.529641890242
F3490.575794067751
tp787
sg30
F4491.529641890242
sbsg36
(dp788
g39
I0
sg53
I0
sg17
I0
sg113
I0
ssg73
Nsg74
I1
sg75
I0
sg76
(lp789
sg78
Nsg79
(lp790
g13
(g87
g15
Ntp791
Rp792
(dp793
g85
g780
sbasg91
I1
sg92
g95
sg96
F1.128859058013589
sg97
g98
(I415
I321
I12
I12
tp794
Rp795
sg101
I4
sbI0
sg13
(g21
g15
Ntp796
Rp797
(dp798
g25
(isrc.util
Loc
p799
(dp800
g28
F3831.7110161355145
sg25
(F4433.0965590635315
F3831.7110161355145
tp801
sg30
F4433.0965590635315
sbsg31
F2.7027254615147513
sg32
(isrc.util
Loc
p802
(dp803
g28
F3832.0268010880313
sg25
(F4433.769304504946
F3832.0268010880313
tp804
sg30
F4433.769304504946
sbsg36
(dp805
g39
I0
sg53
I0
sg17
I0
sg113
I0
ssg73
Nsg74
I1
sg75
I0
sg76
(lp806
sg78
Nsg79
(lp807
g13
(g87
g15
Ntp808
Rp809
(dp810
g85
g797
sbasg91
I1
sg92
g95
sg96
F0.7431733076348588
sg97
g98
(I409
I353
I12
I12
tp811
Rp812
sg101
I4
sbI0
sg13
(g21
g15
Ntp813
Rp814
(dp815
g25
(isrc.util
Loc
p816
(dp817
g28
F3715.5365360675914
sg25
(F4193.1885149983955
F3715.5365360675914
tp818
sg30
F4193.1885149983955
sbsg31
F-0.7825958366147943
sg32
(isrc.util
Loc
p819
(dp820
g28
F3714.729778809518
sg25
(F4192.377223426882
F3714.729778809518
tp821
sg30
F4192.377223426882
sbsg36
(dp822
g39
I0
sg53
I0
sg17
I0
sg113
I0
ssg73
Nsg74
I1
sg75
I0
sg76
(lp823
sg78
Nsg79
(lp824
g13
(g87
g15
Ntp825
Rp826
(dp827
g85
g814
sbasg91
I1
sg92
g95
sg96
F1.1441377921663667
sg97
g98
(I387
I342
I12
I12
tp828
Rp829
sg101
I4
sbI0
sg13
(g21
g15
Ntp830
Rp831
(dp832
g25
(isrc.util
Loc
p833
(dp834
g28
F4017.2980234582146
sg25
(F4346.522281020048
F4017.2980234582146
tp835
sg30
F4346.522281020048
sbsg31
F0.4132660931049036
sg32
(isrc.util
Loc
p836
(dp837
g28
F4017.7539596280467
sg25
(F4345.482564777255
F4017.7539596280467
tp838
sg30
F4345.482564777255
sbsg36
(dp839
g39
I0
sg53
I0
sg17
I0
sg113
I0
ssg73
Nsg74
I1
sg75
I0
sg76
(lp840
sg78
Nsg79
(lp841
g13
(g87
g15
Ntp842
Rp843
(dp844
g85
g831
sbasg91
I1
sg92
g95
sg96
F1.1352918816270898
sg97
g98
(I401
I370
I12
I12
tp845
Rp846
sg101
I4
sbI0
sg13
(g21
g15
Ntp847
Rp848
(dp849
g25
(isrc.util
Loc
p850
(dp851
g28
F3669.992958523178
sg25
(F4617.90679205069
F3669.992958523178
tp852
sg30
F4617.90679205069
sbsg31
F1.5901586645819612
sg32
(isrc.util
Loc
p853
(dp854
g28
F3670.7739528191846
sg25
(F4617.921915816073
F3670.7739528191846
tp855
sg30
F4617.921915816073
sbsg36
(dp856
g39
I0
sg53
I0
sg17
I0
sg113
I0
ssg73
Nsg74
I1
sg75
I0
sg76
(lp857
sg78
Nsg79
(lp858
g13
(g87
g15
Ntp859
Rp860
(dp861
g85
g848
sbasg91
I1
sg92
g95
sg96
F0.7811407163080506
sg97
g98
(I426
I338
I12
I12
tp862
Rp863
sg101
I4
sbI0
ssg71
(lp864
sbI0
ssg73
Nsg74
I1
sg75
I0
sg76
(lp865
sg78
Nsg79
(lp866
g13
(g87
g15
Ntp867
Rp868
(dp869
g85
g103
sbasg91
I1
sg92
g95
sg96
F1.1733037069658947
sg97
g98
(I398
I338
I12
I12
tp870
Rp871
sg101
I4
sbI0
sg117
I0
sg151
I0
sg593
I0
sg168
I0
sg202
I0
sg576
I0
sg219
I0
sg253
I0
sg559
I0
sg270
I0
sg287
I0
sg763
I0
sg304
I0
sg746
I0
sg321
I0
sg338
I0
sg355
I0
sg389
I0
sg712
I0
sg406
I0
sg423
I0
sg457
I0
sg474
I0
sg491
I0
sg508
I0
sg678
I0
sg525
I0
sg542
I0
sg236
I0
sg797
I0
sg610
I0
sg134
I0
sg13
(csrc.actor
Zombie
p872
g15
Ntp873
Rp874
(dp875
g25
(isrc.util
Loc
p876
(dp877
g28
F2482.0255689815485
sg25
(F2571.212588155055
F2482.0255689815485
tp878
sg30
F2571.212588155055
sbsg31
F-5.387799662108613
sg32
(isrc.util
Loc
p879
(dp880
g28
F2482.3448314817483
sg25
(F2570.956827297616
F2482.3448314817483
tp881
sg30
F2570.956827297616
sbsg36
(dp882
g13
(g14
g15
Ntp883
Rp884
(dp885
g19
(dp886
g13
(g872
g15
Ntp887
Rp888
(dp889
g25
(isrc.util
Loc
p890
(dp891
g28
F3757.0085032133375
sg25
(F256.06679166551277
F3757.0085032133375
tp892
sg30
F256.06679166551277
sbsg31
F3.5490029862542776
sg32
(isrc.util
Loc
p893
(dp894
g28
F3755.3685140677812
sg25
(F256.06679166551277
F3755.3685140677812
tp895
sg30
F256.06679166551277
sbsg36
(dp896
g884
I0
sg53
I0
sg17
I0
ssS'targetDistance'
p897
F1000000000000000.0
sg73
Nsg74
I1
sg75
I0
sg76
(lp898
sg78
Nsg79
(lp899
g13
(csrc.actor
Bite
p900
g15
Ntp901
Rp902
(dp903
g85
g888
sbasg91
I1
sS'target'
p904
Nsg92
g95
sg96
F1.6399891455563558
sg97
g98
(I18
I346
I12
I12
tp905
Rp906
sg101
I4
sbI0
sg13
(g872
g15
Ntp907
Rp908
(dp909
g25
(isrc.util
Loc
p910
(dp911
g28
F2238.5825638185697
sg25
(F3283.700247090739
F2238.5825638185697
tp912
sg30
F3283.700247090739
sbsg31
F-0.06991563030529485
sg32
(isrc.util
Loc
p913
(dp914
g28
F2238.4761152834963
sg25
(F3282.1802002717122
F2238.4761152834963
tp915
sg30
F3282.1802002717122
sbsg36
(dp916
g884
I0
sg53
I0
sg17
I0
ssg897
F1000000000000000.0
sg73
Nsg74
I1
sg75
I0
sg76
(lp917
sg78
Nsg79
(lp918
g13
(g900
g15
Ntp919
Rp920
(dp921
g85
g908
sbasg91
I1
sg904
Nsg92
g95
sg96
F1.5237695438134196
sg97
g98
(I301
I203
I12
I12
tp922
Rp923
sg101
I4
sbI0
sg874
I0
ssg71
(lp924
sbI0
sg53
I0
sg17
I0
ssg897
F1000000000000000.0
sg73
Nsg74
I1
sg75
I0
sg76
(lp925
sg78
Nsg79
(lp926
g13
(g900
g15
Ntp927
Rp928
(dp929
g85
g874
sg86
I0
sbasS'health'
p930
F8.0
sg91
I1
sg904
Nsg92
g95
sg96
F0.40907476117649577
sg97
g98
(I235
I226
I12
I12
tp931
Rp932
sg101
I4
sbI0
sg23
I0
sg814
I0
sg627
I0
sg644
I0
sg661
I0
sg888
I0
sg695
I0
sg372
I0
sg908
I0
sg729
I0
sg780
I0
sg440
I0
sg185
I0
sg831
I0
sg848
I0
ssg71
(lp933
sbI0
sg17
I0
sg113
I0
ssg73
Nsg74
I1
sg75
I0
sg76
(lp934
sg78
Nsg79
(lp935
g13
(g87
g15
Ntp936
Rp937
(dp938
g85
g43
sbasg91
I1
sg92
g95
sg96
F0.8251656664292649
sg97
g98
(I374
I327
I12
I12
tp939
Rp940
sg101
I4
sbI0
sg103
I0
sg117
I0
sg151
I0
sg593
I0
sg168
I0
sg202
I0
sg576
I0
sg219
I0
sg253
I0
sg559
I0
sg270
I0
sg287
I0
sg763
I0
sg304
I0
sg746
I0
sg321
I0
sg338
I0
sg355
I0
sg389
I0
sg712
I0
sg406
I0
sg423
I0
sg457
I0
sg474
I0
sg491
I0
sg508
I0
sg678
I0
sg525
I0
sg542
I0
sg236
I0
sg797
I0
sg610
I0
sg134
I0
sg23
I0
sg814
I0
sg627
I0
sg644
I0
sg661
I0
sg695
I0
sg372
I0
sg729
I0
sg780
I0
sg440
I0
sg185
I0
sg831
I0
sg848
I0
ssg71
(lp941
sbI0
sg53
I0
sg17
I0
sg113
I0
ssg73
Nsg74
I1
sg75
I0
sg76
(lp942
sg78
Nsg79
(lp943
g13
(g87
g15
Ntp944
Rp945
(dp946
g85
g23
sbasg91
I1
sg92
g95
sg96
F1.094912410004505
sg97
g98
(I404
I342
I12
I12
tp947
Rp948
sg101
I4
sbg98
(I404
I342
I12
I12
tp949
Rp950
sg43
g98
(I374
I327
I12
I12
tp951
Rp952
sg58
g98
(I395
I326
I12
I12
tp953
Rp954
sg117
g98
(I367
I336
I12
I12
tp955
Rp956
sg134
g98
(I381
I363
I12
I12
tp957
Rp958
sg151
g98
(I393
I361
I12
I12
tp959
Rp960
sg168
g98
(I169
I41
I12
I12
tp961
Rp962
sg202
g98
(I396
I319
I12
I12
tp963
Rp964
sg219
g98
(I393
I349
I12
I12
tp965
Rp966
sg236
g98
(I406
I329
I12
I12
tp967
Rp968
sg253
g98
(I387
I41
I12
I12
tp969
Rp970
sg270
g98
(I415
I351
I12
I12
tp971
Rp972
sg287
g98
(I384
I320
I12
I12
tp973
Rp974
sg304
g98
(I379
I338
I12
I12
tp975
Rp976
sg321
g98
(I391
I338
I12
I12
tp977
Rp978
sg338
g98
(I404
I319
I12
I12
tp979
Rp980
sg355
g98
(I391
I315
I12
I12
tp981
Rp982
sg372
g98
(I388
I330
I12
I12
tp983
Rp984
sg389
g98
(I375
I41
I12
I12
tp985
Rp986
sg406
g98
(I383
I329
I12
I12
tp987
Rp988
sg423
g98
(I418
I332
I12
I12
tp989
Rp990
sg440
g98
(I389
I372
I12
I12
tp991
Rp992
sg457
g98
(I363
I347
I12
I12
tp993
Rp994
sg474
g98
(I411
I363
I12
I12
tp995
Rp996
sg491
g98
(I371
I356
I12
I12
tp997
Rp998
sg508
g98
(I399
I347
I12
I12
tp999
Rp1000
sg525
g98
(I399
I359
I12
I12
tp1001
Rp1002
sg542
g98
(I410
I341
I12
I12
tp1003
Rp1004
sg559
g98
(I426
I350
I12
I12
tp1005
Rp1006
sg576
g98
(I422
I361
I12
I12
tp1007
Rp1008
sg593
g98
(I416
I343
I12
I12
tp1009
Rp1010
sg874
g98
(I235
I226
I12
I12
tp1011
Rp1012
sg103
g98
(I398
I338
I12
I12
tp1013
Rp1014
sg610
g98
(I375
I345
I12
I12
tp1015
Rp1016
sg627
g98
(I422
I314
I12
I12
tp1017
Rp1018
sg644
g98
(I426
I326
I12
I12
tp1019
Rp1020
sg661
g98
(I412
I332
I12
I12
tp1021
Rp1022
sg678
g98
(I389
I354
I12
I12
tp1023
Rp1024
sg888
g98
(I18
I346
I12
I12
tp1025
Rp1026
sg695
g98
(I411
I309
I12
I12
tp1027
Rp1028
sg712
g98
(I382
I351
I12
I12
tp1029
Rp1030
sg908
g98
(I301
I203
I12
I12
tp1031
Rp1032
sg729
g98
(I400
I308
I12
I12
tp1033
Rp1034
sg746
g98
(I181
I41
I12
I12
tp1035
Rp1036
sg763
g98
(I403
I354
I12
I12
tp1037
Rp1038
sg780
g98
(I415
I321
I12
I12
tp1039
Rp1040
sg797
g98
(I409
I353
I12
I12
tp1041
Rp1042
sg814
g98
(I387
I342
I12
I12
tp1043
Rp1044
sg185
g98
(I400
I331
I12
I12
tp1045
Rp1046
sg831
g98
(I401
I370
I12
I12
tp1047
Rp1048
sg848
g98
(I426
I338
I12
I12
tp1049
Rp1050
ssg71
(lp1051
sbsS'tileNames'
p1052
(lp1053
S'tile0.png'
p1054
aS'tile1.png'
p1055
asS'fill'
p1056
I0
sS'mobSize'
p1057
(isrc.util
Loc
p1058
(dp1059
g28
I12
sg25
(I12
I12
tp1060
sg30
I12
sbsS'scale'
p1061
F0.09375
sS'friendlies'
p1062
g68
sS'filename'
p1063
S'map.p'
p1064
sS'width'
p1065
I20
sS'enemies'
p1066
g884
sS'neutrals'
p1067
g113
sS'viewpoint'
p1068
(F2560.0
F2560.0
tp1069
sS'grid'
p1070
(lp1071
I1
aI1
aI1
aI1
aI1
aI1
aI1
aI1
aI1
aI1
aI1
aI1
aI1
aI1
aI1
aI1
aI1
aI1
aI1
aI1
aI1
aI0
aI0
aI0
aI0
aI0
aI0
aI0
aI0
aI0
aI0
aI0
aI0
aI0
aI0
aI0
aI0
aI0
aI0
aI1
aI1
aI0
aI0
aI0
aI0
aI0
aI0
aI0
aI0
aI0
aI0
aI0
aI0
aI0
aI0
aI0
aI0
aI0
aI0
aI1
aI1
aI0
aI0
aI0
aI0
aI0
aI0
aI0
aI0
aI0
aI0
aI0
aI0
aI0
aI0
aI0
aI0
aI0
aI0
aI1
aI1
aI0
aI0
aI0
aI0
aI0
aI0
aI0
aI0
aI0
aI0
aI0
aI0
aI0
aI0
aI0
aI0
aI0
aI0
aI1
aI1
aI0
aI0
aI0
aI0
aI0
aI0
aI0
aI0
aI0
aI0
aI0
aI0
aI0
aI0
aI0
aI0
aI0
aI0
aI1
aI1
aI0
aI0
aI0
aI0
aI0
aI0
aI0
aI0
aI0
aI0
aI0
aI0
aI0
aI0
aI0
aI0
aI0
aI0
aI1
aI1
aI0
aI0
aI0
aI0
aI0
aI0
aI0
aI0
aI0
aI0
aI0
aI0
aI0
aI0
aI0
aI0
aI0
aI0
aI1
aI1
aI0
aI0
aI0
aI0
aI0
aI0
aI0
aI0
aI0
aI0
aI0
aI0
aI0
aI0
aI0
aI0
aI0
aI0
aI1
aI1
aI0
aI0
aI0
aI0
aI0
aI0
aI0
aI0
aI0
aI0
aI0
aI0
aI0
aI0
aI0
aI0
aI0
aI0
aI1
aI1
aI0
aI0
aI0
aI0
aI0
aI0
aI0
aI0
aI0
aI0
aI0
aI0
aI0
aI0
aI0
aI0
aI0
aI0
aI1
aI1
aI0
aI0
aI0
aI0
aI0
aI0
aI0
aI0
aI0
aI0
aI0
aI0
aI0
aI0
aI0
aI0
aI0
aI0
aI1
aI1
aI0
aI0
aI0
aI0
aI0
aI0
aI0
aI0
aI0
aI0
aI0
aI0
aI0
aI0
aI0
aI0
aI0
aI0
aI1
aI1
aI0
aI0
aI0
aI0
aI0
aI0
aI0
aI0
aI0
aI0
aI0
aI0
aI0
aI0
aI0
aI0
aI0
aI0
aI1
aI1
aI0
aI0
aI0
aI0
aI0
aI0
aI0
aI0
aI0
aI0
aI0
aI0
aI0
aI0
aI0
aI0
aI0
aI0
aI1
aI1
aI0
aI0
aI0
aI0
aI0
aI0
aI0
aI0
aI0
aI0
aI0
aI0
aI0
aI0
aI0
aI0
aI0
aI0
aI1
aI1
aI0
aI0
aI0
aI0
aI0
aI0
aI0
aI0
aI0
aI0
aI0
aI0
aI0
aI0
aI0
aI0
aI0
aI0
aI1
aI1
aI0
aI0
aI0
aI0
aI0
aI0
aI0
aI0
aI0
aI0
aI0
aI0
aI0
aI0
aI0
aI0
aI0
aI0
aI1
aI1
aI0
aI0
aI0
aI0
aI0
aI0
aI0
aI0
aI0
aI0
aI0
aI0
aI0
aI0
aI0
aI0
aI0
aI0
aI1
aI1
aI1
aI1
aI1
aI1
aI1
aI1
aI1
aI1
aI1
aI1
aI1
aI1
aI1
aI1
aI1
aI1
aI1
aI1
aI1
asS'actorSize'
p1072
I12
sS'tileSize'
p1073
I24
sS'mobOffset'
p1074
(isrc.util
Loc
p1075
(dp1076
g28
F-6.0
sg25
(F-6.0
F-6.0
tp1077
sg30
F-6.0
sbsS'maxScale'
p1078
F2.0
sS'mobs'
p1079
g53
sS'minScale'
p1080
F0.05
s.