(dp0
S'size'
p1
(I20
I20
tp2
sS'actorNames'
p3
(lp4
S'blip.png'
p5
aS'zombie.png'
p6
aS'soldier.png'
p7
aS'civilian.png'
p8
aS'corpse.png'
p9
asS'wall'
p10
I1
sS'height'
p11
I20
sS'visible'
p12
ccopy_reg
_reconstructor
p13
(cpygame.sprite
Group
p14
c__builtin__
object
p15
Ntp16
Rp17
(dp18
S'spritedict'
p19
(dp20
g13
(csrc.actor
Civilian
p21
g15
Ntp22
Rp23
(dp24
S'loc'
p25
(isrc.util
Loc
p26
(dp27
S'y'
p28
F696.2689234573867
sg25
(F691.2358604367871
F696.2689234573867
tp29
sS'x'
p30
F691.2358604367871
sbsS'direction'
p31
F1.9798019599849823
sS'lastLoc'
p32
(isrc.util
Loc
p33
(dp34
g28
F697.2510508958729
sg25
(F691.6615630917523
F697.2510508958729
tp35
sg30
F691.6615630917523
sbsS'_Sprite__g'
p36
(dp37
g13
(g14
g15
Ntp38
Rp39
(dp40
g19
(dp41
g23
I0
sg13
(g21
g15
Ntp42
Rp43
(dp44
g25
(isrc.util
Loc
p45
(dp46
g28
F3062.1898079168814
sg25
(F3621.067668369669
F3062.1898079168814
tp47
sg30
F3621.067668369669
sbsg31
F-2.276289350659506
sg32
(isrc.util
Loc
p48
(dp49
g28
F3061.4641198777385
sg25
(F3621.6857529617237
F3061.4641198777385
tp50
sg30
F3621.6857529617237
sbsg36
(dp51
g39
I0
sg13
(g14
g15
Ntp52
Rp53
(dp54
g19
(dp55
g23
I0
sg43
I0
sg13
(g21
g15
Ntp56
Rp57
(dp58
g25
(isrc.util
Loc
p59
(dp60
g28
F861.4287395128104
sg25
(F838.1730364663243
F861.4287395128104
tp61
sg30
F838.1730364663243
sbsg31
F1.6441754245515172
sg32
(isrc.util
Loc
p62
(dp63
g28
F861.9698121735735
sg25
(F838.2128113047308
F861.9698121735735
tp64
sg30
F838.2128113047308
sbsg36
(dp65
g39
I0
sg53
I0
sg17
I0
ssS'image'
p66
NsS'_visible'
p67
I1
sS'_layer'
p68
I0
sS'effects'
p69
(lp70
sS'source_rect'
p71
NsS'weapons'
p72
(lp73
g13
(csrc.actor
Punch
p74
g15
Ntp75
Rp76
(dp77
S'owner'
p78
g57
sbasS'dirty'
p79
I1
sS'level'
p80
g13
(csrc.tilemap
Map
p81
g15
Ntp82
Rp83
g0
bsS'speed'
p84
F0.5425326368021745
sS'rect'
p85
cpygame
__rect_constructor
p86
(I72
I74
I12
I12
tp87
Rp88
sS'blendmode'
p89
I4
sbI0
sg13
(g21
g15
Ntp90
Rp91
(dp92
g25
(isrc.util
Loc
p93
(dp94
g28
F2808.009384840352
sg25
(F3588.147278377
F2808.009384840352
tp95
sg30
F3588.147278377
sbsg31
F0.9269005338632381
sg32
(isrc.util
Loc
p96
(dp97
g28
F2808.331787959695
sg25
(F3587.905277154552
F2808.331787959695
tp98
sg30
F3587.905277154552
sbsg36
(dp99
g39
I0
sg53
I0
sg17
I0
ssg66
Nsg67
I1
sg68
I0
sg69
(lp100
sg71
Nsg72
(lp101
g13
(g74
g15
Ntp102
Rp103
(dp104
g78
g91
sbasg79
I1
sg80
g83
sg84
F0.40312326034136586
sg85
g86
(I330
I257
I12
I12
tp105
Rp106
sg89
I4
sbI0
sg13
(g21
g15
Ntp107
Rp108
(dp109
g25
(isrc.util
Loc
p110
(dp111
g28
F513.8869865502452
sg25
(F3696.580868345494
F513.8869865502452
tp112
sg30
F3696.580868345494
sbsg31
F-3.1336196718330487
sg32
(isrc.util
Loc
p113
(dp114
g28
F513.8863191122056
sg25
(F3696.6645790471102
F513.8863191122056
tp115
sg30
F3696.6645790471102
sbsg36
(dp116
g39
I0
sg53
I0
sg17
I0
ssg66
Nsg67
I1
sg68
I0
sg69
(lp117
sg71
Nsg72
(lp118
g13
(g74
g15
Ntp119
Rp120
(dp121
g78
g108
sbasg79
I1
sg80
g83
sg84
F0.08371336236635957
sg85
g86
(I340
I42
I12
I12
tp122
Rp123
sg89
I4
sbI0
sg13
(g21
g15
Ntp124
Rp125
(dp126
g25
(isrc.util
Loc
p127
(dp128
g28
F2734.0377773356704
sg25
(F3483.5980102091657
F2734.0377773356704
tp129
sg30
F3483.5980102091657
sbsg31
F0.1436699040382776
sg32
(isrc.util
Loc
p130
(dp131
g28
F2734.070239944807
sg25
(F3483.373614241359
F2734.070239944807
tp132
sg30
F3483.373614241359
sbsg36
(dp133
g39
I0
sg53
I0
sg17
I0
ssg66
Nsg67
I1
sg68
I0
sg69
(lp134
sg71
Nsg72
(lp135
g13
(g74
g15
Ntp136
Rp137
(dp138
g78
g125
sbasg79
I1
sg80
g83
sg84
F0.2267319372294485
sg85
g86
(I320
I250
I12
I12
tp139
Rp140
sg89
I4
sbI0
sg13
(g21
g15
Ntp141
Rp142
(dp143
g25
(isrc.util
Loc
p144
(dp145
g28
F3050.3365019916073
sg25
(F3493.5614768562473
F3050.3365019916073
tp146
sg30
F3493.5614768562473
sbsg31
F-2.7449322318064366
sg32
(isrc.util
Loc
p147
(dp148
g28
F3050.253765489322
sg25
(F3493.7590036316924
F3050.253765489322
tp149
sg30
F3493.7590036316924
sbsg36
(dp150
g39
I0
sg53
I0
sg17
I0
ssg66
Nsg67
I1
sg68
I0
sg69
(lp151
sg71
Nsg72
(lp152
g13
(g74
g15
Ntp153
Rp154
(dp155
g78
g142
sS'countdown'
p156
I0
sbasg79
I1
sg80
g83
sg84
F0.21415451391012807
sg85
g86
(I321
I279
I12
I12
tp157
Rp158
sg89
I4
sbI0
sg13
(g21
g15
Ntp159
Rp160
(dp161
g25
(isrc.util
Loc
p162
(dp163
g28
F2949.438702896353
sg25
(F3416.5418011006136
F2949.438702896353
tp164
sg30
F3416.5418011006136
sbsg31
F-1.6857376905182901
sg32
(isrc.util
Loc
p165
(dp166
g28
F2949.213162618656
sg25
(F3416.5678397789798
F2949.213162618656
tp167
sg30
F3416.5678397789798
sbsg36
(dp168
g39
I0
sg53
I0
sg17
I0
ssg66
Nsg67
I1
sg68
I0
sg69
(lp169
sg71
Nsg72
(lp170
g13
(g74
g15
Ntp171
Rp172
(dp173
g78
g160
sg156
I0
sbasg79
I1
sg80
g83
sg84
F0.22703838801982576
sg85
g86
(I314
I270
I12
I12
tp174
Rp175
sg89
I4
sbI0
sg13
(g21
g15
Ntp176
Rp177
(dp178
g25
(isrc.util
Loc
p179
(dp180
g28
F2867.4747954696263
sg25
(F3770.998211590371
F2867.4747954696263
tp181
sg30
F3770.998211590371
sbsg31
F-0.2508167101830585
sg32
(isrc.util
Loc
p182
(dp183
g28
F2867.453629630786
sg25
(F3770.915600964381
F2867.453629630786
tp184
sg30
F3770.915600964381
sbsg36
(dp185
g39
I0
sg53
I0
sg17
I0
ssg66
Nsg67
I1
sg68
I0
sg69
(lp186
sg71
Nsg72
(lp187
g13
(g74
g15
Ntp188
Rp189
(dp190
g78
g177
sg156
I0
sbasg79
I1
sg80
g83
sg84
F0.08527900245781367
sg85
g86
(I347
I262
I12
I12
tp191
Rp192
sg89
I4
sbI0
sg13
(g21
g15
Ntp193
Rp194
(dp195
g25
(isrc.util
Loc
p196
(dp197
g28
F2832.1081200014482
sg25
(F3521.6608805864366
F2832.1081200014482
tp198
sg30
F3521.6608805864366
sbsg31
F2.190495398511424
sg32
(isrc.util
Loc
p199
(dp200
g28
F2832.5617935023256
sg25
(F3521.984556124634
F2832.5617935023256
tp201
sg30
F3521.984556124634
sbsg36
(dp202
g39
I0
sg53
I0
sg17
I0
ssg66
Nsg67
I1
sg68
I0
sg69
(lp203
sg71
Nsg72
(lp204
g13
(g74
g15
Ntp205
Rp206
(dp207
g78
g194
sbasg79
I1
sg80
g83
sg84
F0.5573019822553372
sg85
g86
(I324
I259
I12
I12
tp208
Rp209
sg89
I4
sbI0
sg13
(g21
g15
Ntp210
Rp211
(dp212
g25
(isrc.util
Loc
p213
(dp214
g28
F901.2300514182785
sg25
(F959.4336641778841
F901.2300514182785
tp215
sg30
F959.4336641778841
sbsg31
F-2.675597204829342
sg32
(isrc.util
Loc
p216
(dp217
g28
F900.9894784651093
sg25
(F959.9119991446065
F900.9894784651093
tp218
sg30
F959.9119991446065
sbsg36
(dp219
g39
I0
sg53
I0
sg17
I0
ssg66
Nsg67
I1
sg68
I0
sg69
(lp220
sg71
Nsg72
(lp221
g13
(g74
g15
Ntp222
Rp223
(dp224
g78
g211
sbasg79
I1
sg80
g83
sg84
F0.5354247717335514
sg85
g86
(I83
I78
I12
I12
tp225
Rp226
sg89
I4
sbI0
sg13
(g21
g15
Ntp227
Rp228
(dp229
g25
(isrc.util
Loc
p230
(dp231
g28
F2977.3428502472393
sg25
(F3716.0798513152686
F2977.3428502472393
tp232
sg30
F3716.0798513152686
sbsg31
F-2.548511254175921
sg32
(isrc.util
Loc
p233
(dp234
g28
F2976.8433168290994
sg25
(F3716.8209683705054
F2976.8433168290994
tp235
sg30
F3716.8209683705054
sbsg36
(dp236
g39
I0
sg53
I0
sg17
I0
ssg66
Nsg67
I1
sg68
I0
sg69
(lp237
sg71
Nsg72
(lp238
g13
(g74
g15
Ntp239
Rp240
(dp241
g78
g228
sbasg79
I1
sg80
g83
sg84
F0.8937494757489746
sg85
g86
(I342
I273
I12
I12
tp242
Rp243
sg89
I4
sbI0
sg13
(g21
g15
Ntp244
Rp245
(dp246
g25
(isrc.util
Loc
p247
(dp248
g28
F821.4702984053638
sg25
(F716.2815596576626
F821.4702984053638
tp249
sg30
F716.2815596576626
sbsg31
F2.0747815499652154
sg32
(isrc.util
Loc
p250
(dp251
g28
F822.1182512290815
sg25
(F716.6388981278831
F822.1182512290815
tp252
sg30
F716.6388981278831
sbsg36
(dp253
g39
I0
sg53
I0
sg17
I0
ssg66
Nsg67
I1
sg68
I0
sg69
(lp254
sg71
Nsg72
(lp255
g13
(g74
g15
Ntp256
Rp257
(dp258
g78
g245
sbasg79
I1
sg80
g83
sg84
F0.7399551635492988
sg85
g86
(I61
I71
I12
I12
tp259
Rp260
sg89
I4
sbI0
sg13
(g21
g15
Ntp261
Rp262
(dp263
g25
(isrc.util
Loc
p264
(dp265
g28
F651.2203373542213
sg25
(F908.4368947119299
F651.2203373542213
tp266
sg30
F908.4368947119299
sbsg31
F-0.9998297131049775
sg32
(isrc.util
Loc
p267
(dp268
g28
F650.3563671169474
sg25
(F907.8819380004347
F650.3563671169474
tp269
sg30
F907.8819380004347
sbsg36
(dp270
g39
I0
sg53
I0
sg17
I0
ssg66
Nsg67
I1
sg68
I0
sg69
(lp271
sg71
Nsg72
(lp272
g13
(g74
g15
Ntp273
Rp274
(dp275
g78
g262
sg156
I0
sbasg79
I1
sg80
g83
sg84
F1.0268502921695692
sg85
g86
(I79
I55
I12
I12
tp276
Rp277
sg89
I4
sbI0
sg13
(g21
g15
Ntp278
Rp279
(dp280
g25
(isrc.util
Loc
p281
(dp282
g28
F514.9108369374571
sg25
(F3568.1685975664623
F514.9108369374571
tp283
sg30
F3568.1685975664623
sbsg31
F0.007972981756744138
sg32
(isrc.util
Loc
p284
(dp285
g28
F514.9115039409667
sg25
(F3568.0849413640003
F514.9115039409667
tp286
sg30
F3568.0849413640003
sbsg36
(dp287
g39
I0
sg53
I0
sg17
I0
ssg66
Nsg67
I1
sg68
I0
sg69
(lp288
sg71
Nsg72
(lp289
g13
(g74
g15
Ntp290
Rp291
(dp292
g78
g279
sbasg79
I1
sg80
g83
sg84
F0.08365886147940244
sg85
g86
(I328
I42
I12
I12
tp293
Rp294
sg89
I4
sbI0
sg13
(g21
g15
Ntp295
Rp296
(dp297
g25
(isrc.util
Loc
p298
(dp299
g28
F2957.0298061257035
sg25
(F3547.664412631261
F2957.0298061257035
tp300
sg30
F3547.664412631261
sbsg31
F1.8339630156091458
sg32
(isrc.util
Loc
p301
(dp302
g28
F2957.8533248891845
sg25
(F3547.8862811030126
F2957.8533248891845
tp303
sg30
F3547.8862811030126
sbsg36
(dp304
g39
I0
sg53
I0
sg17
I0
ssg66
Nsg67
I1
sg68
I0
sg69
(lp305
sg71
Nsg72
(lp306
g13
(g74
g15
Ntp307
Rp308
(dp309
g78
g296
sbasg79
I1
sg80
g83
sg84
F0.8528826253141388
sg85
g86
(I326
I271
I12
I12
tp310
Rp311
sg89
I4
sbI0
sg13
(g21
g15
Ntp312
Rp313
(dp314
g25
(isrc.util
Loc
p315
(dp316
g28
F2823.355412231007
sg25
(F3393.2537951473255
F2823.355412231007
tp317
sg30
F3393.2537951473255
sbsg31
F2.7671823749166795
sg32
(isrc.util
Loc
p318
(dp319
g28
F2823.7229675199837
sg25
(F3394.189179718399
F2823.7229675199837
tp320
sg30
F3394.189179718399
sbsg36
(dp321
g39
I0
sg53
I0
sg17
I0
ssg66
Nsg67
I1
sg68
I0
sg69
(lp322
sg71
Nsg72
(lp323
g13
(g74
g15
Ntp324
Rp325
(dp326
g78
g313
sbasg79
I1
sg80
g83
sg84
F1.0050080528317913
sg85
g86
(I312
I258
I12
I12
tp327
Rp328
sg89
I4
sbI0
sg13
(g21
g15
Ntp329
Rp330
(dp331
g25
(isrc.util
Loc
p332
(dp333
g28
F2934.0871517017586
sg25
(F3620.2399016753993
F2934.0871517017586
tp334
sg30
F3620.2399016753993
sbsg31
F-2.7571514876486964
sg32
(isrc.util
Loc
p335
(dp336
g28
F2933.826998433908
sg25
(F3620.8829356516594
F2933.826998433908
tp337
sg30
F3620.8829356516594
sbsg36
(dp338
g39
I0
sg53
I0
sg17
I0
ssg66
Nsg67
I1
sg68
I0
sg69
(lp339
sg71
Nsg72
(lp340
g13
(g74
g15
Ntp341
Rp342
(dp343
g78
g330
sbasg79
I1
sg80
g83
sg84
F0.6936659263638043
sg85
g86
(I333
I269
I12
I12
tp344
Rp345
sg89
I4
sbI0
sg13
(g21
g15
Ntp346
Rp347
(dp348
g25
(isrc.util
Loc
p349
(dp350
g28
F2898.0860907335027
sg25
(F3496.9696868201327
F2898.0860907335027
tp351
sg30
F3496.9696868201327
sbsg31
F2.386609214357147
sg32
(isrc.util
Loc
p352
(dp353
g28
F2898.8149667497996
sg25
(F3497.7443053128504
F2898.8149667497996
tp354
sg30
F3497.7443053128504
sbsg36
(dp355
g39
I0
sg53
I0
sg17
I0
ssg66
Nsg67
I1
sg68
I0
sg69
(lp356
sg71
Nsg72
(lp357
g13
(g74
g15
Ntp358
Rp359
(dp360
g78
g347
sbasg79
I1
sg80
g83
sg84
F1.063623080039747
sg85
g86
(I321
I265
I12
I12
tp361
Rp362
sg89
I4
sbI0
sg13
(g21
g15
Ntp363
Rp364
(dp365
g25
(isrc.util
Loc
p366
(dp367
g28
F2759.2158015164036
sg25
(F3704.880944665255
F2759.2158015164036
tp368
sg30
F3704.880944665255
sbsg31
F-1.635490759100128
sg32
(isrc.util
Loc
p369
(dp370
g28
F2758.7054092221224
sg25
(F3704.9140103485647
F2758.7054092221224
tp371
sg30
F3704.9140103485647
sbsg36
(dp372
g39
I0
sg53
I0
sg17
I0
ssg66
Nsg67
I1
sg68
I0
sg69
(lp373
sg71
Nsg72
(lp374
g13
(g74
g15
Ntp375
Rp376
(dp377
g78
g364
sg156
I0
sbasg79
I1
sg80
g83
sg84
F0.5114622502926218
sg85
g86
(I341
I252
I12
I12
tp378
Rp379
sg89
I4
sbI0
ssS'lostsprites'
p380
(lp381
sbI0
sg17
I0
ssg66
Nsg67
I1
sg68
I0
sg69
(lp382
sg71
Nsg72
(lp383
g13
(g74
g15
Ntp384
Rp385
(dp386
g78
g43
sbasg79
I1
sg80
g83
sg84
F0.9532322346051197
sg85
g86
(I333
I281
I12
I12
tp387
Rp388
sg89
I4
sbI0
sg57
I0
sg91
I0
sg108
I0
sg125
I0
sg142
I0
sg160
I0
sg177
I0
sg194
I0
sg211
I0
sg228
I0
sg245
I0
sg262
I0
sg279
I0
sg296
I0
sg313
I0
sg330
I0
sg347
I0
sg13
(csrc.actor
Soldier
p389
g15
Ntp390
Rp391
(dp392
g25
(isrc.util
Loc
p393
(dp394
g28
F2871.457195306814
sg25
(F3643.8291709616765
F2871.457195306814
tp395
sg30
F3643.8291709616765
sbsg31
F-2.493875451791549
sg32
(isrc.util
Loc
p396
(dp397
g28
F2871.093547989185
sg25
(F3644.3097990256847
F2871.093547989185
tp398
sg30
F3644.3097990256847
sbsg36
(dp399
g13
(g14
g15
Ntp400
Rp401
(dp402
g19
(dp403
g13
(g389
g15
Ntp404
Rp405
(dp406
g25
(isrc.util
Loc
p407
(dp408
g28
F737.1601036517677
sg25
(F812.3698132417445
F737.1601036517677
tp409
sg30
F812.3698132417445
sbsg31
F-2.2719628093899953
sg32
(isrc.util
Loc
p410
(dp411
g28
F736.38947896398
sg25
(F813.0204396329664
F736.38947896398
tp412
sg30
F813.0204396329664
sbsg36
(dp413
g401
I0
sg39
I0
sg17
I0
ssg66
Nsg67
I1
sg68
I0
sg69
(lp414
sg71
Nsg72
(lp415
g13
(csrc.actor
Rifle
p416
g15
Ntp417
Rp418
(dp419
g78
g405
sg156
I0
sbag13
(g74
g15
Ntp420
Rp421
(dp422
g78
g405
sbasg79
I1
sg80
g83
sg84
F1.0085519869507233
sg85
g86
(I70
I63
I12
I12
tp423
Rp424
sg89
I4
sbI0
sg391
I0
sg13
(g389
g15
Ntp425
Rp426
(dp427
g25
(isrc.util
Loc
p428
(dp429
g28
F611.1645585836858
sg25
(F787.5708686455027
F611.1645585836858
tp430
sg30
F787.5708686455027
sbsg31
F-0.09395250028317524
sg32
(isrc.util
Loc
p431
(dp432
g28
F611.0724129317063
sg25
(F786.5929876250457
F611.0724129317063
tp433
sg30
F786.5929876250457
sbsg36
(dp434
g401
I0
sg39
I0
sg17
I0
ssg66
Nsg67
I1
sg68
I0
sg69
(lp435
sg71
Nsg72
(lp436
g13
(g416
g15
Ntp437
Rp438
(dp439
g78
g426
sg156
I0
sbag13
(g74
g15
Ntp440
Rp441
(dp442
g78
g426
sbasg79
I1
sg80
g83
sg84
F0.9822128645811905
sg85
g86
(I67
I51
I12
I12
tp443
Rp444
sg89
I4
sbI0
sg13
(g389
g15
Ntp445
Rp446
(dp447
g25
(isrc.util
Loc
p448
(dp449
g28
F2686.8516295172535
sg25
(F3600.350330188225
F2686.8516295172535
tp450
sg30
F3600.350330188225
sbsg31
F1.8951048486789246
sg32
(isrc.util
Loc
p451
(dp452
g28
F2686.9576456310706
sg25
(F3600.385970468153
F2686.9576456310706
tp453
sg30
F3600.385970468153
sbsg36
(dp454
g401
I0
sg39
I0
sg17
I0
ssg66
Nsg67
I1
sg68
I0
sg69
(lp455
sg71
Nsg72
(lp456
g13
(g416
g15
Ntp457
Rp458
(dp459
g78
g446
sg156
I0
sbag13
(g74
g15
Ntp460
Rp461
(dp462
g78
g446
sg156
I0
sbasg79
I1
sg80
g83
sg84
F0.11184652852117216
sg85
g86
(I331
I245
I12
I12
tp463
Rp464
sg89
I4
sbI0
sg13
(g389
g15
Ntp465
Rp466
(dp467
g25
(isrc.util
Loc
p468
(dp469
g28
F775.4294994319458
sg25
(F935.0297034934996
F775.4294994319458
tp470
sg30
F935.0297034934996
sbsg31
F2.1617380012505523
sg32
(isrc.util
Loc
p471
(dp472
g28
F776.5221413253545
sg25
(F935.7627791620705
F776.5221413253545
tp473
sg30
F935.7627791620705
sbsg36
(dp474
g401
I0
sg39
I0
sg17
I0
ssg66
Nsg67
I1
sg68
I0
sg69
(lp475
sg71
Nsg72
(lp476
g13
(g416
g15
Ntp477
Rp478
(dp479
g78
g466
sg156
I0
sbag13
(g74
g15
Ntp480
Rp481
(dp482
g78
g466
sg156
I0
sbasg79
I1
sg80
g83
sg84
F1.3157759091435037
sg85
g86
(I81
I66
I12
I12
tp483
Rp484
sg89
I4
sbI0
ssg380
(lp485
sbI0
sg39
I0
sg17
I0
ssg66
Nsg67
I1
sg68
I0
sg69
(lp486
sg71
Nsg72
(lp487
g13
(g416
g15
Ntp488
Rp489
(dp490
g78
g391
sg156
I0
sbag13
(g74
g15
Ntp491
Rp492
(dp493
g78
g391
sg156
I0
sbasg79
I1
sg80
g83
sg84
F0.6026961983711137
sg85
g86
(I335
I263
I12
I12
tp494
Rp495
sg89
I4
sbI0
sg466
I0
sg13
(csrc.actor
Zombie
p496
g15
Ntp497
Rp498
(dp499
g25
(isrc.util
Loc
p500
(dp501
g28
F4831.765523855852
sg25
(F1230.9843362294102
F4831.765523855852
tp502
sg30
F1230.9843362294102
sbsg31
F5.958727630462453
sg32
(isrc.util
Loc
p503
(dp504
g28
F4831.4514870683115
sg25
(F1230.0506587607344
F4831.4514870683115
tp505
sg30
F1230.0506587607344
sbsg36
(dp506
g39
I0
sg17
I0
ssg66
Nsg67
I1
sg68
I0
sg69
(lp507
sg71
Nsg72
(lp508
g13
(csrc.actor
Bite
p509
g15
Ntp510
Rp511
(dp512
g78
g498
sbasg79
I1
sS'target'
p513
Nsg80
g83
sg84
F0.9850749816341162
sg85
g86
(I109
I446
I12
I12
tp514
Rp515
sg89
I4
sbI0
sg446
I0
sg426
I0
sg405
I0
sg364
I0
ssg380
(lp516
sbI0
sg53
I0
sg17
I0
ssg66
Nsg67
I1
sg68
I0
sg69
(lp517
sg71
Nsg72
(lp518
g13
(g74
g15
Ntp519
Rp520
(dp521
g78
g23
sbasg79
I1
sg80
g83
sg84
F1.0704191029088006
sg85
g86
(I58
I59
I12
I12
tp522
Rp523
sg89
I4
sbg86
(I58
I59
I12
I12
tp524
Rp525
sg43
g86
(I333
I281
I12
I12
tp526
Rp527
sg57
g86
(I72
I74
I12
I12
tp528
Rp529
sg91
g86
(I330
I257
I12
I12
tp530
Rp531
sg108
g86
(I340
I42
I12
I12
tp532
Rp533
sg125
g86
(I320
I250
I12
I12
tp534
Rp535
sg142
g86
(I321
I279
I12
I12
tp536
Rp537
sg160
g86
(I314
I270
I12
I12
tp538
Rp539
sg177
g86
(I347
I262
I12
I12
tp540
Rp541
sg194
g86
(I324
I259
I12
I12
tp542
Rp543
sg211
g86
(I83
I78
I12
I12
tp544
Rp545
sg228
g86
(I342
I273
I12
I12
tp546
Rp547
sg245
g86
(I61
I71
I12
I12
tp548
Rp549
sg262
g86
(I79
I55
I12
I12
tp550
Rp551
sg279
g86
(I328
I42
I12
I12
tp552
Rp553
sg296
g86
(I326
I271
I12
I12
tp554
Rp555
sg313
g86
(I312
I258
I12
I12
tp556
Rp557
sg330
g86
(I333
I269
I12
I12
tp558
Rp559
sg347
g86
(I321
I265
I12
I12
tp560
Rp561
sg391
g86
(I335
I263
I12
I12
tp562
Rp563
sg466
g86
(I81
I66
I12
I12
tp564
Rp565
sg498
g86
(I109
I446
I12
I12
tp566
Rp567
sg446
g86
(I331
I245
I12
I12
tp568
Rp569
sg426
g86
(I67
I51
I12
I12
tp570
Rp571
sg405
g86
(I70
I63
I12
I12
tp572
Rp573
sg364
g86
(I341
I252
I12
I12
tp574
Rp575
ssg380
(lp576
sbsS'tileNames'
p577
(lp578
S'tile0.png'
p579
aS'tile1.png'
p580
asS'fill'
p581
I0
sS'mobSize'
p582
(isrc.util
Loc
p583
(dp584
g28
I12
sg25
(I12
I12
tp585
sg30
I12
sbsS'scale'
p586
F0.09375
sS'friendlies'
p587
g401
sS'filename'
p588
S'map.p'
p589
sS'width'
p590
I20
sS'enemies'
p591
g13
(g14
g15
Ntp592
Rp593
(dp594
g19
(dp595
sg380
(lp596
sbsS'neutrals'
p597
g53
sS'viewpoint'
p598
(F2560.0
F2560.0
tp599
sS'grid'
p600
(lp601
I1
aI1
aI1
aI1
aI1
aI1
aI1
aI1
aI1
aI1
aI1
aI1
aI1
aI1
aI1
aI1
aI1
aI1
aI1
aI1
aI1
aI0
aI0
aI0
aI0
aI0
aI0
aI0
aI0
aI0
aI0
aI0
aI0
aI0
aI0
aI0
aI0
aI0
aI0
aI1
aI1
aI0
aI0
aI0
aI0
aI0
aI0
aI0
aI0
aI0
aI0
aI0
aI0
aI0
aI0
aI0
aI0
aI0
aI0
aI1
aI1
aI0
aI0
aI0
aI0
aI0
aI0
aI0
aI0
aI0
aI0
aI0
aI0
aI0
aI0
aI0
aI0
aI0
aI0
aI1
aI1
aI0
aI0
aI0
aI0
aI0
aI0
aI0
aI0
aI0
aI0
aI0
aI0
aI0
aI0
aI0
aI0
aI0
aI0
aI1
aI1
aI0
aI0
aI0
aI0
aI0
aI0
aI0
aI0
aI0
aI0
aI0
aI0
aI0
aI0
aI0
aI0
aI0
aI0
aI1
aI1
aI0
aI0
aI0
aI0
aI0
aI0
aI0
aI0
aI0
aI0
aI0
aI0
aI0
aI0
aI0
aI0
aI0
aI0
aI1
aI1
aI0
aI0
aI0
aI0
aI0
aI0
aI0
aI0
aI0
aI0
aI0
aI0
aI0
aI0
aI0
aI0
aI0
aI0
aI1
aI1
aI0
aI0
aI0
aI0
aI0
aI0
aI0
aI0
aI0
aI0
aI0
aI0
aI0
aI0
aI0
aI0
aI0
aI0
aI1
aI1
aI0
aI0
aI0
aI0
aI0
aI0
aI0
aI0
aI0
aI0
aI0
aI0
aI0
aI0
aI0
aI0
aI0
aI0
aI1
aI1
aI0
aI0
aI0
aI0
aI0
aI0
aI0
aI0
aI0
aI0
aI0
aI0
aI0
aI0
aI0
aI0
aI0
aI0
aI1
aI1
aI0
aI0
aI0
aI0
aI0
aI0
aI0
aI0
aI0
aI0
aI0
aI0
aI0
aI0
aI0
aI0
aI0
aI0
aI1
aI1
aI0
aI0
aI0
aI0
aI0
aI0
aI0
aI0
aI0
aI0
aI0
aI0
aI0
aI0
aI0
aI0
aI0
aI0
aI1
aI1
aI0
aI0
aI0
aI0
aI0
aI0
aI0
aI0
aI0
aI0
aI0
aI0
aI0
aI0
aI0
aI0
aI0
aI0
aI1
aI1
aI0
aI0
aI0
aI0
aI0
aI0
aI0
aI0
aI0
aI0
aI0
aI0
aI0
aI0
aI0
aI0
aI0
aI0
aI1
aI1
aI0
aI0
aI0
aI0
aI0
aI0
aI0
aI0
aI0
aI0
aI0
aI0
aI0
aI0
aI0
aI0
aI0
aI0
aI1
aI1
aI0
aI0
aI0
aI0
aI0
aI0
aI0
aI0
aI0
aI0
aI0
aI0
aI0
aI0
aI0
aI0
aI0
aI0
aI1
aI1
aI0
aI0
aI0
aI0
aI0
aI0
aI0
aI0
aI0
aI0
aI0
aI0
aI0
aI0
aI0
aI0
aI0
aI0
aI1
aI1
aI0
aI0
aI0
aI0
aI0
aI0
aI0
aI0
aI0
aI0
aI0
aI0
aI0
aI0
aI0
aI0
aI0
aI0
aI1
aI1
aI1
aI1
aI1
aI1
aI1
aI1
aI1
aI1
aI1
aI1
aI1
aI1
aI1
aI1
aI1
aI1
aI1
aI1
aI1
asS'actorSize'
p602
I12
sS'tileSize'
p603
I24
sS'mobOffset'
p604
(isrc.util
Loc
p605
(dp606
g28
F-6.0
sg25
(F-6.0
F-6.0
tp607
sg30
F-6.0
sbsS'maxScale'
p608
F2.0
sS'mobs'
p609
g39
sS'minScale'
p610
F0.05
s.