(dp0
S'size'
p1
(I20
I20
tp2
sS'actorNames'
p3
(lp4
S'blip.png'
p5
aS'zombie.png'
p6
aS'soldier.png'
p7
aS'civilian.png'
p8
aS'corpse.png'
p9
asS'wall'
p10
I1
sS'height'
p11
I20
sS'visible'
p12
ccopy_reg
_reconstructor
p13
(cpygame.sprite
Group
p14
c__builtin__
object
p15
Ntp16
Rp17
(dp18
S'spritedict'
p19
(dp20
sS'lostsprites'
p21
(lp22
sbsS'tileNames'
p23
(lp24
S'tile0.png'
p25
aS'tile1.png'
p26
asS'fill'
p27
I0
sS'mobSize'
p28
(isrc.util
Loc
p29
(dp30
S'y'
p31
I27
sS'loc'
p32
(I27
I27
tp33
sS'x'
p34
I27
sbsS'scale'
p35
F0.2109375
sS'friendlies'
p36
g13
(g14
g15
Ntp37
Rp38
(dp39
g19
(dp40
sg21
(lp41
sbsS'filename'
p42
S'map.p'
p43
sS'width'
p44
I20
sS'enemies'
p45
g13
(g14
g15
Ntp46
Rp47
(dp48
g19
(dp49
sg21
(lp50
sbsS'neutrals'
p51
g13
(g14
g15
Ntp52
Rp53
(dp54
g19
(dp55
sg21
(lp56
sbsS'viewpoint'
p57
(F2560.0
F2560.0
tp58
sS'grid'
p59
(lp60
I1
aI1
aI1
aI1
aI1
aI1
aI1
aI1
aI1
aI1
aI1
aI1
aI1
aI1
aI1
aI1
aI1
aI1
aI1
aI1
aI1
aI0
aI0
aI1
aI1
aI0
aI0
aI0
aI1
aI1
aI0
aI0
aI0
aI0
aI0
aI0
aI1
aI0
aI0
aI1
aI1
aI1
aI0
aI0
aI0
aI0
aI0
aI0
aI1
aI1
aI0
aI0
aI0
aI0
aI0
aI0
aI1
aI0
aI0
aI1
aI1
aI1
aI1
aI0
aI1
aI1
aI1
aI1
aI1
aI1
aI1
aI0
aI1
aI1
aI1
aI1
aI1
aI0
aI0
aI1
aI1
aI0
aI0
aI0
aI0
aI0
aI1
aI1
aI1
aI1
aI0
aI0
aI0
aI0
aI0
aI0
aI0
aI0
aI0
aI1
aI1
aI0
aI1
aI1
aI1
aI0
aI1
aI1
aI0
aI0
aI0
aI0
aI1
aI1
aI1
aI0
aI0
aI1
aI1
aI1
aI1
aI0
aI1
aI0
aI1
aI1
aI1
aI0
aI0
aI1
aI1
aI1
aI1
aI1
aI1
aI1
aI0
aI1
aI1
aI1
aI1
aI0
aI0
aI0
aI0
aI1
aI0
aI0
aI0
aI0
aI0
aI1
aI1
aI1
aI1
aI1
aI0
aI1
aI1
aI1
aI1
aI1
aI1
aI0
aI0
aI0
aI0
aI1
aI1
aI0
aI0
aI0
aI0
aI1
aI1
aI1
aI0
aI0
aI0
aI1
aI1
aI1
aI1
aI1
aI1
aI0
aI1
aI1
aI1
aI1
aI1
aI1
aI0
aI0
aI0
aI1
aI1
aI0
aI0
aI1
aI1
aI1
aI0
aI0
aI1
aI0
aI1
aI1
aI1
aI1
aI1
aI1
aI1
aI1
aI0
aI1
aI1
aI0
aI0
aI1
aI1
aI1
aI0
aI0
aI0
aI0
aI1
aI1
aI1
aI0
aI0
aI1
aI1
aI1
aI0
aI0
aI0
aI0
aI1
aI1
aI1
aI1
aI0
aI0
aI1
aI0
aI1
aI1
aI1
aI0
aI0
aI1
aI1
aI0
aI0
aI0
aI0
aI0
aI1
aI1
aI1
aI0
aI0
aI1
aI1
aI0
aI1
aI1
aI1
aI0
aI0
aI0
aI0
aI0
aI0
aI0
aI0
aI0
aI0
aI1
aI1
aI1
aI1
aI1
aI1
aI0
aI0
aI1
aI1
aI1
aI1
aI0
aI0
aI1
aI1
aI1
aI1
aI0
aI0
aI1
aI1
aI0
aI0
aI0
aI1
aI1
aI0
aI0
aI0
aI0
aI0
aI0
aI1
aI1
aI1
aI1
aI1
aI0
aI0
aI1
aI1
aI1
aI0
aI1
aI1
aI1
aI1
aI0
aI0
aI0
aI0
aI1
aI1
aI1
aI1
aI1
aI0
aI0
aI0
aI1
aI1
aI1
aI0
aI0
aI0
aI0
aI0
aI0
aI1
aI1
aI0
aI0
aI0
aI0
aI0
aI0
aI0
aI1
aI1
aI1
aI1
aI0
aI0
aI1
aI1
aI1
aI1
aI1
aI1
aI1
aI1
aI1
aI1
aI1
aI1
aI0
aI0
aI0
aI0
aI1
aI1
aI1
aI1
aI1
aI1
aI1
aI1
aI1
aI1
aI1
aI1
aI1
aI1
aI1
aI1
aI1
aI1
aI1
aI1
aI1
asS'actorSize'
p61
I27
sS'tileSize'
p62
I54
sS'mobOffset'
p63
(isrc.util
Loc
p64
(dp65
g31
F-13.5
sg32
(F-13.5
F-13.5
tp66
sg34
F-13.5
sbsS'maxScale'
p67
F2.0
sS'mobs'
p68
g13
(g14
g15
Ntp69
Rp70
(dp71
g19
(dp72
sg21
(lp73
sbsS'minScale'
p74
F0.05
s.