(dp0
S'size'
p1
(I20
I20
tp2
sS'actorNames'
p3
(lp4
S'blip.png'
p5
aS'zombie.png'
p6
aS'soldier.png'
p7
aS'civilian.png'
p8
aS'corpse.png'
p9
asS'wall'
p10
I1
sS'height'
p11
I20
sS'visible'
p12
ccopy_reg
_reconstructor
p13
(cpygame.sprite
Group
p14
c__builtin__
object
p15
Ntp16
Rp17
(dp18
S'spritedict'
p19
(dp20
g13
(csrc.actor
Zombie
p21
g15
Ntp22
Rp23
(dp24
S'distanceMoved'
p25
F4.000000000000113
sS'image'
p26
NsS'blendmode'
p27
I4
sS'speed'
p28
F4.0
sS'maxRiled'
p29
F4.550000000000009
sS'loc'
p30
(isrc.util
Loc
p31
(dp32
S'y'
p33
F2846.211486627234
sg30
(F2561.173505403935
F2846.211486627234
tp34
sS'x'
p35
F2561.173505403935
sbsS'riled'
p36
F4.550000000000009
sS'lastLoc'
p37
(isrc.util
Loc
p38
(dp39
g33
F2842.222552281134
sg30
(F2560.8761793497374
F2842.222552281134
tp40
sg35
F2560.8761793497374
sbsS'_Sprite__g'
p41
(dp42
g13
(g14
g15
Ntp43
Rp44
(dp45
g19
(dp46
g23
I0
sg13
(csrc.actor
Civilian
p47
g15
Ntp48
Rp49
(dp50
g25
F3.599999999999862
sS'fleeing'
p51
I00
sg26
Nsg27
I4
sg28
F3.6
sg29
F0.1
sg30
(isrc.util
Loc
p52
(dp53
g33
F3851.3210135680674
sg30
(F4637.949365967952
F3851.3210135680674
tp54
sg35
F4637.949365967952
sbsg36
I0
sg37
(isrc.util
Loc
p55
(dp56
g33
F3853.31467629774
sg30
(F4640.946916454652
F3853.31467629774
tp57
sg35
F4640.946916454652
sbsg41
(dp58
g13
(g14
g15
Ntp59
Rp60
(dp61
g19
(dp62
g13
(g47
g15
Ntp63
Rp64
(dp65
g25
F3.6000000000002843
sg51
I00
sg26
Nsg27
I4
sg28
F3.6
sg29
F0.1
sg30
(isrc.util
Loc
p66
(dp67
g33
F3558.9471019284647
sg30
(F4610.117258065129
F3558.9471019284647
tp68
sg35
F4610.117258065129
sbsg36
I0
sg37
(isrc.util
Loc
p69
(dp70
g33
F3556.9503004270164
sg30
(F4613.112718591295
F3556.9503004270164
tp71
sg35
F4613.112718591295
sbsg41
(dp72
g60
I0
sg44
I0
sg17
I0
ssS'source_rect'
p73
NsS'weapons'
p74
(lp75
g13
(csrc.actor
Punch
p76
g15
Ntp77
Rp78
(dp79
S'owner'
p80
g64
sbasS'leavesCorpse'
p81
csrc.actor
Corpse
p82
sS'direction'
p83
F-2.553629845773977
sS'_layer'
p84
I0
sS'effects'
p85
(lp86
sS'rect'
p87
cpygame
__rect_constructor
p88
(I958
I736
I27
I27
tp89
Rp90
sS'level'
p91
g13
(csrc.tilemap
Map
p92
g15
Ntp93
Rp94
g0
bsS'_visible'
p95
I1
sS'targetDistance'
p96
F1000000000000000.0
sS'dirty'
p97
I1
sS'highlight'
p98
(lp99
sbg88
(I958
I736
I27
I27
tp100
Rp101
sg13
(g47
g15
Ntp102
Rp103
(dp104
g25
F3.600000000000244
sg51
I00
sg26
Nsg27
I4
sg28
F3.6
sg29
F0.1
sg30
(isrc.util
Loc
p105
(dp106
g33
F3909.5549437983013
sg30
(F4601.839862542719
F3909.5549437983013
tp107
sg35
F4601.839862542719
sbsg36
I0
sg37
(isrc.util
Loc
p108
(dp109
g33
F3906.0098684718896
sg30
(F4602.466313602315
F3906.0098684718896
tp110
sg35
F4602.466313602315
sbsg41
(dp111
g60
I0
sg44
I0
sg17
I0
ssg73
Nsg74
(lp112
g13
(g76
g15
Ntp113
Rp114
(dp115
g80
g103
sbasg81
g82
sg83
F-1.7457009159609098
sg84
I0
sg85
(lp116
sg87
g88
(I956
I810
I27
I27
tp117
Rp118
sg91
g94
sg95
I1
sg96
F1000000000000000.0
sg97
I1
sg98
(lp119
sbg88
(I956
I810
I27
I27
tp120
Rp121
sg13
(g47
g15
Ntp122
Rp123
(dp124
g25
F3.6000000000000227
sg51
I01
sg26
Nsg27
I4
sg28
F3.6
sg29
F0.1
sg30
(isrc.util
Loc
p125
(dp126
g33
F659.1554077581385
sg30
(F384.04317897541154
F659.1554077581385
tp127
sg35
F384.04317897541154
sbsg36
I0
sg37
(isrc.util
Loc
p128
(dp129
g33
F662.7554077581385
sg30
(F384.04317897541154
F662.7554077581385
tp130
sg35
F384.04317897541154
sbsg41
(dp131
g60
I0
sg44
I0
sg17
I0
ssg73
Nsg74
(lp132
g13
(g76
g15
Ntp133
Rp134
(dp135
g80
g123
sS'countdown'
p136
I0
sbasg81
g82
sg83
F1.234576336491655
sg84
I0
sg85
(lp137
sg87
g88
(I67
I125
I27
I27
tp138
Rp139
sg91
g94
sg95
I1
sg96
F1000000000000000.0
sg97
I1
sg98
(lp140
sbg88
(I67
I125
I27
I27
tp141
Rp142
sg49
g88
(I964
I798
I27
I27
tp143
Rp144
sg13
(g47
g15
Ntp145
Rp146
(dp147
g25
F3.600000000000205
sg51
I00
sg26
Nsg27
I4
sg28
F3.6
sg29
F0.1
sg30
(isrc.util
Loc
p148
(dp149
g33
F3352.4599953422658
sg30
(F4598.066737655525
F3352.4599953422658
tp150
sg35
F4598.066737655525
sbsg36
I0
sg37
(isrc.util
Loc
p151
(dp152
g33
F3356.0560352130024
sg30
(F4598.235548934988
F3356.0560352130024
tp153
sg35
F4598.235548934988
sbsg41
(dp154
g60
I0
sg44
I0
sg17
I0
ssg73
Nsg74
(lp155
g13
(g76
g15
Ntp156
Rp157
(dp158
g80
g146
sbasg81
g82
sg83
F1.617705550740007
sg84
I0
sg85
(lp159
sg87
g88
(I955
I693
I27
I27
tp160
Rp161
sg91
g94
sg95
I1
sg96
F1000000000000000.0
sg97
I1
sg98
(lp162
sbg88
(I955
I693
I27
I27
tp163
Rp164
sg13
(g47
g15
Ntp165
Rp166
(dp167
g25
F3.316764156343945
sg51
I00
sg26
Nsg27
I4
sg28
F3.3167641563439405
sg29
F0.1
sg30
(isrc.util
Loc
p168
(dp169
g33
F505.6924092182682
sg30
(F2373.683060755506
F505.6924092182682
tp170
sg35
F2373.683060755506
sbsg36
I0
sg37
(isrc.util
Loc
p171
(dp172
g33
F507.1979491349101
sg30
(F2370.7276802337788
F507.1979491349101
tp173
sg35
F2370.7276802337788
sbsg41
(dp174
g60
I0
sg44
I0
sg17
I0
ssg73
Nsg74
(lp175
g13
(g76
g15
Ntp176
Rp177
(dp178
g80
g166
sbasg81
g82
sg83
F0.4711578576589901
sg84
I0
sg85
(lp179
sg87
g88
(I486
I92
I27
I27
tp180
Rp181
sg91
g94
sg95
I1
sg96
F1000000000000000.0
sg97
I1
sg98
(lp182
sbg88
(I486
I92
I27
I27
tp183
Rp184
sg13
(g47
g15
Ntp185
Rp186
(dp187
g25
F3.6000000000003713
sg51
I00
sg26
Nsg27
I4
sg28
F3.6
sg29
F0.1
sg30
(isrc.util
Loc
p188
(dp189
g33
F3819.226273485609
sg30
(F4697.125336953591
F3819.226273485609
tp190
sg35
F4697.125336953591
sbsg36
I0
sg37
(isrc.util
Loc
p191
(dp192
g33
F3819.312806771723
sg30
(F4693.5263771051905
F3819.312806771723
tp193
sg35
F4693.5263771051905
sbsg41
(dp194
g60
I0
sg44
I0
sg17
I0
ssg73
Nsg74
(lp195
g13
(g76
g15
Ntp196
Rp197
(dp198
g80
g186
sbasg81
g82
sg83
F0.024039339201951174
sg84
I0
sg85
(lp199
sg87
g88
(I976
I791
I27
I27
tp200
Rp201
sg91
g94
sg95
I1
sg96
F1000000000000000.0
sg97
I1
sg98
(lp202
sbg88
(I976
I791
I27
I27
tp203
Rp204
sg13
(g47
g15
Ntp205
Rp206
(dp207
g25
F3.6000000000004744
sg51
I00
sg26
Nsg27
I4
sg28
F3.6
sg29
F0.1
sg30
(isrc.util
Loc
p208
(dp209
g33
F3323.7649139737123
sg30
(F4558.584225546176
F3323.7649139737123
tp210
sg35
F4558.584225546176
sbsg36
I0
sg37
(isrc.util
Loc
p211
(dp212
g33
F3324.653855739817
sg30
(F4562.072747086381
F3324.653855739817
tp213
sg35
F4562.072747086381
sbsg41
(dp214
g60
I0
sg44
I0
sg17
I0
ssg73
Nsg74
(lp215
g13
(g76
g15
Ntp216
Rp217
(dp218
g80
g206
sbasg81
g82
sg83
F2.892083576285964
sg84
I0
sg85
(lp219
sg87
g88
(I947
I687
I27
I27
tp220
Rp221
sg91
g94
sg95
I1
sg96
F1000000000000000.0
sg97
I1
sg98
(lp222
sbg88
(I947
I687
I27
I27
tp223
Rp224
sg13
(g47
g15
Ntp225
Rp226
(dp227
g25
F0.603821314121878
sg51
I01
sg26
Nsg27
I4
sg28
F0.6038213141220761
sg29
F0.1
sg30
(isrc.util
Loc
p228
(dp229
g33
F3483.186052320739
sg30
(F1136.1390852997883
F3483.186052320739
tp230
sg35
F1136.1390852997883
sbsg36
I0
sg37
(isrc.util
Loc
p231
(dp232
g33
F3482.583584094924
sg30
(F1136.1794859962104
F3482.583584094924
tp233
sg35
F1136.1794859962104
sbsg41
(dp234
g60
I0
sg44
I0
sg17
I0
ssg73
Nsg74
(lp235
g13
(g76
g15
Ntp236
Rp237
(dp238
g80
g226
sbasg81
g82
sg83
F-1.6377547136454889
sg84
I0
sg85
(lp239
sg87
g88
(I225
I720
I27
I27
tp240
Rp241
sg91
g94
sg95
I1
sg96
F1000000000000000.0
sg97
I1
sg98
(lp242
sbg88
(I225
I720
I27
I27
tp243
Rp244
sg13
(g47
g15
Ntp245
Rp246
(dp247
g25
F3.600000000000051
sg51
I00
sg26
Nsg27
I4
sg28
F3.6
sg29
F0.1
sg30
(isrc.util
Loc
p248
(dp249
g33
F3447.230501117219
sg30
(F4631.673084306485
F3447.230501117219
tp250
sg35
F4631.673084306485
sbsg36
I0
sg37
(isrc.util
Loc
p251
(dp252
g33
F3443.69828463768
sg30
(F4630.977780961409
F3443.69828463768
tp253
sg35
F4630.977780961409
sbsg41
(dp254
g60
I0
sg44
I0
sg17
I0
ssg73
Nsg74
(lp255
g13
(g76
g15
Ntp256
Rp257
(dp258
g80
g246
sbasg81
g82
sg83
F-1.3764351106328097
sg84
I0
sg85
(lp259
sg87
g88
(I962
I713
I27
I27
tp260
Rp261
sg91
g94
sg95
I1
sg96
F1000000000000000.0
sg97
I1
sg98
(lp262
sbg88
(I962
I713
I27
I27
tp263
Rp264
sg13
(g47
g15
Ntp265
Rp266
(dp267
g25
F1.5313243739192306
sg51
I00
sg26
Nsg27
I4
sg28
F1.5313243739195395
sg29
F0.1
sg30
(isrc.util
Loc
p268
(dp269
g33
F3061.9564857046703
sg30
(F4482.327242330882
F3061.9564857046703
tp270
sg35
F4482.327242330882
sbsg36
I0
sg37
(isrc.util
Loc
p271
(dp272
g33
F3061.069452207947
sg30
(F4481.078993191547
F3061.069452207947
tp273
sg35
F4481.078993191547
sbsg41
(dp274
g60
I0
sg44
I0
sg17
I0
ssg73
Nsg74
(lp275
g13
(g76
g15
Ntp276
Rp277
(dp278
g80
g266
sbasg81
g82
sg83
F-0.6178194114545305
sg84
I0
sg85
(lp279
sg87
g88
(I931
I631
I27
I27
tp280
Rp281
sg91
g94
sg95
I1
sg96
F1000000000000000.0
sg97
I1
sg98
(lp282
sbg88
(I931
I631
I27
I27
tp283
Rp284
sg13
(g47
g15
Ntp285
Rp286
(dp287
g25
F3.47158815451985
sg51
I01
sg26
Nsg27
I4
sg28
F3.471588154519908
sg29
F0.1
sg30
(isrc.util
Loc
p288
(dp289
g33
F3503.9701822108177
sg30
(F1536.0273660661483
F3503.9701822108177
tp290
sg35
F1536.0273660661483
sbsg36
I0
sg37
(isrc.util
Loc
p291
(dp292
g33
F3507.4417703653376
sg30
(F1536.0273660661483
F3507.4417703653376
tp293
sg35
F1536.0273660661483
sbsg41
(dp294
g60
I0
sg44
I0
sg17
I0
ssg73
Nsg74
(lp295
g13
(g76
g15
Ntp296
Rp297
(dp298
g80
g286
sbasg81
g82
sg83
F0.9954385471314247
sg84
I0
sg85
(lp299
sg87
g88
(I310
I725
I27
I27
tp300
Rp301
sg91
g94
sg95
I1
sg96
F1000000000000000.0
sg97
I1
sg98
(lp302
sbg88
(I310
I725
I27
I27
tp303
Rp304
sg13
(g47
g15
Ntp305
Rp306
(dp307
g25
F3.5999999999998935
sg51
I00
sg26
Nsg27
I4
sg28
F3.6
sg29
F0.1
sg30
(isrc.util
Loc
p308
(dp309
g33
F3554.103338639502
sg30
(F4644.814025322633
F3554.103338639502
tp310
sg35
F4644.814025322633
sbsg36
I0
sg37
(isrc.util
Loc
p311
(dp312
g33
F3552.888580822975
sg30
(F4648.202884046036
F3552.888580822975
tp313
sg35
F4648.202884046036
sbsg41
(dp314
g60
I0
sg44
I0
sg17
I0
ssg73
Nsg74
(lp315
g13
(g76
g15
Ntp316
Rp317
(dp318
g80
g306
sbasg81
g82
sg83
F-2.797404319768377
sg84
I0
sg85
(lp319
sg87
g88
(I965
I735
I27
I27
tp320
Rp321
sg91
g94
sg95
I1
sg96
F1000000000000000.0
sg97
I1
sg98
(lp322
sbg88
(I965
I735
I27
I27
tp323
Rp324
sg13
(g47
g15
Ntp325
Rp326
(dp327
g25
F3.599999999999909
sg51
I00
sg26
Nsg27
I4
sg28
F3.6
sg29
F0.1
sg30
(isrc.util
Loc
p328
(dp329
g33
F3601.8824600432295
sg30
(F4735.770341810008
F3601.8824600432295
tp330
sg35
F4735.770341810008
sbsg36
I0
sg37
(isrc.util
Loc
p331
(dp332
g33
F3605.4824600432294
sg30
(F4735.770341810008
F3605.4824600432294
tp333
sg35
F4735.770341810008
sbsg41
(dp334
g60
I0
sg44
I0
sg17
I0
ssg73
Nsg74
(lp335
g13
(g76
g15
Ntp336
Rp337
(dp338
g80
g326
sbasg81
g82
sg83
F2.1336609948058722
sg84
I0
sg85
(lp339
sg87
g88
(I984
I745
I27
I27
tp340
Rp341
sg91
g94
sg95
I1
sg96
F1000000000000000.0
sg97
I1
sg98
(lp342
sbg88
(I984
I745
I27
I27
tp343
Rp344
sg13
(g47
g15
Ntp345
Rp346
(dp347
g25
F3.6000000000000654
sg51
I00
sg26
Nsg27
I4
sg28
F3.6
sg29
F0.1
sg30
(isrc.util
Loc
p348
(dp349
g33
F3590.8691950593234
sg30
(F4629.209434470604
F3590.8691950593234
tp350
sg35
F4629.209434470604
sbsg36
I0
sg37
(isrc.util
Loc
p351
(dp352
g33
F3589.9364660789424
sg30
(F4625.732364346324
F3589.9364660789424
tp353
sg35
F4625.732364346324
sbsg41
(dp354
g60
I0
sg44
I0
sg17
I0
ssg73
Nsg74
(lp355
g13
(g76
g15
Ntp356
Rp357
(dp358
g80
g346
sbasg81
g82
sg83
F-0.2620813438466368
sg84
I0
sg85
(lp359
sg87
g88
(I962
I743
I27
I27
tp360
Rp361
sg91
g94
sg95
I1
sg96
F1000000000000000.0
sg97
I1
sg98
(lp362
sbg88
(I962
I743
I27
I27
tp363
Rp364
sg13
(g47
g15
Ntp365
Rp366
(dp367
g25
F3.2426542352064622
sg51
I00
sg26
Nsg27
I4
sg28
F3.2426542352064227
sg29
F0.1
sg30
(isrc.util
Loc
p368
(dp369
g33
F3956.878036549167
sg30
(F4426.640231581133
F3956.878036549167
tp370
sg35
F4426.640231581133
sbsg36
I0
sg37
(isrc.util
Loc
p371
(dp372
g33
F3956.9577255233485
sg30
(F4423.398556681255
F3956.9577255233485
tp373
sg35
F4423.398556681255
sbsg41
(dp374
g60
I0
sg44
I0
sg17
I0
ssg73
Nsg74
(lp375
g13
(g76
g15
Ntp376
Rp377
(dp378
g80
g366
sbasg81
g82
sg83
F0.02457770450790838
sg84
I0
sg85
(lp379
sg87
g88
(I919
I820
I27
I27
tp380
Rp381
sg91
g94
sg95
I1
sg96
F1000000000000000.0
sg97
I1
sg98
(lp382
sbg88
(I919
I820
I27
I27
tp383
Rp384
sg13
(g47
g15
Ntp385
Rp386
(dp387
g25
F0.4721878748956842
sg51
I00
sg26
Nsg27
I4
sg28
F0.47218787489563957
sg29
F0.1
sg30
(isrc.util
Loc
p388
(dp389
g33
F3281.7231231093406
sg30
(F4454.186624536996
F3281.7231231093406
tp390
sg35
F4454.186624536996
sbsg36
I0
sg37
(isrc.util
Loc
p391
(dp392
g33
F3281.5056954536285
sg30
(F4454.605774395316
F3281.5056954536285
tp393
sg35
F4454.605774395316
sbsg41
(dp394
g60
I0
sg44
I0
sg17
I0
ssg73
Nsg74
(lp395
g13
(g76
g15
Ntp396
Rp397
(dp398
g80
g386
sbasg81
g82
sg83
F-2.6630697130519034
sg84
I0
sg85
(lp399
sg87
g88
(I925
I678
I27
I27
tp400
Rp401
sg91
g94
sg95
I1
sg96
F1000000000000000.0
sg97
I1
sg98
(lp402
sbg88
(I925
I678
I27
I27
tp403
Rp404
sg13
(g47
g15
Ntp405
Rp406
(dp407
g25
F3.6000000000002106
sg51
I00
sg26
Nsg27
I4
sg28
F3.6
sg29
F0.1
sg30
(isrc.util
Loc
p408
(dp409
g33
F3614.47956022708
sg30
(F4697.412634151202
F3614.47956022708
tp410
sg35
F4697.412634151202
sbsg36
I0
sg37
(isrc.util
Loc
p411
(dp412
g33
F3612.868339039987
sg30
(F4694.193322689684
F3612.868339039987
tp413
sg35
F4694.193322689684
sbsg41
(dp414
g60
I0
sg44
I0
sg17
I0
ssg73
Nsg74
(lp415
g13
(g76
g15
Ntp416
Rp417
(dp418
g80
g406
sbasg81
g82
sg83
F-0.4640365497637514
sg84
I0
sg85
(lp419
sg87
g88
(I976
I748
I27
I27
tp420
Rp421
sg91
g94
sg95
I1
sg96
F1000000000000000.0
sg97
I1
sg98
(lp422
sbg88
(I976
I748
I27
I27
tp423
Rp424
sg13
(g47
g15
Ntp425
Rp426
(dp427
g25
F0.1266986693259175
sg51
I01
sg26
Nsg27
I4
sg28
F0.12669866932577822
sg29
F0.1
sg30
(isrc.util
Loc
p428
(dp429
g33
F3555.0346729779844
sg30
(F1562.3235497047183
F3555.0346729779844
tp430
sg35
F1562.3235497047183
sbsg36
I0
sg37
(isrc.util
Loc
p431
(dp432
g33
F3554.945009034022
sg30
(F1562.2340347341153
F3554.945009034022
tp433
sg35
F1562.2340347341153
sbsg41
(dp434
g60
I0
sg44
I0
sg17
I0
ssg73
Nsg74
(lp435
g13
(g76
g15
Ntp436
Rp437
(dp438
g80
g426
sbasg81
g82
sg83
F-0.7862295855851806
sg84
I0
sg85
(lp439
sg87
g88
(I315
I735
I27
I27
tp440
Rp441
sg91
g94
sg95
I1
sg96
F1000000000000000.0
sg97
I1
sg98
(lp442
sbg88
(I315
I735
I27
I27
tp443
Rp444
sg13
(g47
g15
Ntp445
Rp446
(dp447
g25
F3.3709488350718857
sg51
I01
sg26
Nsg27
I4
sg28
F3.370948835071708
sg29
F0.1
sg30
(isrc.util
Loc
p448
(dp449
g33
F3563.563630761988
sg30
(F1536.142315220024
F3563.563630761988
tp450
sg35
F1536.142315220024
sbsg36
I0
sg37
(isrc.util
Loc
p451
(dp452
g33
F3560.192681926916
sg30
(F1536.142315220024
F3560.192681926916
tp453
sg35
F1536.142315220024
sbsg41
(dp454
g60
I0
sg44
I0
sg17
I0
ssg73
Nsg74
(lp455
g13
(g76
g15
Ntp456
Rp457
(dp458
g80
g446
sbasg81
g82
sg83
F-0.544270002284799
sg84
I0
sg85
(lp459
sg87
g88
(I310
I737
I27
I27
tp460
Rp461
sg91
g94
sg95
I1
sg96
F1000000000000000.0
sg97
I1
sg98
(lp462
sbg88
(I310
I737
I27
I27
tp463
Rp464
sg13
(g47
g15
Ntp465
Rp466
(dp467
g25
F3.600000000000116
sg51
I00
sg26
Nsg27
I4
sg28
F3.6
sg29
F0.1
sg30
(isrc.util
Loc
p468
(dp469
g33
F3411.2977460351317
sg30
(F4574.7841872383015
F3411.2977460351317
tp470
sg35
F4574.7841872383015
sbsg36
I0
sg37
(isrc.util
Loc
p471
(dp472
g33
F3414.8003392677556
sg30
(F4575.6159568258545
F3414.8003392677556
tp473
sg35
F4575.6159568258545
sbsg41
(dp474
g60
I0
sg44
I0
sg17
I0
ssg73
Nsg74
(lp475
g13
(g76
g15
Ntp476
Rp477
(dp478
g80
g466
sbasg81
g82
sg83
F1.8039500999850226
sg84
I0
sg85
(lp479
sg87
g88
(I950
I705
I27
I27
tp480
Rp481
sg91
g94
sg95
I1
sg96
F1000000000000000.0
sg97
I1
sg98
(lp482
sbg88
(I950
I705
I27
I27
tp483
Rp484
sg13
(g47
g15
Ntp485
Rp486
(dp487
g25
F3.6000000000000227
sg51
I01
sg26
Nsg27
I4
sg28
F3.6
sg29
F0.1
sg30
(isrc.util
Loc
p488
(dp489
g33
F739.8123520761317
sg30
(F384.16990852238575
F739.8123520761317
tp490
sg35
F384.16990852238575
sbsg36
I0
sg37
(isrc.util
Loc
p491
(dp492
g33
F743.4123520761317
sg30
(F384.16990852238575
F743.4123520761317
tp493
sg35
F384.16990852238575
sbsg41
(dp494
g60
I0
sg44
I0
sg17
I0
ssg73
Nsg74
(lp495
g13
(g76
g15
Ntp496
Rp497
(dp498
g80
g486
sbasg81
g82
sg83
F1.200666143947176
sg84
I0
sg85
(lp499
sg87
g88
(I67
I142
I27
I27
tp500
Rp501
sg91
g94
sg95
I1
sg96
F1000000000000000.0
sg97
I1
sg98
(lp502
sbg88
(I67
I142
I27
I27
tp503
Rp504
sg13
(g47
g15
Ntp505
Rp506
(dp507
g25
F2.25808788199198
sg51
I01
sg26
Nsg27
I4
sg28
F2.258087881991963
sg29
F0.1
sg30
(isrc.util
Loc
p508
(dp509
g33
F612.0260390332853
sg30
(F392.0178204547878
F612.0260390332853
tp510
sg35
F392.0178204547878
sbsg36
I0
sg37
(isrc.util
Loc
p511
(dp512
g33
F614.1483062026341
sg30
(F392.78914590147247
F614.1483062026341
tp513
sg35
F392.78914590147247
sbsg41
(dp514
g60
I0
sg44
I0
sg17
I0
ssg73
Nsg74
(lp515
g13
(g76
g15
Ntp516
Rp517
(dp518
g80
g506
sbasg81
g82
sg83
F1.9193974959879498
sg84
I0
sg85
(lp519
sg87
g88
(I68
I115
I27
I27
tp520
Rp521
sg91
g94
sg95
I1
sg96
F1000000000000000.0
sg97
I1
sg98
(lp522
sbg88
(I68
I115
I27
I27
tp523
Rp524
sg13
(g47
g15
Ntp525
Rp526
(dp527
g25
F3.6000000000001044
sg51
I00
sg26
Nsg27
I4
sg28
F3.6
sg29
F0.1
sg30
(isrc.util
Loc
p528
(dp529
g33
F3364.1570681978706
sg30
(F4616.973403893656
F3364.1570681978706
tp530
sg35
F4616.973403893656
sbsg36
I0
sg37
(isrc.util
Loc
p531
(dp532
g33
F3360.6185927551933
sg30
(F4616.3106886142405
F3360.6185927551933
tp533
sg35
F4616.3106886142405
sbsg41
(dp534
g60
I0
sg44
I0
sg17
I0
ssg73
Nsg74
(lp535
g13
(g76
g15
Ntp536
Rp537
(dp538
g80
g526
sbasg81
g82
sg83
F-1.3856528322586052
sg84
I0
sg85
(lp539
sg87
g88
(I959
I695
I27
I27
tp540
Rp541
sg91
g94
sg95
I1
sg96
F1000000000000000.0
sg97
I1
sg98
(lp542
sbg88
(I959
I695
I27
I27
tp543
Rp544
sg13
(g47
g15
Ntp545
Rp546
(dp547
g25
F3.600000000000133
sg51
I00
sg26
Nsg27
I4
sg28
F3.6
sg29
F0.1
sg30
(isrc.util
Loc
p548
(dp549
g33
F3353.893069790882
sg30
(F4523.2784060363765
F3353.893069790882
tp550
sg35
F4523.2784060363765
sbsg36
I0
sg37
(isrc.util
Loc
p551
(dp552
g33
F3352.5577588930632
sg30
(F4519.935212233115
F3352.5577588930632
tp553
sg35
F4519.935212233115
sbsg41
(dp554
g60
I0
sg44
I0
sg17
I0
ssg73
Nsg74
(lp555
g13
(g76
g15
Ntp556
Rp557
(dp558
g80
g546
sbasg81
g82
sg83
F-0.3799991648498965
sg84
I0
sg85
(lp559
sg87
g88
(I940
I693
I27
I27
tp560
Rp561
sg91
g94
sg95
I1
sg96
F1000000000000000.0
sg97
I1
sg98
(lp562
sbg88
(I940
I693
I27
I27
tp563
Rp564
sg13
(g47
g15
Ntp565
Rp566
(dp567
g25
F3.599999999999868
sg51
I00
sg26
Nsg27
I4
sg28
F3.6
sg29
F0.1
sg30
(isrc.util
Loc
p568
(dp569
g33
F3668.5113710722403
sg30
(F4733.6320960077055
F3668.5113710722403
tp570
sg35
F4733.6320960077055
sbsg36
I0
sg37
(isrc.util
Loc
p571
(dp572
g33
F3665.1135839981625
sg30
(F4732.442540208582
F3665.1135839981625
tp573
sg35
F4732.442540208582
sbsg41
(dp574
g60
I0
sg44
I0
sg17
I0
ssg73
Nsg74
(lp575
g13
(g76
g15
Ntp576
Rp577
(dp578
g80
g566
sbasg81
g82
sg83
F-1.2340349023220407
sg84
I0
sg85
(lp579
sg87
g88
(I984
I759
I27
I27
tp580
Rp581
sg91
g94
sg95
I1
sg96
F1000000000000000.0
sg97
I1
sg98
(lp582
sbg88
(I984
I759
I27
I27
tp583
Rp584
sg13
(g47
g15
Ntp585
Rp586
(dp587
g25
F2.7289803404338993
sg51
I00
sg26
Nsg27
I4
sg28
F2.728980340433716
sg29
F0.1
sg30
(isrc.util
Loc
p588
(dp589
g33
F3220.000012746755
sg30
(F4489.268442803244
F3220.000012746755
tp590
sg35
F4489.268442803244
sbsg36
I0
sg37
(isrc.util
Loc
p591
(dp592
g33
F3222.280430385328
sg30
(F4490.767452173515
F3222.280430385328
tp593
sg35
F4490.767452173515
sbsg41
(dp594
g60
I0
sg44
I0
sg17
I0
ssg73
Nsg74
(lp595
g13
(g76
g15
Ntp596
Rp597
(dp598
g80
g586
sbasg81
g82
sg83
F2.1523140731167802
sg84
I0
sg85
(lp599
sg87
g88
(I932
I665
I27
I27
tp600
Rp601
sg91
g94
sg95
I1
sg96
F1000000000000000.0
sg97
I1
sg98
(lp602
sbg88
(I932
I665
I27
I27
tp603
Rp604
sg13
(g47
g15
Ntp605
Rp606
(dp607
g25
F3.600000000000159
sg51
I00
sg26
Nsg27
I4
sg28
F3.6
sg29
F0.1
sg30
(isrc.util
Loc
p608
(dp609
g33
F3496.671460216772
sg30
(F4636.949997897287
F3496.671460216772
tp610
sg35
F4636.949997897287
sbsg36
I0
sg37
(isrc.util
Loc
p611
(dp612
g33
F3493.1072386312976
sg30
(F4636.44371290873
F3493.1072386312976
tp613
sg35
F4636.44371290873
sbsg41
(dp614
g60
I0
sg44
I0
sg17
I0
ssg73
Nsg74
(lp615
g13
(g76
g15
Ntp616
Rp617
(dp618
g80
g606
sbasg81
g82
sg83
F-1.4296938507404129
sg84
I0
sg85
(lp619
sg87
g88
(I964
I723
I27
I27
tp620
Rp621
sg91
g94
sg95
I1
sg96
F1000000000000000.0
sg97
I1
sg98
(lp622
sbg88
(I964
I723
I27
I27
tp623
Rp624
sg13
(g47
g15
Ntp625
Rp626
(dp627
g25
F3.1415390451215184
sg51
I00
sg26
Nsg27
I4
sg28
F3.14153904512182
sg29
F0.1
sg30
(isrc.util
Loc
p628
(dp629
g33
F3162.443938728755
sg30
(F4481.002346279181
F3162.443938728755
tp630
sg35
F4481.002346279181
sbsg36
I0
sg37
(isrc.util
Loc
p631
(dp632
g33
F3159.423816058402
sg30
(F4480.137403143453
F3159.423816058402
tp633
sg35
F4480.137403143453
sbsg41
(dp634
g60
I0
sg44
I0
sg17
I0
ssg73
Nsg74
(lp635
g13
(g76
g15
Ntp636
Rp637
(dp638
g80
g626
sbasg81
g82
sg83
F-1.2918689397673824
sg84
I0
sg85
(lp639
sg87
g88
(I931
I653
I27
I27
tp640
Rp641
sg91
g94
sg95
I1
sg96
F1000000000000000.0
sg97
I1
sg98
(lp642
sbg88
(I931
I653
I27
I27
tp643
Rp644
sg13
(g47
g15
Ntp645
Rp646
(dp647
g25
F3.6000000000001435
sg51
I00
sg26
Nsg27
I4
sg28
F3.6
sg29
F0.1
sg30
(isrc.util
Loc
p648
(dp649
g33
F3714.5794021474576
sg30
(F4733.698659571315
F3714.5794021474576
tp650
sg35
F4733.698659571315
sbsg36
I0
sg37
(isrc.util
Loc
p651
(dp652
g33
F3711.0940167742997
sg30
(F4732.797499873715
F3711.0940167742997
tp653
sg35
F4732.797499873715
sbsg41
(dp654
g60
I0
sg44
I0
sg17
I0
ssg73
Nsg74
(lp655
g13
(g76
g15
Ntp656
Rp657
(dp658
g80
g646
sbasg81
g82
sg83
F-1.3177833544299866
sg84
I0
sg85
(lp659
sg87
g88
(I984
I769
I27
I27
tp660
Rp661
sg91
g94
sg95
I1
sg96
F1000000000000000.0
sg97
I1
sg98
(lp662
sbg88
(I984
I769
I27
I27
tp663
Rp664
sg13
(g47
g15
Ntp665
Rp666
(dp667
g25
F3.6000000000001484
sg51
I00
sg26
Nsg27
I4
sg28
F3.6
sg29
F0.1
sg30
(isrc.util
Loc
p668
(dp669
g33
F3959.1832800874713
sg30
(F4613.773468592811
F3959.1832800874713
tp670
sg35
F4613.773468592811
sbsg36
I0
sg37
(isrc.util
Loc
p671
(dp672
g33
F3962.7496485261727
sg30
(F4613.282534626339
F3962.7496485261727
tp673
sg35
F4613.282534626339
sbsg41
(dp674
g60
I0
sg44
I0
sg17
I0
ssg73
Nsg74
(lp675
g13
(g76
g15
Ntp676
Rp677
(dp678
g80
g666
sbasg81
g82
sg83
F1.4339995248338897
sg84
I0
sg85
(lp679
sg87
g88
(I959
I821
I27
I27
tp680
Rp681
sg91
g94
sg95
I1
sg96
F1000000000000000.0
sg97
I1
sg98
(lp682
sbg88
(I959
I821
I27
I27
tp683
Rp684
sg13
(g47
g15
Ntp685
Rp686
(dp687
g25
F2.699722206259594
sg51
I01
sg26
Nsg27
I4
sg28
F2.6997222062597777
sg29
F0.1
sg30
(isrc.util
Loc
p688
(dp689
g33
F3467.260301399442
sg30
(F1536.2804647131018
F3467.260301399442
tp690
sg35
F1536.2804647131018
sbsg36
I0
sg37
(isrc.util
Loc
p691
(dp692
g33
F3464.5605791931825
sg30
(F1536.2804647131018
F3464.5605791931825
tp693
sg35
F1536.2804647131018
sbsg41
(dp694
g60
I0
sg44
I0
sg17
I0
ssg73
Nsg74
(lp695
g13
(g76
g15
Ntp696
Rp697
(dp698
g80
g686
sbasg81
g82
sg83
F-0.36191589664532686
sg84
I0
sg85
(lp699
sg87
g88
(I310
I717
I27
I27
tp700
Rp701
sg91
g94
sg95
I1
sg96
F1000000000000000.0
sg97
I1
sg98
(lp702
sbg88
(I310
I717
I27
I27
tp703
Rp704
sg13
(g47
g15
Ntp705
Rp706
(dp707
g25
F3.600000000000085
sg51
I01
sg26
Nsg27
I4
sg28
F3.6
sg29
F0.1
sg30
(isrc.util
Loc
p708
(dp709
g33
F3354.4216036711214
sg30
(F1117.4539448336088
F3354.4216036711214
tp710
sg35
F1117.4539448336088
sbsg36
I0
sg37
(isrc.util
Loc
p711
(dp712
g33
F3351.259684376519
sg30
(F1115.7328212545412
F3351.259684376519
tp713
sg35
F1115.7328212545412
sbsg41
(dp714
g60
I0
sg44
I0
sg17
I0
ssg73
Nsg74
(lp715
g13
(g76
g15
Ntp716
Rp717
(dp718
g80
g706
sbasg81
g82
sg83
F-1.0723176665455338
sg84
I0
sg85
(lp719
sg87
g88
(I221
I693
I27
I27
tp720
Rp721
sg91
g94
sg95
I1
sg96
F1000000000000000.0
sg97
I1
sg98
(lp722
sbg88
(I221
I693
I27
I27
tp723
Rp724
sg13
(g47
g15
Ntp725
Rp726
(dp727
g25
F2.1693884687292075
sg51
I00
sg26
Nsg27
I4
sg28
F2.169388468728816
sg29
F0.1
sg30
(isrc.util
Loc
p728
(dp729
g33
F3955.2776369648213
sg30
(F4308.381082832108
F3955.2776369648213
tp730
sg35
F4308.381082832108
sbsg36
I0
sg37
(isrc.util
Loc
p731
(dp732
g33
F3955.1457623934757
sg30
(F4306.215706323118
F3955.1457623934757
tp733
sg35
F4306.215706323118
sbsg41
(dp734
g60
I0
sg44
I0
sg17
I0
ssg73
Nsg74
(lp735
g13
(g76
g15
Ntp736
Rp737
(dp738
g80
g726
sbasg81
g82
sg83
F-0.06082632388588477
sg84
I0
sg85
(lp739
sg87
g88
(I894
I820
I27
I27
tp740
Rp741
sg91
g94
sg95
I1
sg96
F1000000000000000.0
sg97
I1
sg98
(lp742
sbg88
(I894
I820
I27
I27
tp743
Rp744
sg13
(g47
g15
Ntp745
Rp746
(dp747
g25
F1.158632330391197
sg51
I00
sg26
Nsg27
I4
sg28
F1.1586323303909416
sg29
F0.1
sg30
(isrc.util
Loc
p748
(dp749
g33
F3963.5472361573266
sg30
(F4496.712681894317
F3963.5472361573266
tp750
sg35
F4496.712681894317
sbsg36
I0
sg37
(isrc.util
Loc
p751
(dp752
g33
F3962.7422383761696
sg30
(F4497.545993030304
F3962.7422383761696
tp753
sg35
F4497.545993030304
sbsg41
(dp754
g60
I0
sg44
I0
sg17
I0
ssg73
Nsg74
(lp755
g13
(g76
g15
Ntp756
Rp757
(dp758
g80
g746
sbasg81
g82
sg83
F-2.3734748310725156
sg84
I0
sg85
(lp759
sg87
g88
(I934
I822
I27
I27
tp760
Rp761
sg91
g94
sg95
I1
sg96
F1000000000000000.0
sg97
I1
sg98
(lp762
sbg88
(I934
I822
I27
I27
tp763
Rp764
sg13
(g47
g15
Ntp765
Rp766
(dp767
g25
F2.0835148952579554
sg51
I00
sg26
Nsg27
I4
sg28
F2.083514895257932
sg29
F0.1
sg30
(isrc.util
Loc
p768
(dp769
g33
F3766.914311308499
sg30
(F4730.301384667171
F3766.914311308499
tp770
sg35
F4730.301384667171
sbsg36
I0
sg37
(isrc.util
Loc
p771
(dp772
g33
F3764.981755617184
sg30
(F4731.080013473938
F3764.981755617184
tp773
sg35
F4731.080013473938
sbsg41
(dp774
g60
I0
sg44
I0
sg17
I0
ssg73
Nsg74
(lp775
g13
(g76
g15
Ntp776
Rp777
(dp778
g80
g766
sbasg81
g82
sg83
F-1.9538011444384478
sg84
I0
sg85
(lp779
sg87
g88
(I983
I780
I27
I27
tp780
Rp781
sg91
g94
sg95
I1
sg96
F1000000000000000.0
sg97
I1
sg98
(lp782
sbg88
(I983
I780
I27
I27
tp783
Rp784
sg13
(g47
g15
Ntp785
Rp786
(dp787
g25
F3.6000000000000227
sg51
I01
sg26
Nsg27
I4
sg28
F3.6
sg29
F0.1
sg30
(isrc.util
Loc
p788
(dp789
g33
F933.1816768930855
sg30
(F384.1569305854821
F933.1816768930855
tp790
sg35
F384.1569305854821
sbsg36
I0
sg37
(isrc.util
Loc
p791
(dp792
g33
F929.5816768930855
sg30
(F384.1569305854821
F929.5816768930855
tp793
sg35
F384.1569305854821
sbsg41
(dp794
g60
I0
sg44
I0
sg17
I0
ssg73
Nsg74
(lp795
g13
(g76
g15
Ntp796
Rp797
(dp798
g80
g786
sbasg81
g82
sg83
F-1.5071782348564835
sg84
I0
sg85
(lp799
sg87
g88
(I67
I182
I27
I27
tp800
Rp801
sg91
g94
sg95
I1
sg96
F1000000000000000.0
sg97
I1
sg98
(lp802
sbg88
(I67
I182
I27
I27
tp803
Rp804
sg13
(g47
g15
Ntp805
Rp806
(dp807
g25
F3.5999999999998913
sg51
I00
sg26
Nsg27
I4
sg28
F3.6
sg29
F0.1
sg30
(isrc.util
Loc
p808
(dp809
g33
F3471.774189858359
sg30
(F4589.5974841340385
F3471.774189858359
tp810
sg35
F4589.5974841340385
sbsg36
I0
sg37
(isrc.util
Loc
p811
(dp812
g33
F3475.2828433166887
sg30
(F4590.403307259389
F3475.2828433166887
tp813
sg35
F4590.403307259389
sbsg41
(dp814
g60
I0
sg44
I0
sg17
I0
ssg73
Nsg74
(lp815
g13
(g76
g15
Ntp816
Rp817
(dp818
g80
g806
sbasg81
g82
sg83
F1.796548750439042
sg84
I0
sg85
(lp819
sg87
g88
(I954
I718
I27
I27
tp820
Rp821
sg91
g94
sg95
I1
sg96
F1000000000000000.0
sg97
I1
sg98
(lp822
sbg88
(I954
I718
I27
I27
tp823
Rp824
sg13
(g47
g15
Ntp825
Rp826
(dp827
g25
F3.600000000000076
sg51
I00
sg26
Nsg27
I4
sg28
F3.6
sg29
F0.1
sg30
(isrc.util
Loc
p828
(dp829
g33
F3564.5513719479345
sg30
(F4696.46554235252
F3564.5513719479345
tp830
sg35
F4696.46554235252
sbsg36
I0
sg37
(isrc.util
Loc
p831
(dp832
g33
F3566.0649598877376
sg30
(F4699.731893764797
F3566.0649598877376
tp833
sg35
F4699.731893764797
sbsg41
(dp834
g60
I0
sg44
I0
sg17
I0
ssg73
Nsg74
(lp835
g13
(g76
g15
Ntp836
Rp837
(dp838
g80
g826
sbasg81
g82
sg83
F2.70766123730959
sg84
I0
sg85
(lp839
sg87
g88
(I976
I737
I27
I27
tp840
Rp841
sg91
g94
sg95
I1
sg96
F1000000000000000.0
sg97
I1
sg98
(lp842
sbg88
(I976
I737
I27
I27
tp843
Rp844
sg13
(g47
g15
Ntp845
Rp846
(dp847
g25
F3.6000000000001147
sg51
I00
sg26
Nsg27
I4
sg28
F3.6
sg29
F0.1
sg30
(isrc.util
Loc
p848
(dp849
g33
F3302.12432440958
sg30
(F4482.269656508452
F3302.12432440958
tp850
sg35
F4482.269656508452
sbsg36
I0
sg37
(isrc.util
Loc
p851
(dp852
g33
F3300.1842191102046
sg30
(F4485.302145820442
F3300.1842191102046
tp853
sg35
F4485.302145820442
sbsg41
(dp854
g60
I0
sg44
I0
sg17
I0
ssg73
Nsg74
(lp855
g13
(g76
g15
Ntp856
Rp857
(dp858
g80
g846
sbasg81
g82
sg83
F-2.5724403972278607
sg84
I0
sg85
(lp859
sg87
g88
(I931
I682
I27
I27
tp860
Rp861
sg91
g94
sg95
I1
sg96
F1000000000000000.0
sg97
I1
sg98
(lp862
sbg88
(I931
I682
I27
I27
tp863
Rp864
sg13
(g47
g15
Ntp865
Rp866
(dp867
g25
F2.684339830746184
sg51
I00
sg26
Nsg27
I4
sg28
F2.6843398307461266
sg29
F0.1
sg30
(isrc.util
Loc
p868
(dp869
g33
F2829.1516553619035
sg30
(F538.0500471024197
F2829.1516553619035
tp870
sg35
F538.0500471024197
sbsg36
I0
sg37
(isrc.util
Loc
p871
(dp872
g33
F2831.774131472681
sg30
(F537.4770729534981
F2831.774131472681
tp873
sg35
F537.4770729534981
sbsg41
(dp874
g60
I0
sg44
I0
sg17
I0
ssg73
Nsg74
(lp875
g13
(g76
g15
Ntp876
Rp877
(dp878
g80
g866
sbasg81
g82
sg83
F1.3556906456997369
sg84
I0
sg85
(lp879
sg87
g88
(I99
I582
I27
I27
tp880
Rp881
sg91
g94
sg95
I1
sg96
F1000000000000000.0
sg97
I1
sg98
(lp882
sbg88
(I99
I582
I27
I27
tp883
Rp884
sg13
(g47
g15
Ntp885
Rp886
(dp887
g25
F1.0737338008513064
sg51
I00
sg26
Nsg27
I4
sg28
F1.0737338008514372
sg29
F0.1
sg30
(isrc.util
Loc
p888
(dp889
g33
F3822.2743751523426
sg30
(F3880.1251754513382
F3822.2743751523426
tp890
sg35
F3880.1251754513382
sbsg36
I0
sg37
(isrc.util
Loc
p891
(dp892
g33
F3822.664626497745
sg30
(F3881.1254794863708
F3822.664626497745
tp893
sg35
F3881.1254794863708
sbsg41
(dp894
g60
I0
sg44
I0
sg17
I0
ssg73
Nsg74
(lp895
g13
(g76
g15
Ntp896
Rp897
(dp898
g80
g886
sbasg81
g82
sg83
F2.7696213767028453
sg84
I0
sg85
(lp899
sg87
g88
(I804
I792
I27
I27
tp900
Rp901
sg91
g94
sg95
I1
sg96
F1000000000000000.0
sg97
I1
sg98
(lp902
sbg88
(I804
I792
I27
I27
tp903
Rp904
ssS'lostsprites'
p905
(lp906
sbI0
sg44
I0
sg17
I0
ssg73
Nsg74
(lp907
g13
(g76
g15
Ntp908
Rp909
(dp910
g80
g49
sbasg81
g82
sg83
F2.5546773230712563
sg84
I0
sg85
(lp911
sg87
g88
(I964
I798
I27
I27
tp912
Rp913
sg91
g94
sg95
I1
sg96
F1000000000000000.0
sg97
I1
sg98
(lp914
sbI0
sg186
I0
sg226
I0
sg13
(g21
g15
Ntp915
Rp916
(dp917
g25
F3.9999999999999654
sg26
Nsg27
I4
sg28
F4.0
sg29
F4.550000000000009
sg30
(isrc.util
Loc
p918
(dp919
g33
F2824.045630271808
sg30
(F2560.123226015557
F2824.045630271808
tp920
sg35
F2560.123226015557
sbsg36
F4.550000000000009
sg37
(isrc.util
Loc
p921
(dp922
g33
F2820.055799255404
sg30
(F2560.4082671714286
F2820.055799255404
tp923
sg35
F2560.4082671714286
sbsg41
(dp924
g44
I0
sg13
(g14
g15
Ntp925
Rp926
(dp927
g19
(dp928
g23
g88
(I526
I586
I27
I27
tp929
Rp930
sg916
g88
(I526
I581
I27
I27
tp931
Rp932
sg13
(g21
g15
Ntp933
Rp934
(dp935
g25
F3.9999999999999787
sg26
Nsg27
I4
sg28
F4.0
sg29
F9.599999999999982
sg30
(isrc.util
Loc
p936
(dp937
g33
F3206.00442980597
sg30
(F2364.9658829605646
F3206.00442980597
tp938
sg35
F2364.9658829605646
sbsg36
F9.599999999999982
sg37
(isrc.util
Loc
p939
(dp940
g33
F3204.445446459119
sg30
(F2368.6495728123627
F3204.445446459119
tp941
sg35
F2368.6495728123627
sbsg41
(dp942
g44
I0
sg926
I0
sg17
I0
ssg73
Nsg74
(lp943
g13
(csrc.actor
Bite
p944
g15
Ntp945
Rp946
(dp947
g80
g934
sbasg81
g82
sg83
F-2.7412370647277653
sg84
I0
sg85
(lp948
sg87
g88
(I484
I662
I27
I27
tp949
Rp950
sS'target'
p951
g446
sg91
g94
sg95
I1
sg96
F905.3311159387468
sg97
I1
sg98
(lp952
sbg88
(I484
I662
I27
I27
tp953
Rp954
sg13
(g21
g15
Ntp955
Rp956
(dp957
g25
F4.0
sg26
Nsg27
I4
sg28
F4.0
sg29
F4.6000000000000085
sg30
(isrc.util
Loc
p958
(dp959
g33
F2796.1642878380917
sg30
(F2560.008259698516
F2796.1642878380917
tp960
sg35
F2560.008259698516
sbsg36
F4.6000000000000085
sg37
(isrc.util
Loc
p961
(dp962
g33
F2792.1642878380917
sg30
(F2560.008259698516
F2792.1642878380917
tp963
sg35
F2560.008259698516
sbsg41
(dp964
g44
I0
sg926
I0
sg17
I0
ssg73
Nsg74
(lp965
g13
(g944
g15
Ntp966
Rp967
(dp968
g80
g956
sg136
I0
sbasg81
g82
sS'health'
p969
F13.0
sg83
F-1.5393632904237242
sg84
I0
sg85
(lp970
sg87
g88
(I526
I575
I27
I27
tp971
Rp972
sg951
Nsg91
g94
sg95
I1
sg96
F1000000000000000.0
sg97
I1
sg98
(lp973
sbg88
(I526
I575
I27
I27
tp974
Rp975
sg13
(g21
g15
Ntp976
Rp977
(dp978
g25
F4.0
sg26
Nsg27
I4
sg28
F4.0
sg29
F4.6000000000000085
sg30
(isrc.util
Loc
p979
(dp980
g33
F2811.8319101891725
sg30
(F2560.0035809881074
F2811.8319101891725
tp981
sg35
F2560.0035809881074
sbsg36
F4.6000000000000085
sg37
(isrc.util
Loc
p982
(dp983
g33
F2807.8319101891725
sg30
(F2560.0035809881074
F2807.8319101891725
tp984
sg35
F2560.0035809881074
sbsg41
(dp985
g44
I0
sg926
I0
sg17
I0
ssg73
Nsg74
(lp986
g13
(g944
g15
Ntp987
Rp988
(dp989
g80
g977
sg136
I0
sbasg81
g82
sg969
F18.0
sg83
F-1.5559696691404739
sg84
I0
sg85
(lp990
sg87
g88
(I526
I579
I27
I27
tp991
Rp992
sg951
Nsg91
g94
sg95
I1
sg96
F1000000000000000.0
sg97
I1
sg98
(lp993
sbg88
(I526
I579
I27
I27
tp994
Rp995
sg13
(g21
g15
Ntp996
Rp997
(dp998
g25
F4.0
sg26
Nsg27
I4
sg28
F4.0
sg29
F4.6000000000000085
sg30
(isrc.util
Loc
p999
(dp1000
g33
F2668.586635093746
sg30
(F2560.044690730537
F2668.586635093746
tp1001
sg35
F2560.044690730537
sbsg36
F4.6000000000000085
sg37
(isrc.util
Loc
p1002
(dp1003
g33
F2664.586635093746
sg30
(F2560.044690730537
F2664.586635093746
tp1004
sg35
F2560.044690730537
sbsg41
(dp1005
g44
I0
sg926
I0
sg17
I0
ssg73
Nsg74
(lp1006
g13
(g944
g15
Ntp1007
Rp1008
(dp1009
g80
g997
sg136
I0
sbasg81
g82
sg969
F17.0
sg83
F-1.5654407317941685
sg84
I0
sg85
(lp1010
sg87
g88
(I526
I548
I27
I27
tp1011
Rp1012
sg951
Nsg91
g94
sg95
I1
sg96
F1000000000000000.0
sg97
I1
sg98
(lp1013
sbg88
(I526
I548
I27
I27
tp1014
Rp1015
sg13
(g21
g15
Ntp1016
Rp1017
(dp1018
g25
F4.0
sg26
Nsg27
I4
sg28
F4.0
sg29
F4.6000000000000085
sg30
(isrc.util
Loc
p1019
(dp1020
g33
F2625.1458404019936
sg30
(F2560.0209262511553
F2625.1458404019936
tp1021
sg35
F2560.0209262511553
sbsg36
F4.6000000000000085
sg37
(isrc.util
Loc
p1022
(dp1023
g33
F2621.1458404019936
sg30
(F2560.0209262511553
F2621.1458404019936
tp1024
sg35
F2560.0209262511553
sbsg41
(dp1025
g44
I0
sg926
I0
sg17
I0
ssg73
Nsg74
(lp1026
g13
(g944
g15
Ntp1027
Rp1028
(dp1029
g80
g1017
sbasg81
g82
sg83
F-1.567621100258308
sg84
I0
sg85
(lp1030
sg87
g88
(I526
I539
I27
I27
tp1031
Rp1032
sg951
Nsg91
g94
sg95
I1
sg96
F1000000000000000.0
sg97
I1
sg98
(lp1033
sbg88
(I526
I539
I27
I27
tp1034
Rp1035
sg13
(g21
g15
Ntp1036
Rp1037
(dp1038
g25
F4.000000000000068
sg26
Nsg27
I4
sg28
F4.0
sg29
F4.6000000000000085
sg30
(isrc.util
Loc
p1039
(dp1040
g33
F2674.5582103303564
sg30
(F2588.479232939681
F2674.5582103303564
tp1041
sg35
F2588.479232939681
sbsg36
F4.6000000000000085
sg37
(isrc.util
Loc
p1042
(dp1043
g33
F2670.750891876642
sg30
(F2589.7057426999386
F2670.750891876642
tp1044
sg35
F2589.7057426999386
sbsg41
(dp1045
g44
I0
sg926
I0
sg17
I0
ssg73
Nsg74
(lp1046
g13
(g944
g15
Ntp1047
Rp1048
(dp1049
g80
g1037
sg136
I0
sbasg81
g82
sg969
F11.0
sg83
F-1.8824440881629692
sg84
I0
sg85
(lp1050
sg87
g88
(I532
I550
I27
I27
tp1051
Rp1052
sg951
Nsg91
g94
sg95
I1
sg96
F1000000000000000.0
sg97
I1
sg98
(lp1053
sbg88
(I532
I550
I27
I27
tp1054
Rp1055
sg13
(g21
g15
Ntp1056
Rp1057
(dp1058
g25
F4.0000000000000915
sg26
Nsg27
I4
sg28
F4.0
sg29
F4.6000000000000085
sg30
(isrc.util
Loc
p1059
(dp1060
g33
F2500.3769426526364
sg30
(F2635.690614833357
F2500.3769426526364
tp1061
sg35
F2635.690614833357
sbsg36
F4.6000000000000085
sg37
(isrc.util
Loc
p1062
(dp1063
g33
F2496.5197823497588
sg30
(F2636.7500082437127
F2496.5197823497588
tp1064
sg35
F2636.7500082437127
sbsg41
(dp1065
g44
I0
sg926
I0
sg17
I0
ssg73
Nsg74
(lp1066
g13
(g944
g15
Ntp1067
Rp1068
(dp1069
g80
g1057
sbasg81
g82
sg83
F-1.8388429824469588
sg84
I0
sg85
(lp1070
sg87
g88
(I541
I513
I27
I27
tp1071
Rp1072
sg951
Nsg91
g94
sg95
I1
sg96
F1000000000000000.0
sg97
I1
sg98
(lp1073
sbg88
(I541
I513
I27
I27
tp1074
Rp1075
sg13
(g21
g15
Ntp1076
Rp1077
(dp1078
g25
F4.000000000000012
sg26
Nsg27
I4
sg28
F4.0
sg29
F11.0
sg30
(isrc.util
Loc
p1079
(dp1080
g33
F793.9617243504385
sg30
(F577.8827035836267
F793.9617243504385
tp1081
sg35
F577.8827035836267
sbsg36
F11.0
sg37
(isrc.util
Loc
p1082
(dp1083
g33
F796.0934280378241
sg30
(F581.2673511855473
F796.0934280378241
tp1084
sg35
F581.2673511855473
sbsg41
(dp1085
g44
I0
sg926
I0
sg17
I0
ssg73
Nsg74
(lp1086
g13
(g944
g15
Ntp1087
Rp1088
(dp1089
g80
g1077
sg136
I0
sbasg81
g82
sg969
F3.0
sg83
F2.579537963809744
sg84
I0
sg85
(lp1090
sg87
g88
(I107
I153
I27
I27
tp1091
Rp1092
sg951
g123
sg91
g94
sg95
I1
sg96
F240.10288524316587
sg97
I1
sg98
(lp1093
sbg88
(I107
I153
I27
I27
tp1094
Rp1095
ssg905
(lp1096
sbI0
sg17
I0
ssg73
Nsg74
(lp1097
g13
(g944
g15
Ntp1098
Rp1099
(dp1100
g80
g916
sg136
I0
sbasg81
g82
sg83
F-1.642117064296435
sg84
I0
sg85
(lp1101
sg87
g88
(I526
I581
I27
I27
tp1102
Rp1103
sg951
Nsg91
g94
sg95
I1
sg96
F1000000000000000.0
sg97
I1
sg98
(lp1104
sbI0
sg266
I0
sg286
I0
sg806
I0
sg326
I0
sg346
I0
sg606
I0
sg934
I0
sg13
(g82
g15
Ntp1105
Rp1106
(dp1107
g29
F0.1
sg30
(isrc.util
Loc
p1108
(dp1109
g33
F2636.935569120797
sg30
(F496.50796738256525
F2636.935569120797
tp1110
sg35
F496.50796738256525
sbsg83
F0.0
sg36
I0
sg37
(isrc.util
Loc
p1111
(dp1112
g33
F2636.935569120797
sg30
(F496.50796738256525
F2636.935569120797
tp1113
sg35
F496.50796738256525
sbsg41
(dp1114
g13
(g14
g15
Ntp1115
Rp1116
(dp1117
g19
(dp1118
g1106
g88
(I90
I542
I27
I27
tp1119
Rp1120
sg13
(g82
g15
Ntp1121
Rp1122
(dp1123
g29
F0.1
sg30
(isrc.util
Loc
p1124
(dp1125
g33
F981.0142569415211
sg30
(F1023.7409146936517
F981.0142569415211
tp1126
sg35
F1023.7409146936517
sbsg83
F0.0
sg36
I0
sg37
(isrc.util
Loc
p1127
(dp1128
g33
F981.0142569415211
sg30
(F1023.7409146936517
F981.0142569415211
tp1129
sg35
F1023.7409146936517
sbsg41
(dp1130
g1116
I0
sg44
I0
sg17
I0
ssg96
F1000000000000000.0
sg26
Nsg95
I1
sg84
I0
sg85
(lp1131
g13
(csrc.actor
Incubate
p1132
g15
Ntp1133
Rp1134
(dp1135
g80
g1122
sg136
I174
sbasg73
Nsg74
(lp1136
sg97
I1
sg25
F0.0
sg98
(lp1137
sg91
g94
sg28
F0.0
sg87
g88
(I201
I192
I27
I27
tp1138
Rp1139
sg27
I4
sbg88
(I201
I192
I27
I27
tp1140
Rp1141
ssg905
(lp1142
sbI0
sg44
I0
sg17
I0
ssg96
F1000000000000000.0
sg26
Nsg95
I1
sg84
I0
sg85
(lp1143
sg73
Nsg74
(lp1144
sg97
I1
sg25
F0.0
sg98
(lp1145
sg91
g94
sg28
F0.0
sg87
g88
(I90
I542
I27
I27
tp1146
Rp1147
sg27
I4
sbI0
sg466
I0
sg586
I0
sg13
(csrc.actor
Soldier
p1148
g15
Ntp1149
Rp1150
(dp1151
g25
F3.9999999999998797
sg51
I00
sg26
Nsg27
I4
sg28
F4.0
sg29
F0.1
sg30
(isrc.util
Loc
p1152
(dp1153
g33
F2414.8140357608977
sg30
(F1025.9194462729574
F2414.8140357608977
tp1154
sg35
F1025.9194462729574
sbsg36
I0
sg37
(isrc.util
Loc
p1155
(dp1156
g33
F2418.8138661384246
sg30
(F1025.882609456971
F2418.8138661384246
tp1157
sg35
F1025.882609456971
sbsg41
(dp1158
g44
I0
sg17
I0
sg13
(g14
g15
Ntp1159
Rp1160
(dp1161
g19
(dp1162
g1150
g88
(I202
I495
I27
I27
tp1163
Rp1164
ssg905
(lp1165
sbI0
ssg73
Nsg74
(lp1166
g13
(csrc.actor
Rifle
p1167
g15
Ntp1168
Rp1169
(dp1170
g80
g1150
sg136
I0
sbag13
(g76
g15
Ntp1171
Rp1172
(dp1173
g80
g1150
sbasg81
g82
sg83
F1.561586992622089
sg84
I0
sg85
(lp1174
sg87
g88
(I202
I495
I27
I27
tp1175
Rp1176
sg91
g94
sg95
I1
sg96
F1000000000000000.0
sg97
I1
sg98
(lp1177
sbI0
sg626
I0
sg366
I0
sg646
I0
sg666
I0
sg686
I0
sg1122
I0
sg726
I0
sg766
I0
sg506
I0
sg826
I0
sg846
I0
sg886
I0
sg64
I0
sg103
I0
sg706
I0
sg123
I0
sg146
I0
sg166
I0
sg206
I0
sg546
I0
sg246
I0
sg446
I0
sg977
I0
sg997
I0
sg386
I0
sg406
I0
sg426
I0
sg1037
I0
sg1057
I0
sg526
I0
sg746
I0
sg566
I0
sg866
I0
sg956
I0
sg1077
I0
sg306
I0
sg786
I0
sg486
I0
sg1017
I0
ssg905
(lp1178
sbI0
sg926
I0
sg17
I0
ssg73
Nsg74
(lp1179
g13
(g944
g15
Ntp1180
Rp1181
(dp1182
g80
g23
sg136
I0
sbasg81
g82
sg83
F-1.4963961934068983
sg84
I0
sg85
(lp1183
sg87
g88
(I526
I586
I27
I27
tp1184
Rp1185
sg951
Nsg91
g94
sg95
I1
sg96
F1000000000000000.0
sg97
I1
sg98
(lp1186
sbI0
sg326
I0
sg49
I0
sg186
I0
sg526
I0
sg226
I0
sg916
I0
sg266
I0
sg286
I0
sg806
I0
sg346
I0
sg1150
I0
sg934
I0
sg466
I0
sg956
I0
sg586
I0
sg606
I0
sg626
I0
sg366
I0
sg646
I0
sg666
I0
sg686
I0
sg546
I0
sg766
I0
sg506
I0
sg826
I0
sg846
I0
sg866
I0
sg886
I0
sg64
I0
sg103
I0
sg706
I0
sg123
I0
sg146
I0
sg426
I0
sg206
I0
sg446
I0
sg246
I0
sg977
I0
sg997
I0
sg386
I0
sg726
I0
sg406
I0
sg166
I0
sg1037
I0
sg1057
I0
sg1106
I0
sg1077
I0
sg746
I0
sg566
I0
sg1122
I0
sg306
I0
sg786
I0
sg486
I0
sg1017
I0
ssg905
(lp1187
sbsS'tileNames'
p1188
(lp1189
S'tile0.png'
p1190
aS'tile1.png'
p1191
asS'fill'
p1192
I0
sS'mobSize'
p1193
(isrc.util
Loc
p1194
(dp1195
g33
I27
sg30
(I27
I27
tp1196
sg35
I27
sbsS'scale'
p1197
F0.2109375
sS'friendlies'
p1198
g1160
sS'filename'
p1199
S'map.p'
p1200
sS'width'
p1201
I20
sS'other'
p1202
g1116
sS'enemies'
p1203
g926
sS'neutrals'
p1204
g60
sS'viewpoint'
p1205
(F2560.0
F2560.0
tp1206
sS'grid'
p1207
(lp1208
I1
aI1
aI1
aI1
aI1
aI1
aI1
aI1
aI1
aI1
aI1
aI1
aI1
aI1
aI1
aI1
aI1
aI1
aI1
aI1
aI1
aI1
aI1
aI1
aI1
aI1
aI0
aI0
aI0
aI0
aI0
aI1
aI1
aI1
aI1
aI1
aI1
aI1
aI1
aI1
aI1
aI0
aI0
aI0
aI0
aI0
aI0
aI0
aI0
aI0
aI0
aI1
aI1
aI1
aI1
aI1
aI1
aI1
aI1
aI1
aI1
aI0
aI0
aI0
aI1
aI1
aI1
aI1
aI1
aI1
aI0
aI1
aI1
aI1
aI1
aI1
aI1
aI1
aI1
aI1
aI1
aI0
aI0
aI0
aI1
aI1
aI1
aI1
aI1
aI1
aI0
aI1
aI1
aI1
aI1
aI1
aI0
aI0
aI1
aI1
aI1
aI0
aI0
aI0
aI0
aI1
aI1
aI0
aI0
aI0
aI0
aI0
aI0
aI1
aI1
aI1
aI0
aI0
aI1
aI1
aI1
aI1
aI1
aI1
aI0
aI1
aI1
aI0
aI0
aI0
aI0
aI0
aI0
aI1
aI1
aI1
aI0
aI0
aI1
aI1
aI1
aI1
aI1
aI1
aI0
aI1
aI1
aI0
aI0
aI0
aI0
aI0
aI0
aI1
aI1
aI1
aI1
aI0
aI1
aI1
aI1
aI0
aI0
aI1
aI0
aI1
aI1
aI1
aI1
aI1
aI0
aI1
aI1
aI1
aI1
aI1
aI1
aI0
aI1
aI1
aI1
aI0
aI0
aI0
aI0
aI1
aI1
aI1
aI1
aI1
aI0
aI1
aI1
aI0
aI0
aI1
aI1
aI0
aI1
aI1
aI1
aI0
aI0
aI1
aI1
aI1
aI0
aI0
aI1
aI1
aI0
aI1
aI1
aI0
aI0
aI0
aI0
aI0
aI1
aI1
aI1
aI0
aI0
aI1
aI1
aI1
aI0
aI0
aI1
aI1
aI0
aI1
aI1
aI0
aI0
aI1
aI1
aI0
aI1
aI1
aI1
aI0
aI1
aI1
aI0
aI0
aI0
aI0
aI0
aI0
aI0
aI0
aI0
aI0
aI0
aI1
aI1
aI0
aI1
aI1
aI1
aI0
aI1
aI1
aI0
aI1
aI0
aI0
aI1
aI1
aI0
aI1
aI1
aI0
aI1
aI1
aI1
aI0
aI0
aI1
aI1
aI0
aI1
aI1
aI0
aI1
aI1
aI1
aI1
aI1
aI0
aI1
aI0
aI0
aI0
aI0
aI1
aI1
aI0
aI1
aI1
aI0
aI1
aI1
aI0
aI1
aI1
aI1
aI1
aI1
aI0
aI1
aI0
aI0
aI0
aI0
aI0
aI0
aI0
aI1
aI1
aI0
aI0
aI0
aI0
aI0
aI1
aI1
aI1
aI1
aI0
aI1
aI0
aI0
aI0
aI0
aI1
aI1
aI1
aI1
aI1
aI1
aI1
aI0
aI0
aI0
aI1
aI1
aI1
aI1
aI0
aI1
aI0
aI0
aI0
aI0
aI1
aI1
aI1
aI1
aI1
aI1
aI1
aI1
aI1
aI1
aI1
aI1
aI1
aI1
aI0
aI1
aI1
aI1
aI1
aI1
aI1
aI1
aI1
aI1
aI1
aI1
aI1
aI1
aI1
aI1
aI1
aI1
aI1
aI1
aI1
aI1
aI1
aI1
aI1
aI1
aI1
aI1
aI1
aI1
asS'actorSize'
p1209
I27
sS'tileSize'
p1210
I54
sS'mobOffset'
p1211
(isrc.util
Loc
p1212
(dp1213
g33
F-13.5
sg30
(F-13.5
F-13.5
tp1214
sg35
F-13.5
sbsS'maxScale'
p1215
F2.0
sS'mobs'
p1216
g44
sS'minScale'
p1217
F0.05
s.